 80481b1:	81 c3 4f 0e 09 00    	add    $0x90e4f,%ebx
 80481b7:	c7 c0 00 00 00 00    	mov    $0x0,%eax
 80481bd:	85 c0                	test   %eax,%eax
 80481bf:	74 05                	je     80481c6 <_init+0x1e>
 80481c1:	e8 3a 7e fb f7       	call   0 <_nl_current_LC_CTYPE>
 80481c6:	83 c4 08             	add    $0x8,%esp
 80481c9:	5b                   	pop    %ebx
 80481ca:	c3                   	ret    
 8048236:	66 90                	xchg   %ax,%ax
 8048238:	ff 25 40 90 0d 08    	jmp    *0x80d9040
 804823e:	66 90                	xchg   %ax,%ax

Disassembly of section .text:

08048240 <backtrace_and_maps.constprop.0>:
 8048240:	c3                   	ret    
 804833d:	c1 ea 02             	shr    $0x2,%edx
 8048340:	89 97 08 1f 00 00    	mov    %edx,0x1f08(%edi)
 8048346:	83 c4 3c             	add    $0x3c,%esp
 8048349:	5b                   	pop    %ebx
 804834a:	5e                   	pop    %esi
 804834b:	5f                   	pop    %edi
 804834c:	5d                   	pop    %ebp
 804834d:	c3                   	ret    
 8048754:	51                   	push   %ecx
 8048755:	56                   	push   %esi
 8048756:	c7 c0 fc 88 04 08    	mov    $0x80488fc,%eax
 804875c:	50                   	push   %eax
 804875d:	e8 ce 04 00 00       	call   8048c30 <__libc_start_main>
 8048762:	f4                   	hlt    
 8048763:	8b 1c 24             	mov    (%esp),%ebx
 8048766:	c3                   	ret    
 8048778:	66 90                	xchg   %ax,%ax
 804877a:	66 90                	xchg   %ax,%ax
 804877c:	66 90                	xchg   %ax,%ax
 804877e:	66 90                	xchg   %ax,%ax

08048780 <__x86.get_pc_thunk.bx>:
 8048780:	8b 1c 24             	mov    (%esp),%ebx
 8048783:	c3                   	ret    
 80487a5:	55                   	push   %ebp
 80487a6:	89 e5                	mov    %esp,%ebp
 80487a8:	83 ec 14             	sub    $0x14,%esp
 80487ab:	68 80 9f 0d 08       	push   $0x80d9f80
 80487b0:	ff d0                	call   *%eax
 80487b2:	83 c4 10             	add    $0x10,%esp
 80487b5:	c9                   	leave  
 80487b6:	c3                   	ret    
 80487f2:	89 e5                	mov    %esp,%ebp
 80487f4:	83 ec 10             	sub    $0x10,%esp
 80487f7:	50                   	push   %eax
 80487f8:	68 80 9f 0d 08       	push   $0x80d9f80
 80487fd:	ff d2                	call   *%edx
 80487ff:	83 c4 10             	add    $0x10,%esp
 8048802:	c9                   	leave  
 8048803:	c3                   	ret    
 804882b:	74 10                	je     804883d <__do_global_dtors_aux+0x2d>
 804882d:	83 ec 0c             	sub    $0xc,%esp
 8048830:	68 64 43 0c 08       	push   $0x80c4364
 8048835:	e8 26 1d 06 00       	call   80aa560 <__deregister_frame_info_bases>
 804883a:	83 c4 10             	add    $0x10,%esp
 804883d:	c6 05 20 a3 0d 08 01 	movb   $0x1,0x80da320
 8048844:	c9                   	leave  
 8048845:	c3                   	ret    
 80488ab:	ff 75 08             	pushl  0x8(%ebp)
 80488ae:	8d 45 9c             	lea    -0x64(%ebp),%eax
 80488b1:	50                   	push   %eax
 80488b2:	e8 19 f9 ff ff       	call   80481d0 <.plt>
 80488b7:	83 c4 08             	add    $0x8,%esp
 80488ba:	90                   	nop
 80488bb:	c9                   	leave  
 80488bc:	c3                   	ret    
 80488e7:	83 c0 04             	add    $0x4,%eax
 80488ea:	8b 00                	mov    (%eax),%eax
 80488ec:	50                   	push   %eax
 80488ed:	e8 b3 ff ff ff       	call   80488a5 <vulnerable>
 80488f2:	83 c4 04             	add    $0x4,%esp
 80488f5:	b8 00 00 00 00       	mov    $0x0,%eax
 80488fa:	c9                   	leave  
 80488fb:	c3                   	ret    
 80489a9:	6a 47                	push   $0x47
 80489ab:	6a 01                	push   $0x1
 80489ad:	68 34 bc 0a 08       	push   $0x80abc34
 80489b2:	e8 f9 77 00 00       	call   80501b0 <_IO_fwrite>
 80489b7:	83 c4 10             	add    $0x10,%esp
 80489ba:	8b 45 f8             	mov    -0x8(%ebp),%eax
 80489bd:	c9                   	leave  
 80489be:	c3                   	ret    
 8048b88:	83 e0 c0             	and    $0xffffffc0,%eax
 8048b8b:	89 45 40             	mov    %eax,0x40(%ebp)
 8048b8e:	81 c4 08 01 00 00    	add    $0x108,%esp
 8048b94:	5b                   	pop    %ebx
 8048b95:	5e                   	pop    %esi
 8048b96:	5f                   	pop    %edi
 8048b97:	5d                   	pop    %ebp
 8048b98:	c3                   	ret    
 8049319:	e9 57 ff ff ff       	jmp    8049275 <__libc_start_main+0x645>
 804931e:	83 f8 5f             	cmp    $0x5f,%eax
 8049321:	74 ac                	je     80492cf <__libc_start_main+0x69f>
 8049323:	e9 4d ff ff ff       	jmp    8049275 <__libc_start_main+0x645>

08049328 <__x86.get_pc_thunk.ax>:
 8049328:	8b 04 24             	mov    (%esp),%eax
 804932b:	c3                   	ret    

08049328 <__x86.get_pc_thunk.ax>:
 8049328:	8b 04 24             	mov    (%esp),%eax
 804932b:	c3                   	ret    

0804932c <__x86.get_pc_thunk.bp>:
 804932c:	8b 2c 24             	mov    (%esp),%ebp
 804932f:	c3                   	ret    
 8049359:	8b 54 24 0c          	mov    0xc(%esp),%edx
 804935d:	74 08                	je     8049367 <check_one_fd+0x37>
 804935f:	83 c4 7c             	add    $0x7c,%esp
 8049362:	5b                   	pop    %ebx
 8049363:	5e                   	pop    %esi
 8049364:	5f                   	pop    %edi
 8049365:	5d                   	pop    %ebp
 8049366:	c3                   	ret    
 8049665:	c7 c0 ec ae 0d 08    	mov    $0x80daeec,%eax
 804966b:	c7 00 01 00 00 00    	movl   $0x1,(%eax)
 8049671:	83 c4 3c             	add    $0x3c,%esp
 8049674:	5b                   	pop    %ebx
 8049675:	5e                   	pop    %esi
 8049676:	5f                   	pop    %edi
 8049677:	5d                   	pop    %ebp
 8049678:	c3                   	ret    
 8049675:	5e                   	pop    %esi
 8049676:	5f                   	pop    %edi
 8049677:	5d                   	pop    %ebp
 8049678:	c3                   	ret    

08049679 <__x86.get_pc_thunk.si>:
 8049679:	8b 34 24             	mov    (%esp),%esi
 804967c:	c3                   	ret    
 804970e:	39 74 24 0c          	cmp    %esi,0xc(%esp)
 8049712:	75 e4                	jne    80496f8 <__libc_csu_init+0x78>
 8049714:	83 c4 1c             	add    $0x1c,%esp
 8049717:	5b                   	pop    %ebx
 8049718:	5e                   	pop    %esi
 8049719:	5f                   	pop    %edi
 804971a:	5d                   	pop    %ebp
 804971b:	c3                   	ret    
 8049757:	83 ee 01             	sub    $0x1,%esi
 804975a:	83 fe ff             	cmp    $0xffffffff,%esi
 804975d:	75 f1                	jne    8049750 <__libc_csu_fini+0x30>
 804975f:	e8 54 24 06 00       	call   80abbb8 <_fini>
 8049764:	83 c4 04             	add    $0x4,%esp
 8049767:	5b                   	pop    %ebx
 8049768:	5e                   	pop    %esi
 8049769:	c3                   	ret    
 8049927:	6a 00                	push   $0x0
 8049929:	6a 00                	push   $0x0
 804992b:	6a 00                	push   $0x0
 804992d:	ff 74 24 2c          	pushl  0x2c(%esp)
 8049931:	ff 74 24 2c          	pushl  0x2c(%esp)
 8049935:	e8 96 0d 00 00       	call   804a6d0 <__dcigettext>
 804993a:	83 c4 2c             	add    $0x2c,%esp
 804993d:	c3                   	ret    
 804999c:	0f 94 c1             	sete   %cl
 804999f:	83 c4 1c             	add    $0x1c,%esp
 80499a2:	89 c8                	mov    %ecx,%eax
 80499a4:	5b                   	pop    %ebx
 80499a5:	5e                   	pop    %esi
 80499a6:	5f                   	pop    %edi
 80499a7:	5d                   	pop    %ebp
 80499a8:	c3                   	ret    
 8049a00:	83 c4 1c             	add    $0x1c,%esp
 8049a03:	31 c9                	xor    %ecx,%ecx
 8049a05:	5b                   	pop    %ebx
 8049a06:	89 c8                	mov    %ecx,%eax
 8049a08:	5e                   	pop    %esi
 8049a09:	5f                   	pop    %edi
 8049a0a:	5d                   	pop    %ebp
 8049a0b:	c3                   	ret    
 8049b2f:	85 c0                	test   %eax,%eax
 8049b31:	75 06                	jne    8049b39 <transcmp+0x69>
 8049b33:	8b 47 04             	mov    0x4(%edi),%eax
 8049b36:	2b 46 04             	sub    0x4(%esi),%eax
 8049b39:	5b                   	pop    %ebx
 8049b3a:	5e                   	pop    %esi
 8049b3b:	5f                   	pop    %edi
 8049b3c:	c3                   	ret    
 8049b9b:	72 e3                	jb     8049b80 <plural_lookup.isra.2+0x30>
 8049b9d:	83 c4 0c             	add    $0xc,%esp
 8049ba0:	89 f8                	mov    %edi,%eax
 8049ba2:	5b                   	pop    %ebx
 8049ba3:	5e                   	pop    %esi
 8049ba4:	5f                   	pop    %edi
 8049ba5:	5d                   	pop    %ebp
 8049ba6:	c3                   	ret    
 8049da1:	8b 45 d0             	mov    -0x30(%ebp),%eax
 8049da4:	0f 85 f0 08 00 00    	jne    804a69a <_nl_find_msg+0xaea>
 8049daa:	8d 65 f4             	lea    -0xc(%ebp),%esp
 8049dad:	5b                   	pop    %ebx
 8049dae:	5e                   	pop    %esi
 8049daf:	5f                   	pop    %edi
 8049db0:	5d                   	pop    %ebp
 8049db1:	c3                   	ret    
 804aa72:	89 f0                	mov    %esi,%eax
 804aa74:	0f 85 19 04 00 00    	jne    804ae93 <__dcigettext+0x7c3>
 804aa7a:	8d 65 f4             	lea    -0xc(%ebp),%esp
 804aa7d:	5b                   	pop    %ebx
 804aa7e:	5e                   	pop    %esi
 804aa7f:	5f                   	pop    %edi
 804aa80:	5d                   	pop    %ebp
 804aa81:	c3                   	ret    
 804af6a:	89 e8                	mov    %ebp,%eax
 804af6c:	0f 85 fb 01 00 00    	jne    804b16d <_nl_find_domain+0x2cd>
 804af72:	83 c4 4c             	add    $0x4c,%esp
 804af75:	5b                   	pop    %ebx
 804af76:	5e                   	pop    %esi
 804af77:	5f                   	pop    %edi
 804af78:	5d                   	pop    %ebp
 804af79:	c3                   	ret    
 804b278:	65 33 05 14 00 00 00 	xor    %gs:0x14,%eax
 804b27f:	0f 85 0a 08 00 00    	jne    804ba8f <_nl_load_domain+0x90f>
 804b285:	81 c4 dc 00 00 00    	add    $0xdc,%esp
 804b28b:	5b                   	pop    %ebx
 804b28c:	5e                   	pop    %esi
 804b28d:	5f                   	pop    %edi
 804b28e:	5d                   	pop    %ebp
 804b28f:	c3                   	ret    
 804c746:	8b 44 24 1c          	mov    0x1c(%esp),%eax
 804c74a:	ff 30                	pushl  (%eax)
 804c74c:	8b 44 24 1c          	mov    0x1c(%esp),%eax
 804c750:	ff 30                	pushl  (%eax)
 804c752:	e8 b9 ba ff ff       	call   8048210 <.plt+0x40>
 804c757:	83 c4 18             	add    $0x18,%esp
 804c75a:	5b                   	pop    %ebx
 804c75b:	c3                   	ret    
 804c948:	8b 85 30 fe ff ff    	mov    -0x1d0(%ebp),%eax
 804c94e:	0f 85 5f 03 00 00    	jne    804ccb3 <read_alias_file+0x553>
 804c954:	8d 65 f4             	lea    -0xc(%ebp),%esp
 804c957:	5b                   	pop    %ebx
 804c958:	5e                   	pop    %esi
 804c959:	5f                   	pop    %edi
 804c95a:	5d                   	pop    %ebp
 804c95b:	c3                   	ret    
 804cd97:	e8 b4 10 02 00       	call   806de50 <__lll_unlock_wake_private>
 804cd9c:	83 c4 1c             	add    $0x1c,%esp
 804cd9f:	89 d0                	mov    %edx,%eax
 804cda1:	5b                   	pop    %ebx
 804cda2:	5e                   	pop    %esi
 804cda3:	5f                   	pop    %edi
 804cda4:	5d                   	pop    %ebp
 804cda5:	c3                   	ret    
 804ce4d:	89 83 f0 15 00 00    	mov    %eax,0x15f0(%ebx)
 804ce53:	e9 ae fe ff ff       	jmp    804cd06 <_nl_expand_alias+0x46>
 804ce58:	89 b3 f0 15 00 00    	mov    %esi,0x15f0(%ebx)
 804ce5e:	e9 18 ff ff ff       	jmp    804cd7b <_nl_expand_alias+0xbb>

0804ce63 <__x86.get_pc_thunk.di>:
 804ce63:	8b 3c 24             	mov    (%esp),%edi
 804ce66:	c3                   	ret    
 804d224:	00 
 804d225:	83 c4 2c             	add    $0x2c,%esp
 804d228:	89 e8                	mov    %ebp,%eax
 804d22a:	5b                   	pop    %ebx
 804d22b:	5e                   	pop    %esi
 804d22c:	5f                   	pop    %edi
 804d22d:	5d                   	pop    %ebp
 804d22e:	c3                   	ret    
 804d2de:	83 c4 10             	add    $0x10,%esp
 804d2e1:	89 e8                	mov    %ebp,%eax
 804d2e3:	83 c4 2c             	add    $0x2c,%esp
 804d2e6:	5b                   	pop    %ebx
 804d2e7:	5e                   	pop    %esi
 804d2e8:	5f                   	pop    %edi
 804d2e9:	5d                   	pop    %ebp
 804d2ea:	c3                   	ret    
 804d526:	8b 44 24 0c          	mov    0xc(%esp),%eax
 804d52a:	c6 07 00             	movb   $0x0,(%edi)
 804d52d:	83 c4 1c             	add    $0x1c,%esp
 804d530:	5b                   	pop    %ebx
 804d531:	5e                   	pop    %esi
 804d532:	5f                   	pop    %edi
 804d533:	5d                   	pop    %ebp
 804d534:	c3                   	ret    
 804d549:	75 0d                	jne    804d558 <_nl_normalize_codeset+0xf8>
 804d54b:	83 c4 1c             	add    $0x1c,%esp
 804d54e:	31 c0                	xor    %eax,%eax
 804d550:	5b                   	pop    %ebx
 804d551:	5e                   	pop    %esi
 804d552:	5f                   	pop    %edi
 804d553:	5d                   	pop    %ebp
 804d554:	c3                   	ret    
 804d64b:	0f 44 fa             	cmove  %edx,%edi
 804d64e:	83 c4 1c             	add    $0x1c,%esp
 804d651:	89 f8                	mov    %edi,%eax
 804d653:	5b                   	pop    %ebx
 804d654:	5e                   	pop    %esi
 804d655:	5f                   	pop    %edi
 804d656:	5d                   	pop    %ebp
 804d657:	c3                   	ret    
 804d7d9:	83 ec 0c             	sub    $0xc,%esp
 804d7dc:	56                   	push   %esi
 804d7dd:	e8 fe ef 00 00       	call   805c7e0 <__free>
 804d7e2:	83 c4 10             	add    $0x10,%esp
 804d7e5:	83 c4 04             	add    $0x4,%esp
 804d7e8:	5b                   	pop    %ebx
 804d7e9:	5e                   	pop    %esi
 804d7ea:	c3                   	ret    
 804d89a:	83 fe ff             	cmp    $0xffffffff,%esi
 804d89d:	75 f1                	jne    804d890 <new_exp+0x70>
 804d89f:	83 c4 1c             	add    $0x1c,%esp
 804d8a2:	5b                   	pop    %ebx
 804d8a3:	5e                   	pop    %esi
 804d8a4:	5f                   	pop    %edi
 804d8a5:	5d                   	pop    %ebp
 804d8a6:	c3                   	ret    
 804d8c5:	75 e9                	jne    804d8b0 <new_exp+0x90>
 804d8c7:	31 c0                	xor    %eax,%eax
 804d8c9:	83 c4 1c             	add    $0x1c,%esp
 804d8cc:	5b                   	pop    %ebx
 804d8cd:	5e                   	pop    %esi
 804d8ce:	5f                   	pop    %edi
 804d8cf:	5d                   	pop    %ebp
 804d8d0:	c3                   	ret    
 804da87:	89 f0                	mov    %esi,%eax
 804da89:	0f 85 12 07 00 00    	jne    804e1a1 <.L86+0xe3>
 804da8f:	81 c4 fc 04 00 00    	add    $0x4fc,%esp
 804da95:	5b                   	pop    %ebx
 804da96:	5e                   	pop    %esi
 804da97:	5f                   	pop    %edi
 804da98:	5d                   	pop    %ebp
 804da99:	c3                   	ret    
 804e29b:	65 33 05 14 00 00 00 	xor    %gs:0x14,%eax
 804e2a2:	75 15                	jne    804e2b9 <__gettext_extract_plural+0x109>
 804e2a4:	83 c4 2c             	add    $0x2c,%esp
 804e2a7:	5b                   	pop    %ebx
 804e2a8:	5e                   	pop    %esi
 804e2a9:	5f                   	pop    %edi
 804e2aa:	5d                   	pop    %ebp
 804e2ab:	c3                   	ret    
 804e31c:	89 4a 10             	mov    %ecx,0x10(%edx)
 804e31f:	8b 0c 24             	mov    (%esp),%ecx
 804e322:	65 33 0d 18 00 00 00 	xor    %gs:0x18,%ecx
 804e329:	c1 c1 09             	rol    $0x9,%ecx
 804e32c:	89 4a 14             	mov    %ecx,0x14(%edx)
 804e32f:	89 6a 0c             	mov    %ebp,0xc(%edx)
 804e332:	89 42 18             	mov    %eax,0x18(%edx)
 804e335:	c3                   	ret    
 804e6e0:	ff 74 24 30          	pushl  0x30(%esp)
 804e6e4:	e8 27 bb 01 00       	call   806a210 <memcpy>
 804e6e9:	83 c4 4c             	add    $0x4c,%esp
 804e6ec:	5b                   	pop    %ebx
 804e6ed:	5e                   	pop    %esi
 804e6ee:	5f                   	pop    %edi
 804e6ef:	5d                   	pop    %ebp
 804e6f0:	c3                   	ret    
 804eab8:	65 33 05 14 00 00 00 	xor    %gs:0x14,%eax
 804eabf:	0f 85 35 01 00 00    	jne    804ebfa <__qsort_r+0x32a>
 804eac5:	8d 65 f4             	lea    -0xc(%ebp),%esp
 804eac8:	5b                   	pop    %ebx
 804eac9:	5e                   	pop    %esi
 804eaca:	5f                   	pop    %edi
 804eacb:	5d                   	pop    %ebp
 804eacc:	c3                   	ret    
 804ec03:	6a 00                	push   $0x0
 804ec05:	ff 74 24 2c          	pushl  0x2c(%esp)
 804ec09:	ff 74 24 2c          	pushl  0x2c(%esp)
 804ec0d:	ff 74 24 2c          	pushl  0x2c(%esp)
 804ec11:	ff 74 24 2c          	pushl  0x2c(%esp)
 804ec15:	e8 b6 fc ff ff       	call   804e8d0 <__qsort_r>
 804ec1a:	83 c4 2c             	add    $0x2c,%esp
 804ec1d:	c3                   	ret    
 804ecee:	83 c6 02             	add    $0x2,%esi
 804ecf1:	83 c4 1c             	add    $0x1c,%esp
 804ecf4:	89 f0                	mov    %esi,%eax
 804ecf6:	5b                   	pop    %ebx
 804ecf7:	5e                   	pop    %esi
 804ecf8:	5f                   	pop    %edi
 804ecf9:	5d                   	pop    %ebp
 804ecfa:	c3                   	ret    
 804ed00:	83 c4 1c             	add    $0x1c,%esp
 804ed03:	31 f6                	xor    %esi,%esi
 804ed05:	5b                   	pop    %ebx
 804ed06:	89 f0                	mov    %esi,%eax
 804ed08:	5e                   	pop    %esi
 804ed09:	5f                   	pop    %edi
 804ed0a:	5d                   	pop    %ebp
 804ed0b:	c3                   	ret    
 804effa:	83 83 00 1f 00 00 01 	addl   $0x1,0x1f00(%ebx)
 804f001:	83 93 04 1f 00 00 00 	adcl   $0x0,0x1f04(%ebx)
 804f008:	83 c4 0c             	add    $0xc,%esp
 804f00b:	5b                   	pop    %ebx
 804f00c:	5e                   	pop    %esi
 804f00d:	5f                   	pop    %edi
 804f00e:	5d                   	pop    %ebp
 804f00f:	c3                   	ret    
 804f04a:	eb a8                	jmp    804eff4 <__new_exitfn+0xa4>
 804f04c:	83 c4 0c             	add    $0xc,%esp
 804f04f:	31 c0                	xor    %eax,%eax
 804f051:	5b                   	pop    %ebx
 804f052:	5e                   	pop    %esi
 804f053:	5f                   	pop    %edi
 804f054:	5d                   	pop    %ebp
 804f055:	c3                   	ret    
 804f0f1:	f0 83 2b 01          	lock subl $0x1,(%ebx)
 804f0f5:	74 07                	je     804f0fe <__internal_atexit+0x7e>
 804f0f7:	8d 03                	lea    (%ebx),%eax
 804f0f9:	e8 52 ed 01 00       	call   806de50 <__lll_unlock_wake_private>
 804f0fe:	31 c0                	xor    %eax,%eax
 804f100:	83 c4 08             	add    $0x8,%esp
 804f103:	5b                   	pop    %ebx
 804f104:	c3                   	ret    
 804f13d:	8d 80 70 00 00 00    	lea    0x70(%eax),%eax
 804f143:	50                   	push   %eax
 804f144:	ff 74 24 1c          	pushl  0x1c(%esp)
 804f148:	ff 74 24 1c          	pushl  0x1c(%esp)
 804f14c:	ff 74 24 1c          	pushl  0x1c(%esp)
 804f150:	e8 2b ff ff ff       	call   804f080 <__internal_atexit>
 804f155:	83 c4 1c             	add    $0x1c,%esp
 804f158:	c3                   	ret    
 804f178:	ff 74 24 2c          	pushl  0x2c(%esp)
 804f17c:	ff 74 24 2c          	pushl  0x2c(%esp)
 804f180:	ff 74 24 2c          	pushl  0x2c(%esp)
 804f184:	ff 74 24 2c          	pushl  0x2c(%esp)
 804f188:	e8 43 00 00 00       	call   804f1d0 <____strtoul_l_internal>
 804f18d:	83 c4 28             	add    $0x28,%esp
 804f190:	5b                   	pop    %ebx
 804f191:	c3                   	ret    
 804f1b8:	6a 00                	push   $0x0
 804f1ba:	ff 74 24 2c          	pushl  0x2c(%esp)
 804f1be:	ff 74 24 2c          	pushl  0x2c(%esp)
 804f1c2:	ff 74 24 2c          	pushl  0x2c(%esp)
 804f1c6:	e8 05 00 00 00       	call   804f1d0 <____strtoul_l_internal>
 804f1cb:	83 c4 28             	add    $0x28,%esp
 804f1ce:	5b                   	pop    %ebx
 804f1cf:	c3                   	ret    
 804f213:	65 c7 00 16 00 00 00 	movl   $0x16,%gs:(%eax)
 804f21a:	31 c0                	xor    %eax,%eax
 804f21c:	83 c4 3c             	add    $0x3c,%esp
 804f21f:	5b                   	pop    %ebx
 804f220:	5e                   	pop    %esi
 804f221:	5f                   	pop    %edi
 804f222:	5d                   	pop    %ebp
 804f223:	c3                   	ret    
 804f3ea:	85 c9                	test   %ecx,%ecx
 804f3ec:	0f 45 c2             	cmovne %edx,%eax
 804f3ef:	83 c4 3c             	add    $0x3c,%esp
 804f3f2:	5b                   	pop    %ebx
 804f3f3:	5e                   	pop    %esi
 804f3f4:	5f                   	pop    %edi
 804f3f5:	5d                   	pop    %ebp
 804f3f6:	c3                   	ret    
 804f693:	ff 74 24 28          	pushl  0x28(%esp)
 804f697:	6a 00                	push   $0x0
 804f699:	ff 74 24 2c          	pushl  0x2c(%esp)
 804f69d:	ff 74 24 2c          	pushl  0x2c(%esp)
 804f6a1:	ff 74 24 2c          	pushl  0x2c(%esp)
 804f6a5:	e8 26 fb ff ff       	call   804f1d0 <____strtoul_l_internal>
 804f6aa:	83 c4 2c             	add    $0x2c,%esp
 804f6ad:	c3                   	ret    
 804f7cb:	89 44 24 44          	mov    %eax,0x44(%esp)
 804f7cf:	8b 44 24 44          	mov    0x44(%esp),%eax
 804f7d3:	83 c4 2c             	add    $0x2c,%esp
 804f7d6:	5b                   	pop    %ebx
 804f7d7:	5e                   	pop    %esi
 804f7d8:	5f                   	pop    %edi
 804f7d9:	5d                   	pop    %ebp
 804f7da:	c3                   	ret    
 804f95f:	0f 85 7b ff ff ff    	jne    804f8e0 <__correctly_grouped_prefixmb+0x230>
 804f965:	8b 44 24 44          	mov    0x44(%esp),%eax
 804f969:	83 c4 2c             	add    $0x2c,%esp
 804f96c:	5b                   	pop    %ebx
 804f96d:	5e                   	pop    %esi
 804f96e:	5f                   	pop    %edi
 804f96f:	5d                   	pop    %ebp
 804f970:	c3                   	ret    
 804f993:	83 ec 04             	sub    $0x4,%esp
 804f996:	50                   	push   %eax
 804f997:	ff 74 24 1c          	pushl  0x1c(%esp)
 804f99b:	ff 74 24 1c          	pushl  0x1c(%esp)
 804f99f:	e8 dc fa 02 00       	call   807f480 <_IO_vfprintf>
 804f9a4:	83 c4 18             	add    $0x18,%esp
 804f9a7:	5b                   	pop    %ebx
 804f9a8:	c3                   	ret    
 804f9c3:	83 ec 04             	sub    $0x4,%esp
 804f9c6:	50                   	push   %eax
 804f9c7:	ff 74 24 1c          	pushl  0x1c(%esp)
 804f9cb:	ff 74 24 1c          	pushl  0x1c(%esp)
 804f9cf:	e8 3c 24 00 00       	call   8051e10 <_IO_vasprintf>
 804f9d4:	83 c4 18             	add    $0x18,%esp
 804f9d7:	5b                   	pop    %ebx
 804f9d8:	c3                   	ret    
 804fa9d:	65 33 3d 14 00 00 00 	xor    %gs:0x14,%edi
 804faa4:	0f 85 b8 00 00 00    	jne    804fb62 <locked_vfxprintf+0x182>
 804faaa:	8d 65 f4             	lea    -0xc(%ebp),%esp
 804faad:	5b                   	pop    %ebx
 804faae:	5e                   	pop    %esi
 804faaf:	5f                   	pop    %edi
 804fab0:	5d                   	pop    %ebp
 804fab1:	c3                   	ret    
 804fc00:	74 07                	je     804fc09 <__fxprintf+0x99>
 804fc02:	8d 02                	lea    (%edx),%eax
 804fc04:	e8 47 e2 01 00       	call   806de50 <__lll_unlock_wake_private>
 804fc09:	5b                   	pop    %ebx
 804fc0a:	89 c8                	mov    %ecx,%eax
 804fc0c:	5e                   	pop    %esi
 804fc0d:	5f                   	pop    %edi
 804fc0e:	c3                   	ret    
 804fcbe:	74 07                	je     804fcc7 <__fxprintf_nocancel+0xa7>
 804fcc0:	8d 02                	lea    (%edx),%eax
 804fcc2:	e8 89 e1 01 00       	call   806de50 <__lll_unlock_wake_private>
 804fcc7:	5b                   	pop    %ebx
 804fcc8:	89 c8                	mov    %ecx,%eax
 804fcca:	5e                   	pop    %esi
 804fccb:	5f                   	pop    %edi
 804fccc:	c3                   	ret    
 804fd99:	83 c4 10             	add    $0x10,%esp
 804fd9c:	8b 45 e4             	mov    -0x1c(%ebp),%eax
 804fd9f:	8d 65 f4             	lea    -0xc(%ebp),%esp
 804fda2:	5b                   	pop    %ebx
 804fda3:	5e                   	pop    %esi
 804fda4:	5f                   	pop    %edi
 804fda5:	5d                   	pop    %ebp
 804fda6:	c3                   	ret    
 804ffc6:	e8 85 de 01 00       	call   806de50 <__lll_unlock_wake_private>
 804ffcb:	8d 65 f4             	lea    -0xc(%ebp),%esp
 804ffce:	89 d0                	mov    %edx,%eax
 804ffd0:	5b                   	pop    %ebx
 804ffd1:	5e                   	pop    %esi
 804ffd2:	5f                   	pop    %edi
 804ffd3:	5d                   	pop    %ebp
 804ffd4:	c3                   	ret    
 804ffdf:	8d 65 f4             	lea    -0xc(%ebp),%esp
 804ffe2:	89 c2                	mov    %eax,%edx
 804ffe4:	89 d0                	mov    %edx,%eax
 804ffe6:	5b                   	pop    %ebx
 804ffe7:	5e                   	pop    %esi
 804ffe8:	5f                   	pop    %edi
 804ffe9:	5d                   	pop    %ebp
 804ffea:	c3                   	ret    
 8050122:	74 05                	je     8050129 <__fopen_internal+0x89>
 8050124:	f6 06 08             	testb  $0x8,(%esi)
 8050127:	75 07                	jne    8050130 <__fopen_internal+0x90>
 8050129:	89 f8                	mov    %edi,%eax
 805012b:	5b                   	pop    %ebx
 805012c:	5e                   	pop    %esi
 805012d:	5f                   	pop    %edi
 805012e:	c3                   	ret    
 805013d:	89 86 94 00 00 00    	mov    %eax,0x94(%esi)
 8050143:	8b 56 58             	mov    0x58(%esi),%edx
 8050146:	89 82 b0 00 00 00    	mov    %eax,0xb0(%edx)
 805014c:	89 f8                	mov    %edi,%eax
 805014e:	5b                   	pop    %ebx
 805014f:	5e                   	pop    %esi
 8050150:	5f                   	pop    %edi
 8050151:	c3                   	ret    
08050190 <_IO_new_fopen>:
 8050190:	83 ec 10             	sub    $0x10,%esp
 8050193:	6a 01                	push   $0x1
 8050195:	ff 74 24 1c          	pushl  0x1c(%esp)
 8050199:	ff 74 24 1c          	pushl  0x1c(%esp)
 805019d:	e8 fe fe ff ff       	call   80500a0 <__fopen_internal>
 80501a2:	83 c4 1c             	add    $0x1c,%esp
 80501a5:	c3                   	ret    
 8050199:	ff 74 24 1c          	pushl  0x1c(%esp)
 805019d:	e8 fe fe ff ff       	call   80500a0 <__fopen_internal>
 80501a2:	83 c4 1c             	add    $0x1c,%esp
 80501a5:	c3                   	ret    

080501a6 <__x86.get_pc_thunk.dx>:
 80501a6:	8b 14 24             	mov    (%esp),%edx
 80501a9:	c3                   	ret    
 80502c2:	8b 5d 10             	mov    0x10(%ebp),%ebx
 80502c5:	8d 65 f4             	lea    -0xc(%ebp),%esp
 80502c8:	89 d8                	mov    %ebx,%eax
 80502ca:	5b                   	pop    %ebx
 80502cb:	5e                   	pop    %esi
 80502cc:	5f                   	pop    %edi
 80502cd:	5d                   	pop    %ebp
 80502ce:	c3                   	ret    
 80502d0:	8d 65 f4             	lea    -0xc(%ebp),%esp
 80502d3:	31 db                	xor    %ebx,%ebx
 80502d5:	89 d8                	mov    %ebx,%eax
 80502d7:	5b                   	pop    %ebx
 80502d8:	5e                   	pop    %esi
 80502d9:	5f                   	pop    %edi
 80502da:	5d                   	pop    %ebp
 80502db:	c3                   	ret    
 805038a:	65 33 15 14 00 00 00 	xor    %gs:0x14,%edx
 8050391:	75 72                	jne    8050405 <adjust_wide_data+0xc5>
 8050393:	83 c4 1c             	add    $0x1c,%esp
 8050396:	5b                   	pop    %ebx
 8050397:	5e                   	pop    %esi
 8050398:	5f                   	pop    %edi
 8050399:	5d                   	pop    %ebp
 805039a:	c3                   	ret    
 80504c3:	65 33 15 14 00 00 00 	xor    %gs:0x14,%edx
 80504ca:	0f 85 8e 05 00 00    	jne    8050a5e <_IO_wfile_underflow+0x64e>
 80504d0:	8d 65 f4             	lea    -0xc(%ebp),%esp
 80504d3:	5b                   	pop    %ebx
 80504d4:	5e                   	pop    %esi
 80504d5:	5f                   	pop    %edi
 80504d6:	5d                   	pop    %ebp
 80504d7:	c3                   	ret    
 8050c33:	65 33 35 14 00 00 00 	xor    %gs:0x14,%esi
 8050c3a:	0f 85 70 08 00 00    	jne    80514b0 <_IO_wfile_seekoff+0xa00>
 8050c40:	81 c4 ac 00 00 00    	add    $0xac,%esp
 8050c46:	5b                   	pop    %ebx
 8050c47:	5e                   	pop    %esi
 8050c48:	5f                   	pop    %edi
 8050c49:	5d                   	pop    %ebp
 8050c4a:	c3                   	ret    
 80514f6:	5e                   	pop    %esi
 80514f7:	ff e0                	jmp    *%eax
 80514f9:	8d b4 26 00 00 00 00 	lea    0x0(%esi,%eiz,1),%esi
 8051500:	83 c4 04             	add    $0x4,%esp
 8051503:	b8 ff ff ff ff       	mov    $0xffffffff,%eax
 8051508:	5b                   	pop    %ebx
 8051509:	5e                   	pop    %esi
 805150a:	c3                   	ret    
 80515a6:	65 33 3d 14 00 00 00 	xor    %gs:0x14,%edi
 80515ad:	0f 85 b7 00 00 00    	jne    805166a <_IO_wfile_underflow_mmap+0x15a>
 80515b3:	83 c4 1c             	add    $0x1c,%esp
 80515b6:	5b                   	pop    %ebx
 80515b7:	5e                   	pop    %esi
 80515b8:	5f                   	pop    %edi
 80515b9:	5d                   	pop    %ebp
 80515ba:	c3                   	ret    
 80517af:	65 33 3d 14 00 00 00 	xor    %gs:0x14,%edi
 80517b6:	75 7e                	jne    8051836 <_IO_wdo_write+0x1c6>
 80517b8:	83 c4 4c             	add    $0x4c,%esp
 80517bb:	5b                   	pop    %ebx
 80517bc:	5e                   	pop    %esi
 80517bd:	5f                   	pop    %edi
 80517be:	5d                   	pop    %ebp
 80517bf:	c3                   	ret    
 8051905:	74 69                	je     8051970 <_IO_wfile_overflow+0x130>
 8051907:	8b 44 24 34          	mov    0x34(%esp),%eax
 805190b:	83 c4 1c             	add    $0x1c,%esp
 805190e:	5b                   	pop    %ebx
 805190f:	5e                   	pop    %esi
 8051910:	5f                   	pop    %edi
 8051911:	5d                   	pop    %ebp
 8051912:	c3                   	ret    
 8051937:	e8 34 fd ff ff       	call   8051670 <_IO_wdo_write>
 805193c:	83 c4 10             	add    $0x10,%esp
 805193f:	83 c4 1c             	add    $0x1c,%esp
 8051942:	5b                   	pop    %ebx
 8051943:	5e                   	pop    %esi
 8051944:	5f                   	pop    %edi
 8051945:	5d                   	pop    %ebp
 8051946:	c3                   	ret    
 805195b:	65 c7 00 09 00 00 00 	movl   $0x9,%gs:(%eax)
 8051962:	83 c4 1c             	add    $0x1c,%esp
 8051965:	b8 ff ff ff ff       	mov    $0xffffffff,%eax
 805196a:	5b                   	pop    %ebx
 805196b:	5e                   	pop    %esi
 805196c:	5f                   	pop    %edi
 805196d:	5d                   	pop    %ebp
 805196e:	c3                   	ret    
 8051995:	0f 84 6c ff ff ff    	je     8051907 <_IO_wfile_overflow+0xc7>
 805199b:	83 c4 1c             	add    $0x1c,%esp
 805199e:	b8 ff ff ff ff       	mov    $0xffffffff,%eax
 80519a3:	5b                   	pop    %ebx
 80519a4:	5e                   	pop    %esi
 80519a5:	5f                   	pop    %edi
 80519a6:	5d                   	pop    %ebp
 80519a7:	c3                   	ret    
 8051c03:	c7 46 50 ff ff ff ff 	movl   $0xffffffff,0x50(%esi)
 8051c0a:	83 c4 1c             	add    $0x1c,%esp
 8051c0d:	5b                   	pop    %ebx
 8051c0e:	31 c0                	xor    %eax,%eax
 8051c10:	5e                   	pop    %esi
 8051c11:	5f                   	pop    %edi
 8051c12:	5d                   	pop    %ebp
 8051c13:	c3                   	ret    
 8051c22:	74 d8                	je     8051bfc <_IO_wfile_sync+0xfc>
 8051c24:	83 c4 1c             	add    $0x1c,%esp
 8051c27:	b8 ff ff ff ff       	mov    $0xffffffff,%eax
 8051c2c:	5b                   	pop    %ebx
 8051c2d:	5e                   	pop    %esi
 8051c2e:	5f                   	pop    %edi
 8051c2f:	5d                   	pop    %ebp
 8051c30:	c3                   	ret    
 8051d47:	83 c4 10             	add    $0x10,%esp
 8051d4a:	83 c4 1c             	add    $0x1c,%esp
 8051d4d:	89 f0                	mov    %esi,%eax
 8051d4f:	5b                   	pop    %ebx
 8051d50:	5e                   	pop    %esi
 8051d51:	5f                   	pop    %edi
 8051d52:	5d                   	pop    %ebp
 8051d53:	c3                   	ret    
 8051f57:	89 f8                	mov    %edi,%eax
 8051f59:	75 7f                	jne    8051fda <_IO_vasprintf+0x1ca>
 8051f5b:	81 c4 cc 00 00 00    	add    $0xcc,%esp
 8051f61:	5b                   	pop    %ebx
 8051f62:	5e                   	pop    %esi
 8051f63:	5f                   	pop    %edi
 8051f64:	5d                   	pop    %ebp
 8051f65:	c3                   	ret    
 805215a:	65 33 05 14 00 00 00 	xor    %gs:0x14,%eax
 8052161:	0f 85 f4 00 00 00    	jne    805225b <__libc_message+0x27b>
 8052167:	8d 65 f4             	lea    -0xc(%ebp),%esp
 805216a:	5b                   	pop    %ebx
 805216b:	5e                   	pop    %esi
 805216c:	5f                   	pop    %edi
 805216d:	5d                   	pop    %ebp
 805216e:	c3                   	ret    
 80522a6:	81 c3 5a 6d 08 00    	add    $0x86d5a,%ebx
 80522ac:	83 ec 08             	sub    $0x8,%esp
 80522af:	c7 c0 d0 40 0a 08    	mov    $0x80a40d0,%eax
 80522b5:	85 c0                	test   %eax,%eax
 80522b7:	74 05                	je     80522be <_IO_vtable_check+0x1e>
 80522b9:	83 c4 08             	add    $0x8,%esp
 80522bc:	5b                   	pop    %ebx
 80522bd:	c3                   	ret    
 805233a:	89 3e                	mov    %edi,(%esi)
 805233c:	83 c4 0c             	add    $0xc,%esp
 805233f:	89 c8                	mov    %ecx,%eax
 8052341:	5b                   	pop    %ebx
 8052342:	5e                   	pop    %esi
 8052343:	5f                   	pop    %edi
 8052344:	5d                   	pop    %ebp
 8052345:	c3                   	ret    
 80523ca:	89 43 4c             	mov    %eax,0x4c(%ebx)
 80523cd:	89 53 50             	mov    %edx,0x50(%ebx)
 80523d0:	83 c4 0c             	add    $0xc,%esp
 80523d3:	5b                   	pop    %ebx
 80523d4:	5e                   	pop    %esi
 80523d5:	5f                   	pop    %edi
 80523d6:	5d                   	pop    %ebp
 80523d7:	c3                   	ret    
 8052406:	81 c3 fa 6b 08 00    	add    $0x86bfa,%ebx
 805240c:	83 ec 14             	sub    $0x14,%esp
 805240f:	8b 44 24 1c          	mov    0x1c(%esp),%eax
 8052413:	ff 70 38             	pushl  0x38(%eax)
 8052416:	e8 45 9d 01 00       	call   806c160 <__close_nocancel>
 805241b:	83 c4 18             	add    $0x18,%esp
 805241e:	5b                   	pop    %ebx
 805241f:	c3                   	ret    
 8052455:	89 46 0c             	mov    %eax,0xc(%esi)
 8052458:	89 46 04             	mov    %eax,0x4(%esi)
 805245b:	89 46 08             	mov    %eax,0x8(%esi)
 805245e:	89 f0                	mov    %esi,%eax
 8052460:	83 c4 04             	add    $0x4,%esp
 8052463:	5b                   	pop    %ebx
 8052464:	5e                   	pop    %esi
 8052465:	c3                   	ret    
 80524c0:	89 46 0c             	mov    %eax,0xc(%esi)
 80524c3:	89 46 04             	mov    %eax,0x4(%esi)
 80524c6:	89 46 08             	mov    %eax,0x8(%esi)
 80524c9:	89 f0                	mov    %esi,%eax
 80524cb:	83 c4 04             	add    $0x4,%esp
 80524ce:	5b                   	pop    %ebx
 80524cf:	5e                   	pop    %esi
 80524d0:	c3                   	ret    
 805259d:	89 47 18             	mov    %eax,0x18(%edi)
 80525a0:	83 c4 2c             	add    $0x2c,%esp
 80525a3:	89 f0                	mov    %esi,%eax
 80525a5:	5b                   	pop    %ebx
 80525a6:	5e                   	pop    %esi
 80525a7:	5f                   	pop    %edi
 80525a8:	5d                   	pop    %ebp
 80525a9:	c3                   	ret    
 80527c7:	8b 46 04             	mov    0x4(%esi),%eax
 80527ca:	0f b6 00             	movzbl (%eax),%eax
 80527cd:	8d 65 f4             	lea    -0xc(%ebp),%esp
 80527d0:	5b                   	pop    %ebx
 80527d1:	5e                   	pop    %esi
 80527d2:	5f                   	pop    %edi
 80527d3:	5d                   	pop    %ebp
 80527d4:	c3                   	ret    
 80527d5:	8d 76 00             	lea    0x0(%esi),%esi
 80527d8:	0f b6 02             	movzbl (%edx),%eax
 80527db:	8d 65 f4             	lea    -0xc(%ebp),%esp
 80527de:	5b                   	pop    %ebx
 80527df:	5e                   	pop    %esi
 80527e0:	5f                   	pop    %edi
 80527e1:	5d                   	pop    %ebp
 80527e2:	c3                   	ret    
 8052807:	0f 45 d1             	cmovne %ecx,%edx
 805280a:	89 16                	mov    %edx,(%esi)
 805280c:	8d 65 f4             	lea    -0xc(%ebp),%esp
 805280f:	5b                   	pop    %ebx
 8052810:	5e                   	pop    %esi
 8052811:	5f                   	pop    %edi
 8052812:	5d                   	pop    %ebp
 8052813:	c3                   	ret    
 805296a:	c7 46 1c 00 00 00 00 	movl   $0x0,0x1c(%esi)
 8052971:	58                   	pop    %eax
 8052972:	ff 76 38             	pushl  0x38(%esi)
 8052975:	e8 e6 97 01 00       	call   806c160 <__close_nocancel>
 805297a:	83 c4 14             	add    $0x14,%esp
 805297d:	5b                   	pop    %ebx
 805297e:	5e                   	pop    %esi
 805297f:	c3                   	ret    
 8052a5d:	89 f8                	mov    %edi,%eax
 8052a5f:	0f 85 3a 02 00 00    	jne    8052c9f <mmap_remap_check+0x31f>
 8052a65:	81 c4 9c 00 00 00    	add    $0x9c,%esp
 8052a6b:	5b                   	pop    %ebx
 8052a6c:	5e                   	pop    %esi
 8052a6d:	5f                   	pop    %edi
 8052a6e:	5d                   	pop    %ebp
 8052a6f:	c3                   	ret    
 8052cff:	89 53 50             	mov    %edx,0x50(%ebx)
 8052d02:	89 43 04             	mov    %eax,0x4(%ebx)
 8052d05:	89 43 08             	mov    %eax,0x8(%ebx)
 8052d08:	31 c0                	xor    %eax,%eax
 8052d0a:	5b                   	pop    %ebx
 8052d0b:	5e                   	pop    %esi
 8052d0c:	5f                   	pop    %edi
 8052d0d:	c3                   	ret    
 8052da6:	65 33 05 14 00 00 00 	xor    %gs:0x14,%eax
 8052dad:	0f 85 69 01 00 00    	jne    8052f1c <decide_maybe_mmap+0x1fc>
 8052db3:	81 c4 8c 00 00 00    	add    $0x8c,%esp
 8052db9:	5b                   	pop    %ebx
 8052dba:	5e                   	pop    %esi
 8052dbb:	5f                   	pop    %edi
 8052dbc:	5d                   	pop    %ebp
 8052dbd:	c3                   	ret    
 8053158:	65 33 3d 14 00 00 00 	xor    %gs:0x14,%edi
 805315f:	0f 85 7b 06 00 00    	jne    80537e0 <_IO_new_file_seekoff+0x7e0>
 8053165:	81 c4 ac 00 00 00    	add    $0xac,%esp
 805316b:	5b                   	pop    %ebx
 805316c:	5e                   	pop    %esi
 805316d:	5f                   	pop    %edi
 805316e:	5d                   	pop    %ebp
 805316f:	c3                   	ret    
 80537ff:	ff 74 24 18          	pushl  0x18(%esp)
 8053803:	8b 44 24 18          	mov    0x18(%esp),%eax
 8053807:	ff 70 38             	pushl  0x38(%eax)
 805380a:	6a 03                	push   $0x3
 805380c:	e8 ff 83 01 00       	call   806bc10 <___fxstat64>
 8053811:	83 c4 18             	add    $0x18,%esp
 8053814:	5b                   	pop    %ebx
 8053815:	c3                   	ret    
 80538a7:	89 4d 4c             	mov    %ecx,0x4c(%ebp)
 80538aa:	89 5d 50             	mov    %ebx,0x50(%ebp)
 80538ad:	83 c4 0c             	add    $0xc,%esp
 80538b0:	5b                   	pop    %ebx
 80538b1:	5e                   	pop    %esi
 80538b2:	5f                   	pop    %edi
 80538b3:	5d                   	pop    %ebp
 80538b4:	c3                   	ret    
 805393c:	89 f8                	mov    %edi,%eax
 805393e:	29 c8                	sub    %ecx,%eax
 8053940:	83 c4 1c             	add    $0x1c,%esp
 8053943:	5b                   	pop    %ebx
 8053944:	5e                   	pop    %esi
 8053945:	5f                   	pop    %edi
 8053946:	5d                   	pop    %ebp
 8053947:	c3                   	ret    
 8053b8c:	8d 74 26 00          	lea    0x0(%esi,%eiz,1),%esi
 8053b90:	8b 44 24 38          	mov    0x38(%esp),%eax
 8053b94:	83 c4 1c             	add    $0x1c,%esp
 8053b97:	5b                   	pop    %ebx
 8053b98:	5e                   	pop    %esi
 8053b99:	5f                   	pop    %edi
 8053b9a:	5d                   	pop    %ebp
 8053b9b:	c3                   	ret    
 8053bf1:	8b 44 24 38          	mov    0x38(%esp),%eax
 8053bf5:	83 c4 1c             	add    $0x1c,%esp
 8053bf8:	5b                   	pop    %ebx
 8053bf9:	5e                   	pop    %esi
 8053bfa:	29 e8                	sub    %ebp,%eax
 8053bfc:	5f                   	pop    %edi
 8053bfd:	5d                   	pop    %ebp
 8053bfe:	c3                   	ret    
 8053c84:	0f 45 d3             	cmovne %ebx,%edx
 8053c87:	89 16                	mov    %edx,(%esi)
 8053c89:	83 c4 1c             	add    $0x1c,%esp
 8053c8c:	5b                   	pop    %ebx
 8053c8d:	5e                   	pop    %esi
 8053c8e:	5f                   	pop    %edi
 8053c8f:	5d                   	pop    %ebp
 8053c90:	c3                   	ret    
 8053d60:	83 c4 2c             	add    $0x2c,%esp
 8053d63:	89 da                	mov    %ebx,%edx
 8053d65:	89 c8                	mov    %ecx,%eax
 8053d67:	5b                   	pop    %ebx
 8053d68:	5e                   	pop    %esi
 8053d69:	5f                   	pop    %edi
 8053d6a:	5d                   	pop    %ebp
 8053d6b:	c3                   	ret    
 8053d81:	83 c4 2c             	add    $0x2c,%esp
 8053d84:	89 c8                	mov    %ecx,%eax
 8053d86:	89 da                	mov    %ebx,%edx
 8053d88:	5b                   	pop    %ebx
 8053d89:	5e                   	pop    %esi
 8053d8a:	5f                   	pop    %edi
 8053d8b:	5d                   	pop    %ebp
 8053d8c:	c3                   	ret    
 8053e32:	8b 43 04             	mov    0x4(%ebx),%eax
 8053e35:	3b 43 08             	cmp    0x8(%ebx),%eax
 8053e38:	73 0e                	jae    8053e48 <_IO_file_underflow_mmap+0x28>
 8053e3a:	0f b6 00             	movzbl (%eax),%eax
 8053e3d:	5b                   	pop    %ebx
 8053e3e:	5e                   	pop    %esi
 8053e3f:	5f                   	pop    %edi
 8053e40:	c3                   	ret    
 8053ec3:	ff 74 24 1c          	pushl  0x1c(%esp)
 8053ec7:	51                   	push   %ecx
 8053ec8:	52                   	push   %edx
 8053ec9:	e8 92 7e 01 00       	call   806bd60 <__libc_read>
 8053ece:	83 c4 10             	add    $0x10,%esp
 8053ed1:	83 c4 08             	add    $0x8,%esp
 8053ed4:	5b                   	pop    %ebx
 8053ed5:	c3                   	ret    
 8053ee3:	ff 74 24 1c          	pushl  0x1c(%esp)
 8053ee7:	51                   	push   %ecx
 8053ee8:	52                   	push   %edx
 8053ee9:	e8 12 7f 01 00       	call   806be00 <__read_nocancel>
 8053eee:	83 c4 10             	add    $0x10,%esp
 8053ef1:	83 c4 08             	add    $0x8,%esp
 8053ef4:	5b                   	pop    %ebx
 8053ef5:	c3                   	ret    
 8053f98:	0f 85 e2 00 00 00    	jne    8054080 <_IO_new_file_xsputn+0x180>
 8053f9e:	83 c4 1c             	add    $0x1c,%esp
 8053fa1:	89 d0                	mov    %edx,%eax
 8053fa3:	5b                   	pop    %ebx
 8053fa4:	5e                   	pop    %esi
 8053fa5:	5f                   	pop    %edi
 8053fa6:	5d                   	pop    %ebp
 8053fa7:	c3                   	ret    
 8054029:	83 c4 1c             	add    $0x1c,%esp
 805402c:	5b                   	pop    %ebx
 805402d:	5e                   	pop    %esi
 805402e:	29 fa                	sub    %edi,%edx
 8054030:	89 d0                	mov    %edx,%eax
 8054032:	5f                   	pop    %edi
 8054033:	5d                   	pop    %ebp
 8054034:	c3                   	ret    
 8054111:	c7 46 50 ff ff ff ff 	movl   $0xffffffff,0x50(%esi)
 8054118:	56                   	push   %esi
 8054119:	e8 d2 11 00 00       	call   80552f0 <_IO_link_in>
 805411e:	c7 46 38 ff ff ff ff 	movl   $0xffffffff,0x38(%esi)
 8054125:	83 c4 14             	add    $0x14,%esp
 8054128:	5b                   	pop    %ebx
 8054129:	5e                   	pop    %esi
 805412a:	c3                   	ret    
 8054151:	c7 46 50 ff ff ff ff 	movl   $0xffffffff,0x50(%esi)
 8054158:	56                   	push   %esi
 8054159:	e8 92 11 00 00       	call   80552f0 <_IO_link_in>
 805415e:	c7 46 38 ff ff ff ff 	movl   $0xffffffff,0x38(%esi)
 8054165:	83 c4 14             	add    $0x14,%esp
 8054168:	5b                   	pop    %ebx
 8054169:	5e                   	pop    %esi
 805416a:	c3                   	ret    
 8054228:	83 c4 10             	add    $0x10,%esp
 805422b:	89 f0                	mov    %esi,%eax
 805422d:	83 c4 0c             	add    $0xc,%esp
 8054230:	5b                   	pop    %ebx
 8054231:	5e                   	pop    %esi
 8054232:	5f                   	pop    %edi
 8054233:	5d                   	pop    %ebp
 8054234:	c3                   	ret    
 80542fc:	65 89 37             	mov    %esi,%gs:(%edi)
 80542ff:	83 c4 0c             	add    $0xc,%esp
 8054302:	89 d8                	mov    %ebx,%eax
 8054304:	5b                   	pop    %ebx
 8054305:	5e                   	pop    %esi
 8054306:	5f                   	pop    %edi
 8054307:	5d                   	pop    %ebp
 8054308:	c3                   	ret    
 8054314:	74 e6                	je     80542fc <_IO_new_file_attach+0x7c>
 8054316:	83 c4 0c             	add    $0xc,%esp
 8054319:	31 c0                	xor    %eax,%eax
 805431b:	5b                   	pop    %ebx
 805431c:	5e                   	pop    %esi
 805431d:	5f                   	pop    %edi
 805431e:	5d                   	pop    %ebp
 805431f:	c3                   	ret    
 8054348:	e8 b3 e1 ff ff       	call   8052500 <new_do_write>
 805434d:	39 c3                	cmp    %eax,%ebx
 805434f:	0f 95 c0             	setne  %al
 8054352:	0f b6 c0             	movzbl %al,%eax
 8054355:	f7 d8                	neg    %eax
 8054357:	83 c4 08             	add    $0x8,%esp
 805435a:	5b                   	pop    %ebx
 805435b:	c3                   	ret    
 8054488:	c7 46 50 ff ff ff ff 	movl   $0xffffffff,0x50(%esi)
 805448f:	83 c4 0c             	add    $0xc,%esp
 8054492:	89 f8                	mov    %edi,%eax
 8054494:	5b                   	pop    %ebx
 8054495:	5e                   	pop    %esi
 8054496:	5f                   	pop    %edi
 8054497:	5d                   	pop    %ebp
 8054498:	c3                   	ret    
 805457a:	8b 44 24 1c          	mov    0x1c(%esp),%eax
 805457e:	0f 85 41 04 00 00    	jne    80549c5 <_IO_new_file_fopen+0x4c5>
 8054584:	83 c4 5c             	add    $0x5c,%esp
 8054587:	5b                   	pop    %ebx
 8054588:	5e                   	pop    %esi
 8054589:	5f                   	pop    %edi
 805458a:	5d                   	pop    %ebp
 805458b:	c3                   	ret    
 8054a79:	6a 00                	push   $0x0
 8054a7b:	56                   	push   %esi
 8054a7c:	e8 8f 16 00 00       	call   8056110 <_IO_default_finish>
 8054a81:	83 c4 10             	add    $0x10,%esp
 8054a84:	5b                   	pop    %ebx
 8054a85:	5e                   	pop    %esi
 8054a86:	5f                   	pop    %edi
 8054a87:	c3                   	ret    
 8054b2b:	89 f8                	mov    %edi,%eax
 8054b2d:	0f b6 c0             	movzbl %al,%eax
 8054b30:	83 c4 0c             	add    $0xc,%esp
 8054b33:	5b                   	pop    %ebx
 8054b34:	5e                   	pop    %esi
 8054b35:	5f                   	pop    %edi
 8054b36:	5d                   	pop    %ebp
 8054b37:	c3                   	ret    
 8054ba5:	e8 86 f7 ff ff       	call   8054330 <_IO_new_do_write>
 8054baa:	83 c4 10             	add    $0x10,%esp
 8054bad:	83 c4 0c             	add    $0xc,%esp
 8054bb0:	5b                   	pop    %ebx
 8054bb1:	5e                   	pop    %esi
 8054bb2:	5f                   	pop    %edi
 8054bb3:	5d                   	pop    %ebp
 8054bb4:	c3                   	ret    
 8054d6b:	c7 46 50 ff ff ff ff 	movl   $0xffffffff,0x50(%esi)
 8054d72:	31 c0                	xor    %eax,%eax
 8054d74:	83 c4 1c             	add    $0x1c,%esp
 8054d77:	5b                   	pop    %ebx
 8054d78:	5e                   	pop    %esi
 8054d79:	5f                   	pop    %edi
 8054d7a:	5d                   	pop    %ebp
 8054d7b:	c3                   	ret    
 8054db8:	89 44 24 0c          	mov    %eax,0xc(%esp)
 8054dbc:	e8 df d4 ff ff       	call   80522a0 <_IO_vtable_check>
 8054dc1:	8b 44 24 0c          	mov    0xc(%esp),%eax
 8054dc5:	e9 7e ff ff ff       	jmp    8054d48 <_IO_new_file_sync+0x78>

08054dca <__x86.get_pc_thunk.cx>:
 8054dca:	8b 0c 24             	mov    (%esp),%ecx
 8054dcd:	c3                   	ret    
 8054e57:	75 f7                	jne    8054e50 <save_for_backup+0x80>
 8054e59:	31 c0                	xor    %eax,%eax
 8054e5b:	83 c4 2c             	add    $0x2c,%esp
 8054e5e:	5b                   	pop    %ebx
 8054e5f:	5e                   	pop    %esi
 8054e60:	5f                   	pop    %edi
 8054e61:	5d                   	pop    %ebp
 8054e62:	c3                   	ret    
 805522b:	65 33 05 14 00 00 00 	xor    %gs:0x14,%eax
 8055232:	0f 85 8d 00 00 00    	jne    80552c5 <_IO_un_link.part.2+0x245>
 8055238:	83 c4 3c             	add    $0x3c,%esp
 805523b:	5b                   	pop    %ebx
 805523c:	5e                   	pop    %esi
 805523d:	5f                   	pop    %edi
 805523e:	5d                   	pop    %ebp
 805523f:	c3                   	ret    
 8055487:	65 33 05 14 00 00 00 	xor    %gs:0x14,%eax
 805548e:	75 46                	jne    80554d6 <_IO_link_in+0x1e6>
 8055490:	83 c4 2c             	add    $0x2c,%esp
 8055493:	5b                   	pop    %ebx
 8055494:	5e                   	pop    %esi
 8055495:	5f                   	pop    %edi
 8055496:	5d                   	pop    %ebp
 8055497:	c3                   	ret    
 8055520:	89 48 08             	mov    %ecx,0x8(%eax)
 8055523:	89 50 2c             	mov    %edx,0x2c(%eax)
 8055526:	8b 48 0c             	mov    0xc(%eax),%ecx
 8055529:	8b 50 24             	mov    0x24(%eax),%edx
 805552c:	89 48 24             	mov    %ecx,0x24(%eax)
 805552f:	89 50 0c             	mov    %edx,0xc(%eax)
 8055532:	89 50 04             	mov    %edx,0x4(%eax)
 8055535:	c3                   	ret    
 8055554:	89 48 2c             	mov    %ecx,0x2c(%eax)
 8055557:	8b 48 0c             	mov    0xc(%eax),%ecx
 805555a:	89 50 08             	mov    %edx,0x8(%eax)
 805555d:	89 58 0c             	mov    %ebx,0xc(%eax)
 8055560:	89 48 24             	mov    %ecx,0x24(%eax)
 8055563:	89 50 04             	mov    %edx,0x4(%eax)
 8055566:	5b                   	pop    %ebx
 8055567:	c3                   	ret    
 80555d7:	89 43 18             	mov    %eax,0x18(%ebx)
 80555da:	89 43 10             	mov    %eax,0x10(%ebx)
 80555dd:	89 13                	mov    %edx,(%ebx)
 80555df:	31 c0                	xor    %eax,%eax
 80555e1:	83 c4 04             	add    $0x4,%esp
 80555e4:	5b                   	pop    %ebx
 80555e5:	5e                   	pop    %esi
 80555e6:	c3                   	ret    
 8055648:	e8 93 71 00 00       	call   805c7e0 <__free>
 805564d:	c7 46 24 00 00 00 00 	movl   $0x0,0x24(%esi)
 8055654:	c7 46 2c 00 00 00 00 	movl   $0x0,0x2c(%esi)
 805565b:	c7 46 28 00 00 00 00 	movl   $0x0,0x28(%esi)
 8055662:	83 c4 14             	add    $0x14,%esp
 8055665:	5b                   	pop    %ebx
 8055666:	5e                   	pop    %esi
 8055667:	c3                   	ret    
 8055789:	89 43 04             	mov    %eax,0x4(%ebx)
 805578c:	89 53 24             	mov    %edx,0x24(%ebx)
 805578f:	76 90                	jbe    8055721 <__underflow+0x41>
 8055791:	0f b6 00             	movzbl (%eax),%eax
 8055794:	5b                   	pop    %ebx
 8055795:	5e                   	pop    %esi
 8055796:	5f                   	pop    %edi
 8055797:	c3                   	ret    
 80558ac:	76 42                	jbe    80558f0 <__uflow+0xf0>
 80558ae:	8d 50 01             	lea    0x1(%eax),%edx
 80558b1:	89 53 04             	mov    %edx,0x4(%ebx)
 80558b4:	0f b6 00             	movzbl (%eax),%eax
 80558b7:	5b                   	pop    %ebx
 80558b8:	5e                   	pop    %esi
 80558b9:	5f                   	pop    %edi
 80558ba:	c3                   	ret    
 8055968:	83 ca 01             	or     $0x1,%edx
 805596b:	85 c9                	test   %ecx,%ecx
 805596d:	0f 44 c2             	cmove  %edx,%eax
 8055970:	89 06                	mov    %eax,(%esi)
 8055972:	83 c4 04             	add    $0x4,%esp
 8055975:	5b                   	pop    %ebx
 8055976:	5e                   	pop    %esi
 8055977:	c3                   	ret    
 80559a9:	85 c9                	test   %ecx,%ecx
 80559ab:	74 0b                	je     80559b8 <_IO_doallocbuf+0x28>
 80559ad:	83 c4 0c             	add    $0xc,%esp
 80559b0:	5b                   	pop    %ebx
 80559b1:	5e                   	pop    %esi
 80559b2:	5f                   	pop    %edi
 80559b3:	5d                   	pop    %ebp
 80559b4:	c3                   	ret    
 80559d1:	89 6e 20             	mov    %ebp,0x20(%esi)
 80559d4:	89 06                	mov    %eax,(%esi)
 80559d6:	83 c4 0c             	add    $0xc,%esp
 80559d9:	5b                   	pop    %ebx
 80559da:	5e                   	pop    %esi
 80559db:	5f                   	pop    %edi
 80559dc:	5d                   	pop    %ebp
 80559dd:	c3                   	ret    
 8055a30:	e8 6b c8 ff ff       	call   80522a0 <_IO_vtable_check>
 8055a35:	eb c5                	jmp    80559fc <_IO_doallocbuf+0x6c>
 8055a37:	89 f6                	mov    %esi,%esi
 8055a39:	8d bc 27 00 00 00 00 	lea    0x0(%edi,%eiz,1),%edi

08055a40 <_IO_default_underflow>:
 8055a40:	b8 ff ff ff ff       	mov    $0xffffffff,%eax
 8055a45:	c3                   	ret    
 8055a8e:	8b 43 04             	mov    0x4(%ebx),%eax
 8055a91:	8d 50 01             	lea    0x1(%eax),%edx
 8055a94:	89 53 04             	mov    %edx,0x4(%ebx)
 8055a97:	0f b6 00             	movzbl (%eax),%eax
 8055a9a:	83 c4 04             	add    $0x4,%esp
 8055a9d:	5b                   	pop    %ebx
 8055a9e:	5e                   	pop    %esi
 8055a9f:	c3                   	ret    
 8055b78:	29 7c 24 38          	sub    %edi,0x38(%esp)
 8055b7c:	8b 44 24 38          	mov    0x38(%esp),%eax
 8055b80:	83 c4 1c             	add    $0x1c,%esp
 8055b83:	5b                   	pop    %ebx
 8055b84:	5e                   	pop    %esi
 8055b85:	5f                   	pop    %edi
 8055b86:	5d                   	pop    %ebp
 8055b87:	c3                   	ret    
 8055bb2:	8d b6 00 00 00 00    	lea    0x0(%esi),%esi
 8055bb8:	83 c4 1c             	add    $0x1c,%esp
 8055bbb:	31 c0                	xor    %eax,%eax
 8055bbd:	5b                   	pop    %ebx
 8055bbe:	5e                   	pop    %esi
 8055bbf:	5f                   	pop    %edi
 8055bc0:	5d                   	pop    %ebp
 8055bc1:	c3                   	ret    
 8055c99:	29 6c 24 38          	sub    %ebp,0x38(%esp)
 8055c9d:	8b 44 24 38          	mov    0x38(%esp),%eax
 8055ca1:	83 c4 1c             	add    $0x1c,%esp
 8055ca4:	5b                   	pop    %ebx
 8055ca5:	5e                   	pop    %esi
 8055ca6:	5f                   	pop    %edi
 8055ca7:	5d                   	pop    %ebp
 8055ca8:	c3                   	ret    
 8055d8c:	c7 46 04 00 00 00 00 	movl   $0x0,0x4(%esi)
 8055d93:	c7 46 0c 00 00 00 00 	movl   $0x0,0xc(%esi)
 8055d9a:	83 c4 0c             	add    $0xc,%esp
 8055d9d:	5b                   	pop    %ebx
 8055d9e:	5e                   	pop    %esi
 8055d9f:	5f                   	pop    %edi
 8055da0:	5d                   	pop    %ebp
 8055da1:	c3                   	ret    
 8055e54:	55                   	push   %ebp
 8055e55:	ff 53 24             	call   *0x24(%ebx)
 8055e58:	83 c4 2c             	add    $0x2c,%esp
 8055e5b:	5b                   	pop    %ebx
 8055e5c:	5e                   	pop    %esi
 8055e5d:	5f                   	pop    %edi
 8055e5e:	5d                   	pop    %ebp
 8055e5f:	c3                   	ret    
 8055eb0:	89 7e 20             	mov    %edi,0x20(%esi)
 8055eb3:	89 16                	mov    %edx,(%esi)
 8055eb5:	83 c4 10             	add    $0x10,%esp
 8055eb8:	b8 01 00 00 00       	mov    $0x1,%eax
 8055ebd:	5b                   	pop    %ebx
 8055ebe:	5e                   	pop    %esi
 8055ebf:	5f                   	pop    %edi
 8055ec0:	c3                   	ret    
 8055eda:	8b 44 24 0c          	mov    0xc(%esp),%eax
 8055ede:	eb ca                	jmp    8055eaa <_IO_default_doallocate+0x3a>
 8055ee0:	83 c4 10             	add    $0x10,%esp
 8055ee3:	b8 ff ff ff ff       	mov    $0xffffffff,%eax
 8055ee8:	5b                   	pop    %ebx
 8055ee9:	5e                   	pop    %esi
 8055eea:	5f                   	pop    %edi
 8055eeb:	c3                   	ret    
 8055ffa:	e8 31 ff ff ff       	call   8055f30 <_IO_old_init>
 8055fff:	c7 43 68 ff ff ff ff 	movl   $0xffffffff,0x68(%ebx)
 8056006:	c7 43 58 ff ff ff ff 	movl   $0xffffffff,0x58(%ebx)
 805600d:	c7 43 5c 00 00 00 00 	movl   $0x0,0x5c(%ebx)
 8056014:	58                   	pop    %eax
 8056015:	5a                   	pop    %edx
 8056016:	5b                   	pop    %ebx
 8056017:	c3                   	ret    
 805602a:	e8 01 ff ff ff       	call   8055f30 <_IO_old_init>
 805602f:	c7 43 68 ff ff ff ff 	movl   $0xffffffff,0x68(%ebx)
 8056036:	c7 43 58 ff ff ff ff 	movl   $0xffffffff,0x58(%ebx)
 805603d:	c7 43 5c 00 00 00 00 	movl   $0x0,0x5c(%ebx)
 8056044:	58                   	pop    %eax
 8056045:	5a                   	pop    %edx
 8056046:	5b                   	pop    %ebx
 8056047:	c3                   	ret    
 80560b7:	c7 43 24 00 00 00 00 	movl   $0x0,0x24(%ebx)
 80560be:	c7 43 28 00 00 00 00 	movl   $0x0,0x28(%ebx)
 80560c5:	89 83 b0 00 00 00    	mov    %eax,0xb0(%ebx)
 80560cb:	c7 46 5c 00 00 00 00 	movl   $0x0,0x5c(%esi)
 80560d2:	5b                   	pop    %ebx
 80560d3:	5e                   	pop    %esi
 80560d4:	5f                   	pop    %edi
 80560d5:	c3                   	ret    
 80560d6:	8d 76 00             	lea    0x0(%esi),%esi
 80560d9:	8d bc 27 00 00 00 00 	lea    0x0(%edi,%eiz,1),%edi
 80560e0:	c7 46 58 ff ff ff ff 	movl   $0xffffffff,0x58(%esi)
 80560e7:	c7 46 5c 00 00 00 00 	movl   $0x0,0x5c(%esi)
 80560ee:	5b                   	pop    %ebx
 80560ef:	5e                   	pop    %esi
 80560f0:	5f                   	pop    %edi
 80560f1:	c3                   	ret    
 80560f0:	5f                   	pop    %edi
 80560f1:	c3                   	ret    
 80560f2:	8d b4 26 00 00 00 00 	lea    0x0(%esi,%eiz,1),%esi
 80560f9:	8d bc 27 00 00 00 00 	lea    0x0(%edi,%eiz,1),%edi

08056100 <_IO_default_sync>:
 8056100:	31 c0                	xor    %eax,%eax
 8056102:	c3                   	ret    
 805615d:	c7 46 24 00 00 00 00 	movl   $0x0,0x24(%esi)
 8056164:	83 c4 10             	add    $0x10,%esp
 8056167:	f6 06 80             	testb  $0x80,(%esi)
 805616a:	75 2c                	jne    8056198 <_IO_default_finish+0x88>
 805616c:	83 c4 04             	add    $0x4,%esp
 805616f:	5b                   	pop    %ebx
 8056170:	5e                   	pop    %esi
 8056171:	c3                   	ret    
 805619f:	e9 dc ee ff ff       	jmp    8055080 <_IO_un_link.part.2>
 80561a4:	8d b6 00 00 00 00    	lea    0x0(%esi),%esi
 80561aa:	8d bf 00 00 00 00    	lea    0x0(%edi),%edi

080561b0 <_IO_default_seekoff>:
 80561b0:	b8 ff ff ff ff       	mov    $0xffffffff,%eax
 80561b5:	ba ff ff ff ff       	mov    $0xffffffff,%edx
 80561ba:	c3                   	ret    
 805620d:	83 f8 ff             	cmp    $0xffffffff,%eax
 8056210:	74 03                	je     8056215 <_IO_sputbackc+0x55>
 8056212:	83 23 ef             	andl   $0xffffffef,(%ebx)
 8056215:	83 c4 10             	add    $0x10,%esp
 8056218:	5b                   	pop    %ebx
 8056219:	5e                   	pop    %esi
 805621a:	5f                   	pop    %edi
 805621b:	c3                   	ret    
 805625c:	8d 50 ff             	lea    -0x1(%eax),%edx
 805625f:	89 53 04             	mov    %edx,0x4(%ebx)
 8056262:	0f b6 40 ff          	movzbl -0x1(%eax),%eax
 8056266:	83 23 ef             	andl   $0xffffffef,(%ebx)
 8056269:	83 c4 04             	add    $0x4,%esp
 805626c:	5b                   	pop    %ebx
 805626d:	5e                   	pop    %esi
 805626e:	c3                   	ret    
 8056292:	ff 56 18             	call   *0x18(%esi)
 8056295:	83 c4 10             	add    $0x10,%esp
 8056298:	83 f8 ff             	cmp    $0xffffffff,%eax
 805629b:	75 c9                	jne    8056266 <_IO_sungetc+0x26>
 805629d:	83 c4 04             	add    $0x4,%esp
 80562a0:	5b                   	pop    %ebx
 80562a1:	5e                   	pop    %esi
 80562a2:	c3                   	ret    
 80562d3:	80 3a 0a             	cmpb   $0xa,(%edx)
 80562d6:	74 10                	je     80562e8 <_IO_adjust_column+0x38>
 80562d8:	39 d1                	cmp    %edx,%ecx
 80562da:	75 f4                	jne    80562d0 <_IO_adjust_column+0x20>
 80562dc:	8b 44 24 08          	mov    0x8(%esp),%eax
 80562e0:	01 d8                	add    %ebx,%eax
 80562e2:	5b                   	pop    %ebx
 80562e3:	c3                   	ret    
 80562e0:	01 d8                	add    %ebx,%eax
 80562e2:	5b                   	pop    %ebx
 80562e3:	c3                   	ret    
 80562e4:	8d 74 26 00          	lea    0x0(%esi,%eiz,1),%esi
 80562e8:	29 d0                	sub    %edx,%eax
 80562ea:	83 e8 01             	sub    $0x1,%eax
 80562ed:	5b                   	pop    %ebx
 80562ee:	c3                   	ret    
 805650c:	65 33 3d 14 00 00 00 	xor    %gs:0x14,%edi
 8056513:	75 3d                	jne    8056552 <_IO_flush_all_lockp+0x262>
 8056515:	83 c4 4c             	add    $0x4c,%esp
 8056518:	5b                   	pop    %ebx
 8056519:	5e                   	pop    %esi
 805651a:	5f                   	pop    %edi
 805651b:	5d                   	pop    %ebp
 805651c:	c3                   	ret    
 80567bd:	8b 44 24 10          	mov    0x10(%esp),%eax
 80567c1:	0f 85 94 00 00 00    	jne    805685b <_IO_cleanup+0x2fb>
 80567c7:	83 c4 4c             	add    $0x4c,%esp
 80567ca:	5b                   	pop    %ebx
 80567cb:	5e                   	pop    %esi
 80567cc:	5f                   	pop    %edi
 80567cd:	5d                   	pop    %ebp
 80567ce:	c3                   	ret    
 805685b:	e8 70 77 01 00       	call   806dfd0 <__stack_chk_fail>

08056860 <_IO_flush_all>:
 8056860:	83 ec 18             	sub    $0x18,%esp
 8056863:	6a 01                	push   $0x1
 8056865:	e8 86 fa ff ff       	call   80562f0 <_IO_flush_all_lockp>
 805686a:	83 c4 1c             	add    $0x1c,%esp
 805686d:	c3                   	ret    
 8056a56:	65 33 05 14 00 00 00 	xor    %gs:0x14,%eax
 8056a5d:	75 43                	jne    8056aa2 <_IO_flush_all_linebuffered+0x232>
 8056a5f:	83 c4 3c             	add    $0x3c,%esp
 8056a62:	5b                   	pop    %ebx
 8056a63:	5e                   	pop    %esi
 8056a64:	5f                   	pop    %edi
 8056a65:	5d                   	pop    %ebp
 8056a66:	c3                   	ret    
 8056ad2:	89 46 08             	mov    %eax,0x8(%esi)
 8056ad5:	8b 43 30             	mov    0x30(%ebx),%eax
 8056ad8:	89 06                	mov    %eax,(%esi)
 8056ada:	89 73 30             	mov    %esi,0x30(%ebx)
 8056add:	83 c4 04             	add    $0x4,%esp
 8056ae0:	5b                   	pop    %ebx
 8056ae1:	5e                   	pop    %esi
 8056ae2:	c3                   	ret    
 8056aeb:	89 46 08             	mov    %eax,0x8(%esi)
 8056aee:	8b 43 30             	mov    0x30(%ebx),%eax
 8056af1:	89 06                	mov    %eax,(%esi)
 8056af3:	89 73 30             	mov    %esi,0x30(%ebx)
 8056af6:	83 c4 04             	add    $0x4,%esp
 8056af9:	5b                   	pop    %ebx
 8056afa:	5e                   	pop    %esi
 8056afb:	c3                   	ret    
 8056b32:	75 f4                	jne    8056b28 <_IO_remove_marker+0x18>
 8056b34:	f3 c3                	repz ret 
 8056b36:	8d 76 00             	lea    0x0(%esi),%esi
 8056b39:	8d bc 27 00 00 00 00 	lea    0x0(%edi,%eiz,1),%edi
 8056b40:	8d 50 30             	lea    0x30(%eax),%edx
 8056b43:	8b 01                	mov    (%ecx),%eax
 8056b45:	89 02                	mov    %eax,(%edx)
 8056b47:	c3                   	ret    
 8056b49:	8d b4 26 00 00 00 00 	lea    0x0(%esi,%eiz,1),%esi

08056b50 <_IO_marker_difference>:
 8056b50:	8b 44 24 04          	mov    0x4(%esp),%eax
 8056b54:	8b 54 24 08          	mov    0x8(%esp),%edx
 8056b58:	8b 40 08             	mov    0x8(%eax),%eax
 8056b5b:	2b 42 08             	sub    0x8(%edx),%eax
 8056b5e:	c3                   	ret    
 8056b69:	74 1e                	je     8056b89 <_IO_marker_delta+0x29>
 8056b6b:	f7 00 00 01 00 00    	testl  $0x100,(%eax)
 8056b71:	8b 50 04             	mov    0x4(%eax),%edx
 8056b74:	75 0a                	jne    8056b80 <_IO_marker_delta+0x20>
 8056b76:	2b 50 0c             	sub    0xc(%eax),%edx
 8056b79:	8b 41 08             	mov    0x8(%ecx),%eax
 8056b7c:	29 d0                	sub    %edx,%eax
 8056b7e:	c3                   	ret    
 8056b79:	8b 41 08             	mov    0x8(%ecx),%eax
 8056b7c:	29 d0                	sub    %edx,%eax
 8056b7e:	c3                   	ret    
 8056b7f:	90                   	nop
 8056b80:	2b 50 08             	sub    0x8(%eax),%edx
 8056b83:	8b 41 08             	mov    0x8(%ecx),%eax
 8056b86:	29 d0                	sub    %edx,%eax
 8056b88:	c3                   	ret    
 8056b7e:	c3                   	ret    
 8056b7f:	90                   	nop
 8056b80:	2b 50 08             	sub    0x8(%eax),%edx
 8056b83:	8b 41 08             	mov    0x8(%ecx),%eax
 8056b86:	29 d0                	sub    %edx,%eax
 8056b88:	c3                   	ret    
 8056b89:	b8 ff ff ff ff       	mov    $0xffffffff,%eax
 8056b8e:	c3                   	ret    
 8056bce:	89 50 0c             	mov    %edx,0xc(%eax)
 8056bd1:	89 d1                	mov    %edx,%ecx
 8056bd3:	01 d9                	add    %ebx,%ecx
 8056bd5:	89 48 04             	mov    %ecx,0x4(%eax)
 8056bd8:	31 c0                	xor    %eax,%eax
 8056bda:	5b                   	pop    %ebx
 8056bdb:	5e                   	pop    %esi
 8056bdc:	c3                   	ret    
 8056c7c:	88 47 ff             	mov    %al,-0x1(%edi)
 8056c7f:	0f b6 44 24 34       	movzbl 0x34(%esp),%eax
 8056c84:	83 c4 1c             	add    $0x1c,%esp
 8056c87:	5b                   	pop    %ebx
 8056c88:	5e                   	pop    %esi
 8056c89:	5f                   	pop    %edi
 8056c8a:	5d                   	pop    %ebp
 8056c8b:	c3                   	ret    
 8056d93:	b8 ff ff ff ff       	mov    $0xffffffff,%eax
 8056d98:	e9 e7 fe ff ff       	jmp    8056c84 <_IO_default_pbackfail+0x44>
 8056d9d:	8d 76 00             	lea    0x0(%esi),%esi

08056da0 <_IO_default_seek>:
 8056da0:	b8 ff ff ff ff       	mov    $0xffffffff,%eax
 8056da5:	ba ff ff ff ff       	mov    $0xffffffff,%edx
 8056daa:	c3                   	ret    
 8056da5:	ba ff ff ff ff       	mov    $0xffffffff,%edx
 8056daa:	c3                   	ret    
 8056dab:	90                   	nop
 8056dac:	8d 74 26 00          	lea    0x0(%esi,%eiz,1),%esi

08056db0 <_IO_default_stat>:
 8056db0:	b8 ff ff ff ff       	mov    $0xffffffff,%eax
 8056db5:	c3                   	ret    
 8056db0:	b8 ff ff ff ff       	mov    $0xffffffff,%eax
 8056db5:	c3                   	ret    
 8056db6:	8d 76 00             	lea    0x0(%esi),%esi
 8056db9:	8d bc 27 00 00 00 00 	lea    0x0(%edi,%eiz,1),%edi

08056dc0 <_IO_default_read>:
 8056dc0:	b8 ff ff ff ff       	mov    $0xffffffff,%eax
 8056dc5:	c3                   	ret    
 8056dc0:	b8 ff ff ff ff       	mov    $0xffffffff,%eax
 8056dc5:	c3                   	ret    
 8056dc6:	8d 76 00             	lea    0x0(%esi),%esi
 8056dc9:	8d bc 27 00 00 00 00 	lea    0x0(%edi,%eiz,1),%edi

08056dd0 <_IO_default_write>:
 8056dd0:	31 c0                	xor    %eax,%eax
 8056dd2:	c3                   	ret    
 8056dd0:	31 c0                	xor    %eax,%eax
 8056dd2:	c3                   	ret    
 8056dd3:	8d b6 00 00 00 00    	lea    0x0(%esi),%esi
 8056dd9:	8d bc 27 00 00 00 00 	lea    0x0(%edi,%eiz,1),%edi

08056de0 <_IO_default_showmanyc>:
 8056de0:	b8 ff ff ff ff       	mov    $0xffffffff,%eax
 8056de5:	c3                   	ret    
 8056df9:	8d bc 27 00 00 00 00 	lea    0x0(%edi,%eiz,1),%edi

08056e00 <_IO_iter_begin>:
 8056e00:	e8 23 25 ff ff       	call   8049328 <__x86.get_pc_thunk.ax>
 8056e05:	05 fb 21 08 00       	add    $0x821fb,%eax
 8056e0a:	c7 c0 78 90 0d 08    	mov    $0x80d9078,%eax
 8056e10:	8b 00                	mov    (%eax),%eax
 8056e12:	c3                   	ret    
 8056e10:	8b 00                	mov    (%eax),%eax
 8056e12:	c3                   	ret    
 8056e13:	8d b6 00 00 00 00    	lea    0x0(%esi),%esi
 8056e19:	8d bc 27 00 00 00 00 	lea    0x0(%edi,%eiz,1),%edi

08056e20 <_IO_iter_end>:
 8056e20:	31 c0                	xor    %eax,%eax
 8056e22:	c3                   	ret    
 8056e22:	c3                   	ret    
 8056e23:	8d b6 00 00 00 00    	lea    0x0(%esi),%esi
 8056e29:	8d bc 27 00 00 00 00 	lea    0x0(%edi,%eiz,1),%edi

08056e30 <_IO_iter_next>:
 8056e30:	8b 44 24 04          	mov    0x4(%esp),%eax
 8056e34:	8b 40 34             	mov    0x34(%eax),%eax
 8056e37:	c3                   	ret    
 8056e34:	8b 40 34             	mov    0x34(%eax),%eax
 8056e37:	c3                   	ret    
 8056e38:	90                   	nop
 8056e39:	8d b4 26 00 00 00 00 	lea    0x0(%esi,%eiz,1),%esi

08056e40 <_IO_iter_file>:
 8056e40:	8b 44 24 04          	mov    0x4(%esp),%eax
 8056e44:	c3                   	ret    
 8056e83:	00 
 8056e84:	74 0b                	je     8056e91 <_IO_list_lock+0x41>
 8056e86:	8d 8a 58 18 00 00    	lea    0x1858(%edx),%ecx
 8056e8c:	e8 8f 6f 01 00       	call   806de20 <__lll_lock_wait_private>
 8056e91:	89 9a 60 18 00 00    	mov    %ebx,0x1860(%edx)
 8056e97:	83 82 5c 18 00 00 01 	addl   $0x1,0x185c(%edx)
 8056e9e:	5b                   	pop    %ebx
 8056e9f:	c3                   	ret    
 8056ee5:	05 1b 21 08 00       	add    $0x8211b,%eax
 8056eea:	c7 80 58 18 00 00 00 	movl   $0x0,0x1858(%eax)
 8056ef1:	00 00 00 
 8056ef4:	c7 80 5c 18 00 00 00 	movl   $0x0,0x185c(%eax)
 8056efb:	00 00 00 
 8056efe:	c7 80 60 18 00 00 00 	movl   $0x0,0x1860(%eax)
 8056f05:	00 00 00 
 8056f08:	c3                   	ret    
 8056f35:	74 11                	je     8056f48 <_IO_str_underflow+0x38>
 8056f37:	8b 50 04             	mov    0x4(%eax),%edx
 8056f3a:	39 ca                	cmp    %ecx,%edx
 8056f3c:	73 22                	jae    8056f60 <_IO_str_underflow+0x50>
 8056f3e:	0f b6 02             	movzbl (%edx),%eax
 8056f41:	5b                   	pop    %ebx
 8056f42:	5e                   	pop    %esi
 8056f43:	c3                   	ret    
 8056f93:	0f 95 c0             	setne  %al
 8056f96:	f7 d8                	neg    %eax
 8056f98:	83 c4 1c             	add    $0x1c,%esp
 8056f9b:	5b                   	pop    %ebx
 8056f9c:	5e                   	pop    %esi
 8056f9d:	5f                   	pop    %edi
 8056f9e:	5d                   	pop    %ebp
 8056f9f:	c3                   	ret    
 80570cd:	0f 83 c5 fe ff ff    	jae    8056f98 <_IO_str_overflow+0x28>
 80570d3:	89 6e 08             	mov    %ebp,0x8(%esi)
 80570d6:	83 c4 1c             	add    $0x1c,%esp
 80570d9:	5b                   	pop    %ebx
 80570da:	5e                   	pop    %esi
 80570db:	5f                   	pop    %edi
 80570dc:	5d                   	pop    %ebp
 80570dd:	c3                   	ret    
 8057137:	bf 01 00 00 00       	mov    $0x1,%edi
 805713c:	83 c4 2c             	add    $0x2c,%esp
 805713f:	89 f8                	mov    %edi,%eax
 8057141:	5b                   	pop    %ebx
 8057142:	5e                   	pop    %esi
 8057143:	5f                   	pop    %edi
 8057144:	5d                   	pop    %ebp
 8057145:	c3                   	ret    
 8057150:	83 c4 2c             	add    $0x2c,%esp
 8057153:	31 ff                	xor    %edi,%edi
 8057155:	5b                   	pop    %ebx
 8057156:	89 f8                	mov    %edi,%eax
 8057158:	5e                   	pop    %esi
 8057159:	5f                   	pop    %edi
 805715a:	5d                   	pop    %ebp
 805715b:	c3                   	ret    
 805742e:	83 c4 2c             	add    $0x2c,%esp
 8057431:	89 f0                	mov    %esi,%eax
 8057433:	89 fa                	mov    %edi,%edx
 8057435:	5b                   	pop    %ebx
 8057436:	5e                   	pop    %esi
 8057437:	5f                   	pop    %edi
 8057438:	5d                   	pop    %ebp
 8057439:	c3                   	ret    
 805759d:	89 fa                	mov    %edi,%edx
 805759f:	89 6b 14             	mov    %ebp,0x14(%ebx)
 80575a2:	83 c4 2c             	add    $0x2c,%esp
 80575a5:	5b                   	pop    %ebx
 80575a6:	5e                   	pop    %esi
 80575a7:	5f                   	pop    %edi
 80575a8:	5d                   	pop    %ebp
 80575a9:	c3                   	ret    
 8057671:	83 ec 08             	sub    $0x8,%esp
 8057674:	52                   	push   %edx
 8057675:	50                   	push   %eax
 8057676:	e8 c5 f5 ff ff       	call   8056c40 <_IO_default_pbackfail>
 805767b:	83 c4 10             	add    $0x10,%esp
 805767e:	83 c4 08             	add    $0x8,%esp
 8057681:	5b                   	pop    %ebx
 8057682:	c3                   	ret    
 80576b3:	c7 46 1c 00 00 00 00 	movl   $0x0,0x1c(%esi)
 80576ba:	6a 00                	push   $0x0
 80576bc:	56                   	push   %esi
 80576bd:	e8 4e ea ff ff       	call   8056110 <_IO_default_finish>
 80576c2:	83 c4 14             	add    $0x14,%esp
 80576c5:	5b                   	pop    %ebx
 80576c6:	5e                   	pop    %esi
 80576c7:	c3                   	ret    
 805773d:	c7 86 98 00 00 00 00 	movl   $0x0,0x98(%esi)
 8057744:	00 00 00 
 8057747:	83 c4 0c             	add    $0xc,%esp
 805774a:	5b                   	pop    %ebx
 805774b:	5e                   	pop    %esi
 805774c:	5f                   	pop    %edi
 805774d:	5d                   	pop    %ebp
 805774e:	c3                   	ret    
 80577a8:	50                   	push   %eax
 80577a9:	ff 74 24 1c          	pushl  0x1c(%esp)
 80577ad:	53                   	push   %ebx
 80577ae:	e8 2d ff ff ff       	call   80576e0 <_IO_str_init_static_internal>
 80577b3:	83 0b 08             	orl    $0x8,(%ebx)
 80577b6:	83 c4 18             	add    $0x18,%esp
 80577b9:	5b                   	pop    %ebx
 80577ba:	c3                   	ret    

080577c0 <_IO_str_count>:
 80577c0:	8b 54 24 04          	mov    0x4(%esp),%edx
 80577c4:	8b 42 14             	mov    0x14(%edx),%eax
 80577c7:	39 42 08             	cmp    %eax,0x8(%edx)
 80577ca:	0f 43 42 08          	cmovae 0x8(%edx),%eax
 80577ce:	2b 42 0c             	sub    0xc(%edx),%eax
 80577d1:	c3                   	ret    
 8057810:	8b 54 24 04          	mov    0x4(%esp),%edx
 8057814:	e8 0f 1b ff ff       	call   8049328 <__x86.get_pc_thunk.ax>
 8057819:	05 e7 17 08 00       	add    $0x817e7,%eax
 805781e:	8b 12                	mov    (%edx),%edx
 8057820:	c7 80 e0 04 00 00 01 	movl   $0x1,0x4e0(%eax)
 8057827:	00 00 00 
 805782a:	89 90 d8 04 00 00    	mov    %edx,0x4d8(%eax)
 8057830:	c3                   	ret    
 8057840:	8b 54 24 04          	mov    0x4(%esp),%edx
 8057844:	e8 df 1a ff ff       	call   8049328 <__x86.get_pc_thunk.ax>
 8057849:	05 b7 17 08 00       	add    $0x817b7,%eax
 805784e:	8b 12                	mov    (%edx),%edx
 8057850:	c7 80 e0 04 00 00 01 	movl   $0x1,0x4e0(%eax)
 8057857:	00 00 00 
 805785a:	89 90 c4 04 00 00    	mov    %edx,0x4c4(%eax)
 8057860:	c3                   	ret    

08057870 <_dl_tunable_set_perturb_byte>:
 8057870:	8b 54 24 04          	mov    0x4(%esp),%edx
 8057874:	e8 af 1a ff ff       	call   8049328 <__x86.get_pc_thunk.ax>
 8057879:	05 87 17 08 00       	add    $0x81787,%eax
 805787e:	8b 12                	mov    (%edx),%edx
 8057880:	89 90 b0 18 00 00    	mov    %edx,0x18b0(%eax)
 8057886:	c3                   	ret    
 8057890:	8b 54 24 04          	mov    0x4(%esp),%edx
 8057894:	e8 8f 1a ff ff       	call   8049328 <__x86.get_pc_thunk.ax>
 8057899:	05 67 17 08 00       	add    $0x81767,%eax
 805789e:	8b 12                	mov    (%edx),%edx
 80578a0:	c7 80 e0 04 00 00 01 	movl   $0x1,0x4e0(%eax)
 80578a7:	00 00 00 
 80578aa:	89 90 c0 04 00 00    	mov    %edx,0x4c0(%eax)
 80578b0:	c3                   	ret    

080578c0 <_dl_tunable_set_arena_max>:
 80578c0:	8b 54 24 04          	mov    0x4(%esp),%edx
 80578c4:	e8 5f 1a ff ff       	call   8049328 <__x86.get_pc_thunk.ax>
 80578c9:	05 37 17 08 00       	add    $0x81737,%eax
 80578ce:	8b 12                	mov    (%edx),%edx
 80578d0:	89 90 d0 04 00 00    	mov    %edx,0x4d0(%eax)
 80578d6:	c3                   	ret    

080578e0 <_dl_tunable_set_arena_test>:
 80578e0:	8b 54 24 04          	mov    0x4(%esp),%edx
 80578e4:	e8 3f 1a ff ff       	call   8049328 <__x86.get_pc_thunk.ax>
 80578e9:	05 17 17 08 00       	add    $0x81717,%eax
 80578ee:	8b 12                	mov    (%edx),%edx
 80578f0:	89 90 cc 04 00 00    	mov    %edx,0x4cc(%eax)
 80578f6:	c3                   	ret    

08057960 <_dl_tunable_set_tcache_unsorted_limit>:
 8057960:	8b 54 24 04          	mov    0x4(%esp),%edx
 8057964:	e8 bf 19 ff ff       	call   8049328 <__x86.get_pc_thunk.ax>
 8057969:	05 97 16 08 00       	add    $0x81697,%eax
 805796e:	8b 12                	mov    (%edx),%edx
 8057970:	89 90 fc 04 00 00    	mov    %edx,0x4fc(%eax)
 8057976:	c3                   	ret    
 8057a00:	89 f3                	mov    %esi,%ebx
 8057a02:	88 1c 10             	mov    %bl,(%eax,%edx,1)
 8057a05:	83 c4 08             	add    $0x8,%esp
 8057a08:	5b                   	pop    %ebx
 8057a09:	5e                   	pop    %esi
 8057a0a:	5f                   	pop    %edi
 8057a0b:	5d                   	pop    %ebp
 8057a0c:	c3                   	ret    
 8057b04:	89 30                	mov    %esi,(%eax)
 8057b06:	83 c4 10             	add    $0x10,%esp
 8057b09:	89 c8                	mov    %ecx,%eax
 8057b0b:	5b                   	pop    %ebx
 8057b0c:	5e                   	pop    %esi
 8057b0d:	5f                   	pop    %edi
 8057b0e:	5d                   	pop    %ebp
 8057b0f:	c3                   	ret    
 8057b38:	31 c9                	xor    %ecx,%ecx
 8057b3a:	83 c4 10             	add    $0x10,%esp
 8057b3d:	89 c8                	mov    %ecx,%eax
 8057b3f:	5b                   	pop    %ebx
 8057b40:	5e                   	pop    %esi
 8057b41:	5f                   	pop    %edi
 8057b42:	5d                   	pop    %ebp
 8057b43:	c3                   	ret    
 8057d13:	83 e0 f8             	and    $0xfffffff8,%eax
 8057d16:	89 47 24             	mov    %eax,0x24(%edi)
 8057d19:	83 c4 14             	add    $0x14,%esp
 8057d1c:	5b                   	pop    %ebx
 8057d1d:	5e                   	pop    %esi
 8057d1e:	5f                   	pop    %edi
 8057d1f:	5d                   	pop    %ebp
 8057d20:	c3                   	ret    
 8057db3:	8b 90 50 04 00 00    	mov    0x450(%eax),%edx
 8057db9:	85 d2                	test   %edx,%edx
 8057dbb:	74 13                	je     8057dd0 <detach_arena+0x30>
 8057dbd:	83 ea 01             	sub    $0x1,%edx
 8057dc0:	89 90 50 04 00 00    	mov    %edx,0x450(%eax)
 8057dc6:	83 c4 08             	add    $0x8,%esp
 8057dc9:	5b                   	pop    %ebx
 8057dca:	c3                   	ret    
 8057ea6:	8d 0e                	lea    (%esi),%ecx
 8057ea8:	e8 73 5f 01 00       	call   806de20 <__lll_lock_wait_private>
 8057ead:	65 89 37             	mov    %esi,%gs:(%edi)
 8057eb0:	89 f0                	mov    %esi,%eax
 8057eb2:	5b                   	pop    %ebx
 8057eb3:	5e                   	pop    %esi
 8057eb4:	5f                   	pop    %edi
 8057eb5:	c3                   	ret    
 8057f3e:	8b 88 74 09 00 00    	mov    0x974(%eax),%ecx
 8057f44:	03 88 ec 04 00 00    	add    0x4ec(%eax),%ecx
 8057f4a:	01 da                	add    %ebx,%edx
 8057f4c:	39 ca                	cmp    %ecx,%edx
 8057f4e:	75 0a                	jne    8057f5a <top_check+0x5a>
 8057f50:	83 c4 08             	add    $0x8,%esp
 8057f53:	5b                   	pop    %ebx
 8057f54:	c3                   	ret    
 80580ec:	39 44 24 28          	cmp    %eax,0x28(%esp)
 80580f0:	0f 85 ae fe ff ff    	jne    8057fa4 <malloc_consolidate+0x34>
 80580f6:	83 c4 3c             	add    $0x3c,%esp
 80580f9:	5b                   	pop    %ebx
 80580fa:	5e                   	pop    %esi
 80580fb:	5f                   	pop    %edi
 80580fc:	5d                   	pop    %ebp
 80580fd:	c3                   	ret    
 80582c4:	89 7e 0c             	mov    %edi,0xc(%esi)
 80582c7:	83 c4 1c             	add    $0x1c,%esp
 80582ca:	89 f0                	mov    %esi,%eax
 80582cc:	5b                   	pop    %ebx
 80582cd:	5e                   	pop    %esi
 80582ce:	5f                   	pop    %edi
 80582cf:	5d                   	pop    %ebp
 80582d0:	c3                   	ret    
 8058438:	83 ec 08             	sub    $0x8,%esp
 805843b:	52                   	push   %edx
 805843c:	50                   	push   %eax
 805843d:	e8 be 47 01 00       	call   806cc00 <__munmap>
 8058442:	83 c4 14             	add    $0x14,%esp
 8058445:	5b                   	pop    %ebx
 8058446:	5e                   	pop    %esi
 8058447:	c3                   	ret    
 8058533:	75 ef                	jne    8058524 <mremap_chunk+0xa4>
 8058535:	83 c4 1c             	add    $0x1c,%esp
 8058538:	89 d0                	mov    %edx,%eax
 805853a:	5b                   	pop    %ebx
 805853b:	5e                   	pop    %esi
 805853c:	5f                   	pop    %edi
 805853d:	5d                   	pop    %ebp
 805853e:	c3                   	ret    
 8058560:	83 c4 1c             	add    $0x1c,%esp
 8058563:	89 c2                	mov    %eax,%edx
 8058565:	5b                   	pop    %ebx
 8058566:	89 d0                	mov    %edx,%eax
 8058568:	5e                   	pop    %esi
 8058569:	5f                   	pop    %edi
 805856a:	5d                   	pop    %ebp
 805856b:	c3                   	ret    
 8058723:	00 00 00 
 8058726:	8b 44 24 0c          	mov    0xc(%esp),%eax
 805872a:	65 33 05 14 00 00 00 	xor    %gs:0x14,%eax
 8058731:	75 06                	jne    8058739 <ptmalloc_init.part.0+0x159>
 8058733:	83 c4 14             	add    $0x14,%esp
 8058736:	5b                   	pop    %ebx
 8058737:	5e                   	pop    %esi
 8058738:	c3                   	ret    
 805886f:	89 83 90 18 00 00    	mov    %eax,0x1890(%ebx)
 8058875:	83 c4 1c             	add    $0x1c,%esp
 8058878:	89 f0                	mov    %esi,%eax
 805887a:	5b                   	pop    %ebx
 805887b:	5e                   	pop    %esi
 805887c:	5f                   	pop    %edi
 805887d:	5d                   	pop    %ebp
 805887e:	c3                   	ret    
 8058b8a:	74 0b                	je     8058b97 <arena_get_retry+0x57>
 8058b8c:	8d 8b 20 05 00 00    	lea    0x520(%ebx),%ecx
 8058b92:	e8 89 52 01 00       	call   806de20 <__lll_lock_wait_private>
 8058b97:	89 f0                	mov    %esi,%eax
 8058b99:	5b                   	pop    %ebx
 8058b9a:	5e                   	pop    %esi
 8058b9b:	5f                   	pop    %edi
 8058b9c:	c3                   	ret    
 8058bf0:	85 c9                	test   %ecx,%ecx
 8058bf2:	74 56                	je     8058c4a <_dl_tunable_set_mallopt_check+0x6a>
 8058bf4:	8b 90 98 18 00 00    	mov    0x1898(%eax),%edx
 8058bfa:	85 d2                	test   %edx,%edx
 8058bfc:	74 12                	je     8058c10 <_dl_tunable_set_mallopt_check+0x30>
 8058bfe:	c7 80 98 18 00 00 00 	movl   $0x0,0x1898(%eax)
 8058c05:	00 00 00 
 8058c08:	c3                   	ret    
 8059048:	65 33 1d 14 00 00 00 	xor    %gs:0x14,%ebx
 805904f:	0f 85 bc 00 00 00    	jne    8059111 <__malloc_info.part.12+0x4c1>
 8059055:	81 c4 2c 09 00 00    	add    $0x92c,%esp
 805905b:	5b                   	pop    %ebx
 805905c:	5e                   	pop    %esi
 805905d:	5f                   	pop    %edi
 805905e:	5d                   	pop    %ebp
 805905f:	c3                   	ret    
 80591b7:	89 58 04             	mov    %ebx,0x4(%eax)
 80591ba:	83 c4 0c             	add    $0xc,%esp
 80591bd:	b8 01 00 00 00       	mov    $0x1,%eax
 80591c2:	5b                   	pop    %ebx
 80591c3:	5e                   	pop    %esi
 80591c4:	5f                   	pop    %edi
 80591c5:	5d                   	pop    %ebp
 80591c6:	c3                   	ret    
 80591c9:	8d bc 27 00 00 00 00 	lea    0x0(%edi,%eiz,1),%edi
 80591d0:	83 c4 0c             	add    $0xc,%esp
 80591d3:	31 c0                	xor    %eax,%eax
 80591d5:	5b                   	pop    %ebx
 80591d6:	5e                   	pop    %esi
 80591d7:	5f                   	pop    %edi
 80591d8:	5d                   	pop    %ebp
 80591d9:	c3                   	ret    
 80592ac:	65 33 05 14 00 00 00 	xor    %gs:0x14,%eax
 80592b3:	0f 85 cb 08 00 00    	jne    8059b84 <_int_free+0x994>
 80592b9:	83 c4 3c             	add    $0x3c,%esp
 80592bc:	5b                   	pop    %ebx
 80592bd:	5e                   	pop    %esi
 80592be:	5f                   	pop    %edi
 80592bf:	5d                   	pop    %ebp
 80592c0:	c3                   	ret    
 8059e2c:	89 42 04             	mov    %eax,0x4(%edx)
 8059e2f:	83 c4 3c             	add    $0x3c,%esp
 8059e32:	5b                   	pop    %ebx
 8059e33:	89 f8                	mov    %edi,%eax
 8059e35:	5e                   	pop    %esi
 8059e36:	5f                   	pop    %edi
 8059e37:	5d                   	pop    %ebp
 8059e38:	c3                   	ret    
 8059f2b:	75 ef                	jne    8059f1c <sysmalloc+0x25c>
 8059f2d:	83 c4 3c             	add    $0x3c,%esp
 8059f30:	89 f8                	mov    %edi,%eax
 8059f32:	5b                   	pop    %ebx
 8059f33:	5e                   	pop    %esi
 8059f34:	5f                   	pop    %edi
 8059f35:	5d                   	pop    %ebp
 8059f36:	c3                   	ret    
 805a955:	0f 85 62 01 00 00    	jne    805aabd <_int_malloc+0x5ad>
 805a95b:	83 c4 7c             	add    $0x7c,%esp
 805a95e:	89 f0                	mov    %esi,%eax
 805a960:	5b                   	pop    %ebx
 805a961:	5e                   	pop    %esi
 805a962:	5f                   	pop    %edi
 805a963:	5d                   	pop    %ebp
 805a964:	c3                   	ret    
 805b521:	8d b4 26 00 00 00 00 	lea    0x0(%esi,%eiz,1),%esi
 805b528:	c7 c0 e0 ff ff ff    	mov    $0xffffffe0,%eax
 805b52e:	65 c7 00 0c 00 00 00 	movl   $0xc,%gs:(%eax)
 805b535:	83 c4 04             	add    $0x4,%esp
 805b538:	31 c0                	xor    %eax,%eax
 805b53a:	5b                   	pop    %ebx
 805b53b:	5e                   	pop    %esi
 805b53c:	c3                   	ret    
 805b5ce:	29 f9                	sub    %edi,%ecx
 805b5d0:	81 c1 40 01 00 00    	add    $0x140,%ecx
 805b5d6:	c1 e9 02             	shr    $0x2,%ecx
 805b5d9:	f3 ab                	rep stos %eax,%es:(%edi)
 805b5db:	83 c4 04             	add    $0x4,%esp
 805b5de:	5b                   	pop    %ebx
 805b5df:	5f                   	pop    %edi
 805b5e0:	c3                   	ret    
 805b7ba:	e8 31 da ff ff       	call   80591f0 <_int_free>
 805b7bf:	83 c4 2c             	add    $0x2c,%esp
 805b7c2:	89 f8                	mov    %edi,%eax
 805b7c4:	5b                   	pop    %ebx
 805b7c5:	5e                   	pop    %esi
 805b7c6:	5f                   	pop    %edi
 805b7c7:	5d                   	pop    %ebp
 805b7c8:	c3                   	ret    
 805b7ec:	65 c7 00 0c 00 00 00 	movl   $0xc,%gs:(%eax)
 805b7f3:	83 c4 2c             	add    $0x2c,%esp
 805b7f6:	89 f8                	mov    %edi,%eax
 805b7f8:	5b                   	pop    %ebx
 805b7f9:	5e                   	pop    %esi
 805b7fa:	5f                   	pop    %edi
 805b7fb:	5d                   	pop    %ebp
 805b7fc:	c3                   	ret    
 805b816:	89 1e                	mov    %ebx,(%esi)
 805b818:	83 c4 2c             	add    $0x2c,%esp
 805b81b:	89 f8                	mov    %edi,%eax
 805b81d:	5b                   	pop    %ebx
 805b81e:	5e                   	pop    %esi
 805b81f:	5f                   	pop    %edi
 805b820:	5d                   	pop    %ebp
 805b821:	c3                   	ret    
 805b924:	8d 74 26 00          	lea    0x0(%esi,%eiz,1),%esi
 805b928:	c7 c0 e0 ff ff ff    	mov    $0xffffffe0,%eax
 805b92e:	65 c7 00 16 00 00 00 	movl   $0x16,%gs:(%eax)
 805b935:	5b                   	pop    %ebx
 805b936:	31 c0                	xor    %eax,%eax
 805b938:	5e                   	pop    %esi
 805b939:	5f                   	pop    %edi
 805b93a:	c3                   	ret    
 805b9ce:	01 
 805b9cf:	74 0b                	je     805b9dc <free_check.part.3+0x7c>
 805b9d1:	8d 83 20 05 00 00    	lea    0x520(%ebx),%eax
 805b9d7:	e8 74 24 01 00       	call   806de50 <__lll_unlock_wake_private>
 805b9dc:	83 c4 04             	add    $0x4,%esp
 805b9df:	5b                   	pop    %ebx
 805b9e0:	5e                   	pop    %esi
 805b9e1:	c3                   	ret    
 805bae2:	8d 7e 08             	lea    0x8(%esi),%edi
 805bae5:	83 c4 2c             	add    $0x2c,%esp
 805bae8:	89 f8                	mov    %edi,%eax
 805baea:	5b                   	pop    %ebx
 805baeb:	5e                   	pop    %esi
 805baec:	5f                   	pop    %edi
 805baed:	5d                   	pop    %ebp
 805baee:	c3                   	ret    
 805bc81:	83 c4 10             	add    $0x10,%esp
 805bc84:	89 f8                	mov    %edi,%eax
 805bc86:	83 c4 2c             	add    $0x2c,%esp
 805bc89:	5b                   	pop    %ebx
 805bc8a:	5e                   	pop    %esi
 805bc8b:	5f                   	pop    %edi
 805bc8c:	5d                   	pop    %ebp
 805bc8d:	c3                   	ret    
 805bede:	65 33 0d 14 00 00 00 	xor    %gs:0x14,%ecx
 805bee5:	0f 85 e3 00 00 00    	jne    805bfce <realloc_check+0x22e>
 805beeb:	83 c4 2c             	add    $0x2c,%esp
 805beee:	5b                   	pop    %ebx
 805beef:	5e                   	pop    %esi
 805bef0:	5f                   	pop    %edi
 805bef1:	5d                   	pop    %ebp
 805bef2:	c3                   	ret    
 805c046:	e8 d5 1d 01 00       	call   806de20 <__lll_lock_wait_private>
 805c04b:	8b 92 48 04 00 00    	mov    0x448(%edx),%edx
 805c051:	39 da                	cmp    %ebx,%edx
 805c053:	75 db                	jne    805c030 <__malloc_fork_lock_parent+0x50>
 805c055:	5b                   	pop    %ebx
 805c056:	5e                   	pop    %esi
 805c057:	5f                   	pop    %edi
 805c058:	c3                   	ret    
 805c0b9:	74 01                	je     805c0bc <__malloc_fork_unlock_parent+0x4c>
 805c0bb:	f0 83 ab a4 18 00 00 	lock subl $0x1,0x18a4(%ebx)
 805c0c2:	01 
 805c0c3:	74 0b                	je     805c0d0 <__malloc_fork_unlock_parent+0x60>
 805c0c5:	8d 83 a4 18 00 00    	lea    0x18a4(%ebx),%eax
 805c0cb:	e8 80 1d 01 00       	call   806de50 <__lll_unlock_wake_private>
 805c0d0:	5b                   	pop    %ebx
 805c0d1:	c3                   	ret    
 805c15d:	84 c0                	test   %al,%al
 805c15f:	75 0e                	jne    805c16f <__malloc_fork_unlock_child+0x8f>
 805c161:	c7 86 a4 18 00 00 00 	movl   $0x0,0x18a4(%esi)
 805c168:	00 00 00 
 805c16b:	5b                   	pop    %ebx
 805c16c:	5e                   	pop    %esi
 805c16d:	5f                   	pop    %edi
 805c16e:	c3                   	ret    
 805c1a4:	89 90 08 05 00 00    	mov    %edx,0x508(%eax)
 805c1aa:	8d 90 20 2a f8 ff    	lea    -0x7d5e0(%eax),%edx
 805c1b0:	89 90 8c 18 00 00    	mov    %edx,0x188c(%eax)
 805c1b6:	8d 90 a0 2d f8 ff    	lea    -0x7d260(%eax),%edx
 805c1bc:	89 90 04 05 00 00    	mov    %edx,0x504(%eax)
 805c1c2:	8d 90 50 28 f8 ff    	lea    -0x7d7b0(%eax),%edx
 805c1c8:	89 90 00 05 00 00    	mov    %edx,0x500(%eax)
 805c1ce:	c3                   	ret    
 805c1bc:	89 90 04 05 00 00    	mov    %edx,0x504(%eax)
 805c1c2:	8d 90 50 28 f8 ff    	lea    -0x7d7b0(%eax),%edx
 805c1c8:	89 90 00 05 00 00    	mov    %edx,0x500(%eax)
 805c1ce:	c3                   	ret    
 805c1cf:	90                   	nop
 805c1d0:	c7 80 98 18 00 00 00 	movl   $0x0,0x1898(%eax)
 805c1d7:	00 00 00 
 805c1da:	c3                   	ret    
 805c328:	80 2c 01 01          	subb   $0x1,(%ecx,%eax,1)
 805c32c:	c7 42 04 00 00 00 00 	movl   $0x0,0x4(%edx)
 805c333:	83 c4 10             	add    $0x10,%esp
 805c336:	89 d0                	mov    %edx,%eax
 805c338:	5b                   	pop    %ebx
 805c339:	5e                   	pop    %esi
 805c33a:	5f                   	pop    %edi
 805c33b:	c3                   	ret    
 805c35b:	e8 d0 b9 ff ff       	call   8057d30 <__malloc_assert>
 805c360:	83 c4 10             	add    $0x10,%esp
 805c363:	31 d2                	xor    %edx,%edx
 805c365:	5b                   	pop    %ebx
 805c366:	89 d0                	mov    %edx,%eax
 805c368:	5e                   	pop    %esi
 805c369:	5f                   	pop    %edi
 805c36a:	c3                   	ret    
 805c37a:	83 c4 10             	add    $0x10,%esp
 805c37d:	89 c2                	mov    %eax,%edx
 805c37f:	83 c4 10             	add    $0x10,%esp
 805c382:	89 d0                	mov    %edx,%eax
 805c384:	5b                   	pop    %ebx
 805c385:	5e                   	pop    %esi
 805c386:	5f                   	pop    %edi
 805c387:	c3                   	ret    
 805c5d8:	65 c7 00 0c 00 00 00 	movl   $0xc,%gs:(%eax)
 805c5df:	83 c4 0c             	add    $0xc,%esp
 805c5e2:	89 d0                	mov    %edx,%eax
 805c5e4:	5b                   	pop    %ebx
 805c5e5:	5e                   	pop    %esi
 805c5e6:	5f                   	pop    %edi
 805c5e7:	5d                   	pop    %ebp
 805c5e8:	c3                   	ret    
 805c5fc:	89 c2                	mov    %eax,%edx
 805c5fe:	83 c4 0c             	add    $0xc,%esp
 805c601:	89 d0                	mov    %edx,%eax
 805c603:	5b                   	pop    %ebx
 805c604:	5e                   	pop    %esi
 805c605:	5f                   	pop    %edi
 805c606:	5d                   	pop    %ebp
 805c607:	c3                   	ret    
 805c6c0:	83 c4 0c             	add    $0xc,%esp
 805c6c3:	31 d2                	xor    %edx,%edx
 805c6c5:	5b                   	pop    %ebx
 805c6c6:	89 d0                	mov    %edx,%eax
 805c6c8:	5e                   	pop    %esi
 805c6c9:	5f                   	pop    %edi
 805c6ca:	5d                   	pop    %ebp
 805c6cb:	c3                   	ret    
 805c6db:	89 c2                	mov    %eax,%edx
 805c6dd:	83 c4 0c             	add    $0xc,%esp
 805c6e0:	89 d0                	mov    %edx,%eax
 805c6e2:	5b                   	pop    %ebx
 805c6e3:	5e                   	pop    %esi
 805c6e4:	5f                   	pop    %edi
 805c6e5:	5d                   	pop    %ebp
 805c6e6:	c3                   	ret    
 805c883:	ff 74 24 24          	pushl  0x24(%esp)
 805c887:	53                   	push   %ebx
 805c888:	ff d0                	call   *%eax
 805c88a:	83 c4 10             	add    $0x10,%esp
 805c88d:	83 c4 14             	add    $0x14,%esp
 805c890:	5b                   	pop    %ebx
 805c891:	5e                   	pop    %esi
 805c892:	c3                   	ret    
 805ca39:	89 44 24 0c          	mov    %eax,0xc(%esp)
 805ca3d:	8b 44 24 0c          	mov    0xc(%esp),%eax
 805ca41:	83 c4 1c             	add    $0x1c,%esp
 805ca44:	5b                   	pop    %ebx
 805ca45:	5e                   	pop    %esi
 805ca46:	5f                   	pop    %edi
 805ca47:	5d                   	pop    %ebp
 805ca48:	c3                   	ret    
 805cabf:	83 c4 10             	add    $0x10,%esp
 805cac2:	8b 44 24 0c          	mov    0xc(%esp),%eax
 805cac6:	83 c4 1c             	add    $0x1c,%esp
 805cac9:	5b                   	pop    %ebx
 805caca:	5e                   	pop    %esi
 805cacb:	5f                   	pop    %edi
 805cacc:	5d                   	pop    %ebp
 805cacd:	c3                   	ret    
 805cd56:	65 c7 00 0c 00 00 00 	movl   $0xc,%gs:(%eax)
 805cd5d:	83 c4 0c             	add    $0xc,%esp
 805cd60:	31 c0                	xor    %eax,%eax
 805cd62:	5b                   	pop    %ebx
 805cd63:	5e                   	pop    %esi
 805cd64:	5f                   	pop    %edi
 805cd65:	5d                   	pop    %ebp
 805cd66:	c3                   	ret    
 805ce29:	0f 85 71 02 00 00    	jne    805d0a0 <__calloc+0x330>
 805ce2f:	83 c4 1c             	add    $0x1c,%esp
 805ce32:	89 f0                	mov    %esi,%eax
 805ce34:	5b                   	pop    %ebx
 805ce35:	5e                   	pop    %esi
 805ce36:	5f                   	pop    %edi
 805ce37:	5d                   	pop    %ebp
 805ce38:	c3                   	ret    
 805cf6c:	83 c4 10             	add    $0x10,%esp
 805cf6f:	89 f0                	mov    %esi,%eax
 805cf71:	83 c4 1c             	add    $0x1c,%esp
 805cf74:	5b                   	pop    %ebx
 805cf75:	5e                   	pop    %esi
 805cf76:	5f                   	pop    %edi
 805cf77:	5d                   	pop    %ebp
 805cf78:	c3                   	ret    
 805d20d:	0f 85 34 ff ff ff    	jne    805d147 <__malloc_trim+0x47>
 805d213:	8b 44 24 28          	mov    0x28(%esp),%eax
 805d217:	83 c4 3c             	add    $0x3c,%esp
 805d21a:	5b                   	pop    %ebx
 805d21b:	5e                   	pop    %esi
 805d21c:	5f                   	pop    %edi
 805d21d:	5d                   	pop    %ebp
 805d21e:	c3                   	ret    
 805d3e0:	f6 44 16 04 01       	testb  $0x1,0x4(%esi,%edx,1)
 805d3e5:	0f 45 c3             	cmovne %ebx,%eax
 805d3e8:	83 c4 1c             	add    $0x1c,%esp
 805d3eb:	5b                   	pop    %ebx
 805d3ec:	5e                   	pop    %esi
 805d3ed:	5f                   	pop    %edi
 805d3ee:	5d                   	pop    %ebp
 805d3ef:	c3                   	ret    
 805d3ef:	c3                   	ret    
 805d3f0:	83 c4 1c             	add    $0x1c,%esp
 805d3f3:	8d 42 f8             	lea    -0x8(%edx),%eax
 805d3f6:	5b                   	pop    %ebx
 805d3f7:	5e                   	pop    %esi
 805d3f8:	5f                   	pop    %edi
 805d3f9:	5d                   	pop    %ebp
 805d3fa:	c3                   	ret    
 805d3fc:	8d 74 26 00          	lea    0x0(%esi,%eiz,1),%esi
 805d400:	83 c4 1c             	add    $0x1c,%esp
 805d403:	31 c0                	xor    %eax,%eax
 805d405:	5b                   	pop    %ebx
 805d406:	5e                   	pop    %esi
 805d407:	5f                   	pop    %edi
 805d408:	5d                   	pop    %ebp
 805d409:	c3                   	ret    
 805d751:	65 33 05 14 00 00 00 	xor    %gs:0x14,%eax
 805d758:	75 18                	jne    805d772 <__malloc_stats+0x1e2>
 805d75a:	83 c4 6c             	add    $0x6c,%esp
 805d75d:	5b                   	pop    %ebx
 805d75e:	5e                   	pop    %esi
 805d75f:	5f                   	pop    %edi
 805d760:	5d                   	pop    %ebp
 805d761:	c3                   	ret    
 805d827:	74 0b                	je     805d834 <.L1464+0x34>
 805d829:	8d 83 20 05 00 00    	lea    0x520(%ebx),%eax
 805d82f:	e8 1c 06 01 00       	call   806de50 <__lll_unlock_wake_private>
 805d834:	5b                   	pop    %ebx
 805d835:	89 d0                	mov    %edx,%eax
 805d837:	5e                   	pop    %esi
 805d838:	5f                   	pop    %edi
 805d839:	c3                   	ret    
 805d951:	85 c0                	test   %eax,%eax
 805d953:	74 23                	je     805d978 <__posix_memalign+0x58>
 805d955:	8b 54 24 10          	mov    0x10(%esp),%edx
 805d959:	89 02                	mov    %eax,(%edx)
 805d95b:	31 c0                	xor    %eax,%eax
 805d95d:	83 c4 08             	add    $0x8,%esp
 805d960:	5b                   	pop    %ebx
 805d961:	c3                   	ret    
 805d95d:	83 c4 08             	add    $0x8,%esp
 805d960:	5b                   	pop    %ebx
 805d961:	c3                   	ret    
 805d962:	8d b6 00 00 00 00    	lea    0x0(%esi),%esi
 805d968:	83 c4 08             	add    $0x8,%esp
 805d96b:	b8 16 00 00 00       	mov    $0x16,%eax
 805d970:	5b                   	pop    %ebx
 805d971:	c3                   	ret    
 805d9bc:	5e                   	pop    %esi
 805d9bd:	e9 8e b2 ff ff       	jmp    8058c50 <__malloc_info.part.12>
 805d9c2:	8d b6 00 00 00 00    	lea    0x0(%esi),%esi
 805d9c8:	83 c4 04             	add    $0x4,%esp
 805d9cb:	b8 16 00 00 00       	mov    $0x16,%eax
 805d9d0:	5b                   	pop    %ebx
 805d9d1:	5e                   	pop    %esi
 805d9d2:	c3                   	ret    
 805d9ef:	ff 74 24 1c          	pushl  0x1c(%esp)
 805d9f3:	e8 e8 ef 00 00       	call   806c9e0 <__sbrk>
 805d9f8:	ba 00 00 00 00       	mov    $0x0,%edx
 805d9fd:	83 f8 ff             	cmp    $0xffffffff,%eax
 805da00:	0f 44 c2             	cmove  %edx,%eax
 805da03:	83 c4 18             	add    $0x18,%esp
 805da06:	5b                   	pop    %ebx
 805da07:	c3                   	ret    
 805dadb:	53                   	push   %ebx
 805dadc:	c7 c3 00 a9 0d 08    	mov    $0x80da900,%ebx
 805dae2:	8d 8a 00 0d f9 ff    	lea    -0x6f300(%edx),%ecx
 805dae8:	8d 82 00 16 f9 ff    	lea    -0x6ea00(%edx),%eax
 805daee:	f6 43 12 10          	testb  $0x10,0x12(%ebx)
 805daf2:	5b                   	pop    %ebx
 805daf3:	0f 45 c1             	cmovne %ecx,%eax
 805daf6:	c3                   	ret    
 805db31:	57                   	push   %edi
 805db32:	50                   	push   %eax
 805db33:	e8 d8 c6 00 00       	call   806a210 <memcpy>
 805db38:	83 c4 10             	add    $0x10,%esp
 805db3b:	5b                   	pop    %ebx
 805db3c:	5e                   	pop    %esi
 805db3d:	5f                   	pop    %edi
 805db3e:	c3                   	ret    
 805df97:	65 33 3d 14 00 00 00 	xor    %gs:0x14,%edi
 805df9e:	75 6c                	jne    805e00c <two_way_long_needle+0x4bc>
 805dfa0:	81 c4 4c 04 00 00    	add    $0x44c,%esp
 805dfa6:	5b                   	pop    %ebx
 805dfa7:	5e                   	pop    %esi
 805dfa8:	5f                   	pop    %edi
 805dfa9:	5d                   	pop    %ebp
 805dfaa:	c3                   	ret    
 805e0ce:	89 f0                	mov    %esi,%eax
 805e0d0:	0f 85 4a 02 00 00    	jne    805e320 <strstr+0x300>
 805e0d6:	81 c4 3c 01 00 00    	add    $0x13c,%esp
 805e0dc:	5b                   	pop    %ebx
 805e0dd:	5e                   	pop    %esi
 805e0de:	5f                   	pop    %edi
 805e0df:	5d                   	pop    %ebp
 805e0e0:	c3                   	ret    
 805e5c1:	c1 e9 10             	shr    $0x10,%ecx
 805e5c4:	84 c9                	test   %cl,%cl
 805e5c6:	74 05                	je     805e5cd <__strchrnul+0x15d>
 805e5c8:	38 d1                	cmp    %dl,%cl
 805e5ca:	74 01                	je     805e5cd <__strchrnul+0x15d>
 805e5cc:	40                   	inc    %eax
 805e5cd:	5f                   	pop    %edi
 805e5ce:	c3                   	ret    
 805e616:	89 42 ec             	mov    %eax,-0x14(%edx)
 805e619:	89 42 f0             	mov    %eax,-0x10(%edx)
 805e61c:	89 42 f4             	mov    %eax,-0xc(%edx)
 805e61f:	89 42 f8             	mov    %eax,-0x8(%edx)
 805e622:	89 42 fc             	mov    %eax,-0x4(%edx)
 805e625:	8b 44 24 08          	mov    0x8(%esp),%eax
 805e629:	5b                   	pop    %ebx
 805e62a:	c3                   	ret    
 805e639:	89 42 ef             	mov    %eax,-0x11(%edx)
 805e63c:	89 42 f3             	mov    %eax,-0xd(%edx)
 805e63f:	89 42 f7             	mov    %eax,-0x9(%edx)
 805e642:	89 42 fb             	mov    %eax,-0x5(%edx)
 805e645:	88 42 ff             	mov    %al,-0x1(%edx)
 805e648:	8b 44 24 08          	mov    0x8(%esp),%eax
 805e64c:	5b                   	pop    %ebx
 805e64d:	c3                   	ret    
 805e659:	89 42 ee             	mov    %eax,-0x12(%edx)
 805e65c:	89 42 f2             	mov    %eax,-0xe(%edx)
 805e65f:	89 42 f6             	mov    %eax,-0xa(%edx)
 805e662:	89 42 fa             	mov    %eax,-0x6(%edx)
 805e665:	66 89 42 fe          	mov    %ax,-0x2(%edx)
 805e669:	8b 44 24 08          	mov    0x8(%esp),%eax
 805e66d:	5b                   	pop    %ebx
 805e66e:	c3                   	ret    
 805e67c:	89 42 f1             	mov    %eax,-0xf(%edx)
 805e67f:	89 42 f5             	mov    %eax,-0xb(%edx)
 805e682:	89 42 f9             	mov    %eax,-0x7(%edx)
 805e685:	66 89 42 fd          	mov    %ax,-0x3(%edx)
 805e689:	88 42 ff             	mov    %al,-0x1(%edx)
 805e68c:	8b 44 24 08          	mov    0x8(%esp),%eax
 805e690:	5b                   	pop    %ebx
 805e691:	c3                   	ret    
 805e8ca:	66 0f 7f 42 b0       	movdqa %xmm0,-0x50(%edx)
 805e8cf:	66 0f 7f 42 c0       	movdqa %xmm0,-0x40(%edx)
 805e8d4:	66 0f 7f 42 d0       	movdqa %xmm0,-0x30(%edx)
 805e8d9:	66 0f 7f 42 e0       	movdqa %xmm0,-0x20(%edx)
 805e8de:	66 0f 7f 42 f0       	movdqa %xmm0,-0x10(%edx)
 805e8e3:	8b 44 24 08          	mov    0x8(%esp),%eax
 805e8e7:	5b                   	pop    %ebx
 805e8e8:	c3                   	ret    
 805e8ff:	66 0f 7f 42 bf       	movdqa %xmm0,-0x41(%edx)
 805e904:	66 0f 7f 42 cf       	movdqa %xmm0,-0x31(%edx)
 805e909:	66 0f 7f 42 df       	movdqa %xmm0,-0x21(%edx)
 805e90e:	66 0f 7f 42 ef       	movdqa %xmm0,-0x11(%edx)
 805e913:	88 42 ff             	mov    %al,-0x1(%edx)
 805e916:	8b 44 24 08          	mov    0x8(%esp),%eax
 805e91a:	5b                   	pop    %ebx
 805e91b:	c3                   	ret    
 805e92f:	66 0f 7f 42 be       	movdqa %xmm0,-0x42(%edx)
 805e934:	66 0f 7f 42 ce       	movdqa %xmm0,-0x32(%edx)
 805e939:	66 0f 7f 42 de       	movdqa %xmm0,-0x22(%edx)
 805e93e:	66 0f 7f 42 ee       	movdqa %xmm0,-0x12(%edx)
 805e943:	66 89 42 fe          	mov    %ax,-0x2(%edx)
 805e947:	8b 44 24 08          	mov    0x8(%esp),%eax
 805e94b:	5b                   	pop    %ebx
 805e94c:	c3                   	ret    
 805e964:	66 0f 7f 42 cd       	movdqa %xmm0,-0x33(%edx)
 805e969:	66 0f 7f 42 dd       	movdqa %xmm0,-0x23(%edx)
 805e96e:	66 0f 7f 42 ed       	movdqa %xmm0,-0x13(%edx)
 805e973:	66 89 42 fd          	mov    %ax,-0x3(%edx)
 805e977:	88 42 ff             	mov    %al,-0x1(%edx)
 805e97a:	8b 44 24 08          	mov    0x8(%esp),%eax
 805e97e:	5b                   	pop    %ebx
 805e97f:	c3                   	ret    
 805e98f:	66 0f 7f 42 bc       	movdqa %xmm0,-0x44(%edx)
 805e994:	66 0f 7f 42 cc       	movdqa %xmm0,-0x34(%edx)
 805e999:	66 0f 7f 42 dc       	movdqa %xmm0,-0x24(%edx)
 805e99e:	66 0f 7f 42 ec       	movdqa %xmm0,-0x14(%edx)
 805e9a3:	89 42 fc             	mov    %eax,-0x4(%edx)
 805e9a6:	8b 44 24 08          	mov    0x8(%esp),%eax
 805e9aa:	5b                   	pop    %ebx
 805e9ab:	c3                   	ret    
 805e9c4:	66 0f 7f 42 cb       	movdqa %xmm0,-0x35(%edx)
 805e9c9:	66 0f 7f 42 db       	movdqa %xmm0,-0x25(%edx)
 805e9ce:	66 0f 7f 42 eb       	movdqa %xmm0,-0x15(%edx)
 805e9d3:	89 42 fb             	mov    %eax,-0x5(%edx)
 805e9d6:	88 42 ff             	mov    %al,-0x1(%edx)
 805e9d9:	8b 44 24 08          	mov    0x8(%esp),%eax
 805e9dd:	5b                   	pop    %ebx
 805e9de:	c3                   	ret    
 805e9f4:	66 0f 7f 42 ca       	movdqa %xmm0,-0x36(%edx)
 805e9f9:	66 0f 7f 42 da       	movdqa %xmm0,-0x26(%edx)
 805e9fe:	66 0f 7f 42 ea       	movdqa %xmm0,-0x16(%edx)
 805ea03:	89 42 fa             	mov    %eax,-0x6(%edx)
 805ea06:	66 89 42 fe          	mov    %ax,-0x2(%edx)
 805ea0a:	8b 44 24 08          	mov    0x8(%esp),%eax
 805ea0e:	5b                   	pop    %ebx
 805ea0f:	c3                   	ret    
 805ea29:	66 0f 7f 42 d9       	movdqa %xmm0,-0x27(%edx)
 805ea2e:	66 0f 7f 42 e9       	movdqa %xmm0,-0x17(%edx)
 805ea33:	89 42 f9             	mov    %eax,-0x7(%edx)
 805ea36:	66 89 42 fd          	mov    %ax,-0x3(%edx)
 805ea3a:	88 42 ff             	mov    %al,-0x1(%edx)
 805ea3d:	8b 44 24 08          	mov    0x8(%esp),%eax
 805ea41:	5b                   	pop    %ebx
 805ea42:	c3                   	ret    
 805ea5f:	66 0f 7f 42 b8       	movdqa %xmm0,-0x48(%edx)
 805ea64:	66 0f 7f 42 c8       	movdqa %xmm0,-0x38(%edx)
 805ea69:	66 0f 7f 42 d8       	movdqa %xmm0,-0x28(%edx)
 805ea6e:	66 0f 7f 42 e8       	movdqa %xmm0,-0x18(%edx)
 805ea73:	66 0f d6 42 f8       	movq   %xmm0,-0x8(%edx)
 805ea78:	8b 44 24 08          	mov    0x8(%esp),%eax
 805ea7c:	5b                   	pop    %ebx
 805ea7d:	c3                   	ret    
 805ea94:	66 0f 7f 42 c7       	movdqa %xmm0,-0x39(%edx)
 805ea99:	66 0f 7f 42 d7       	movdqa %xmm0,-0x29(%edx)
 805ea9e:	66 0f 7f 42 e7       	movdqa %xmm0,-0x19(%edx)
 805eaa3:	66 0f d6 42 f7       	movq   %xmm0,-0x9(%edx)
 805eaa8:	88 42 ff             	mov    %al,-0x1(%edx)
 805eaab:	8b 44 24 08          	mov    0x8(%esp),%eax
 805eaaf:	5b                   	pop    %ebx
 805eab0:	c3                   	ret    
 805ead4:	66 0f 7f 42 c6       	movdqa %xmm0,-0x3a(%edx)
 805ead9:	66 0f 7f 42 d6       	movdqa %xmm0,-0x2a(%edx)
 805eade:	66 0f 7f 42 e6       	movdqa %xmm0,-0x1a(%edx)
 805eae3:	66 0f d6 42 f6       	movq   %xmm0,-0xa(%edx)
 805eae8:	66 89 42 fe          	mov    %ax,-0x2(%edx)
 805eaec:	8b 44 24 08          	mov    0x8(%esp),%eax
 805eaf0:	5b                   	pop    %ebx
 805eaf1:	c3                   	ret    
 805eb19:	66 0f 7f 42 d5       	movdqa %xmm0,-0x2b(%edx)
 805eb1e:	66 0f 7f 42 e5       	movdqa %xmm0,-0x1b(%edx)
 805eb23:	66 0f d6 42 f5       	movq   %xmm0,-0xb(%edx)
 805eb28:	66 89 42 fd          	mov    %ax,-0x3(%edx)
 805eb2c:	88 42 ff             	mov    %al,-0x1(%edx)
 805eb2f:	8b 44 24 08          	mov    0x8(%esp),%eax
 805eb33:	5b                   	pop    %ebx
 805eb34:	c3                   	ret    
 805eb54:	66 0f 7f 42 c4       	movdqa %xmm0,-0x3c(%edx)
 805eb59:	66 0f 7f 42 d4       	movdqa %xmm0,-0x2c(%edx)
 805eb5e:	66 0f 7f 42 e4       	movdqa %xmm0,-0x1c(%edx)
 805eb63:	66 0f d6 42 f4       	movq   %xmm0,-0xc(%edx)
 805eb68:	89 42 fc             	mov    %eax,-0x4(%edx)
 805eb6b:	8b 44 24 08          	mov    0x8(%esp),%eax
 805eb6f:	5b                   	pop    %ebx
 805eb70:	c3                   	ret    
 805eb99:	66 0f 7f 42 d3       	movdqa %xmm0,-0x2d(%edx)
 805eb9e:	66 0f 7f 42 e3       	movdqa %xmm0,-0x1d(%edx)
 805eba3:	66 0f d6 42 f3       	movq   %xmm0,-0xd(%edx)
 805eba8:	89 42 fb             	mov    %eax,-0x5(%edx)
 805ebab:	88 42 ff             	mov    %al,-0x1(%edx)
 805ebae:	8b 44 24 08          	mov    0x8(%esp),%eax
 805ebb2:	5b                   	pop    %ebx
 805ebb3:	c3                   	ret    
 805ebd9:	66 0f 7f 42 d2       	movdqa %xmm0,-0x2e(%edx)
 805ebde:	66 0f 7f 42 e2       	movdqa %xmm0,-0x1e(%edx)
 805ebe3:	66 0f d6 42 f2       	movq   %xmm0,-0xe(%edx)
 805ebe8:	89 42 fa             	mov    %eax,-0x6(%edx)
 805ebeb:	66 89 42 fe          	mov    %ax,-0x2(%edx)
 805ebef:	8b 44 24 08          	mov    0x8(%esp),%eax
 805ebf3:	5b                   	pop    %ebx
 805ebf4:	c3                   	ret    
 805ec1e:	66 0f 7f 42 e1       	movdqa %xmm0,-0x1f(%edx)
 805ec23:	66 0f d6 42 f1       	movq   %xmm0,-0xf(%edx)
 805ec28:	89 42 f9             	mov    %eax,-0x7(%edx)
 805ec2b:	66 89 42 fd          	mov    %ax,-0x3(%edx)
 805ec2f:	88 42 ff             	mov    %al,-0x1(%edx)
 805ec32:	8b 44 24 08          	mov    0x8(%esp),%eax
 805ec36:	5b                   	pop    %ebx
 805ec37:	c3                   	ret    
 805ec86:	89 42 ec             	mov    %eax,-0x14(%edx)
 805ec89:	89 42 f0             	mov    %eax,-0x10(%edx)
 805ec8c:	89 42 f4             	mov    %eax,-0xc(%edx)
 805ec8f:	89 42 f8             	mov    %eax,-0x8(%edx)
 805ec92:	89 42 fc             	mov    %eax,-0x4(%edx)
 805ec95:	8b 44 24 08          	mov    0x8(%esp),%eax
 805ec99:	5b                   	pop    %ebx
 805ec9a:	c3                   	ret    
 805eca9:	89 42 ef             	mov    %eax,-0x11(%edx)
 805ecac:	89 42 f3             	mov    %eax,-0xd(%edx)
 805ecaf:	89 42 f7             	mov    %eax,-0x9(%edx)
 805ecb2:	89 42 fb             	mov    %eax,-0x5(%edx)
 805ecb5:	88 42 ff             	mov    %al,-0x1(%edx)
 805ecb8:	8b 44 24 08          	mov    0x8(%esp),%eax
 805ecbc:	5b                   	pop    %ebx
 805ecbd:	c3                   	ret    
 805ecc9:	89 42 ee             	mov    %eax,-0x12(%edx)
 805eccc:	89 42 f2             	mov    %eax,-0xe(%edx)
 805eccf:	89 42 f6             	mov    %eax,-0xa(%edx)
 805ecd2:	89 42 fa             	mov    %eax,-0x6(%edx)
 805ecd5:	66 89 42 fe          	mov    %ax,-0x2(%edx)
 805ecd9:	8b 44 24 08          	mov    0x8(%esp),%eax
 805ecdd:	5b                   	pop    %ebx
 805ecde:	c3                   	ret    
 805ecec:	89 42 f1             	mov    %eax,-0xf(%edx)
 805ecef:	89 42 f5             	mov    %eax,-0xb(%edx)
 805ecf2:	89 42 f9             	mov    %eax,-0x7(%edx)
 805ecf5:	66 89 42 fd          	mov    %ax,-0x3(%edx)
 805ecf9:	88 42 ff             	mov    %al,-0x1(%edx)
 805ecfc:	8b 44 24 08          	mov    0x8(%esp),%eax
 805ed00:	5b                   	pop    %ebx
 805ed01:	c3                   	ret    
 805ee26:	83 c7 02             	add    $0x2,%edi
 805ee29:	83 ea 02             	sub    $0x2,%edx
 805ee2c:	74 02                	je     805ee30 <__memset_sse2_rep+0x1f0>
 805ee2e:	88 07                	mov    %al,(%edi)
 805ee30:	5f                   	pop    %edi
 805ee31:	8b 44 24 08          	mov    0x8(%esp),%eax
 805ee35:	5b                   	pop    %ebx
 805ee36:	c3                   	ret    
 805ee4a:	66 0f 7f 42 b0       	movdqa %xmm0,-0x50(%edx)
 805ee4f:	66 0f 7f 42 c0       	movdqa %xmm0,-0x40(%edx)
 805ee54:	66 0f 7f 42 d0       	movdqa %xmm0,-0x30(%edx)
 805ee59:	66 0f 7f 42 e0       	movdqa %xmm0,-0x20(%edx)
 805ee5e:	66 0f 7f 42 f0       	movdqa %xmm0,-0x10(%edx)
 805ee63:	8b 44 24 08          	mov    0x8(%esp),%eax
 805ee67:	5b                   	pop    %ebx
 805ee68:	c3                   	ret    
 805ee7f:	66 0f 7f 42 bf       	movdqa %xmm0,-0x41(%edx)
 805ee84:	66 0f 7f 42 cf       	movdqa %xmm0,-0x31(%edx)
 805ee89:	66 0f 7f 42 df       	movdqa %xmm0,-0x21(%edx)
 805ee8e:	66 0f 7f 42 ef       	movdqa %xmm0,-0x11(%edx)
 805ee93:	88 42 ff             	mov    %al,-0x1(%edx)
 805ee96:	8b 44 24 08          	mov    0x8(%esp),%eax
 805ee9a:	5b                   	pop    %ebx
 805ee9b:	c3                   	ret    
 805eeaf:	66 0f 7f 42 be       	movdqa %xmm0,-0x42(%edx)
 805eeb4:	66 0f 7f 42 ce       	movdqa %xmm0,-0x32(%edx)
 805eeb9:	66 0f 7f 42 de       	movdqa %xmm0,-0x22(%edx)
 805eebe:	66 0f 7f 42 ee       	movdqa %xmm0,-0x12(%edx)
 805eec3:	66 89 42 fe          	mov    %ax,-0x2(%edx)
 805eec7:	8b 44 24 08          	mov    0x8(%esp),%eax
 805eecb:	5b                   	pop    %ebx
 805eecc:	c3                   	ret    
 805eee4:	66 0f 7f 42 cd       	movdqa %xmm0,-0x33(%edx)
 805eee9:	66 0f 7f 42 dd       	movdqa %xmm0,-0x23(%edx)
 805eeee:	66 0f 7f 42 ed       	movdqa %xmm0,-0x13(%edx)
 805eef3:	66 89 42 fd          	mov    %ax,-0x3(%edx)
 805eef7:	88 42 ff             	mov    %al,-0x1(%edx)
 805eefa:	8b 44 24 08          	mov    0x8(%esp),%eax
 805eefe:	5b                   	pop    %ebx
 805eeff:	c3                   	ret    
 805ef0f:	66 0f 7f 42 bc       	movdqa %xmm0,-0x44(%edx)
 805ef14:	66 0f 7f 42 cc       	movdqa %xmm0,-0x34(%edx)
 805ef19:	66 0f 7f 42 dc       	movdqa %xmm0,-0x24(%edx)
 805ef1e:	66 0f 7f 42 ec       	movdqa %xmm0,-0x14(%edx)
 805ef23:	89 42 fc             	mov    %eax,-0x4(%edx)
 805ef26:	8b 44 24 08          	mov    0x8(%esp),%eax
 805ef2a:	5b                   	pop    %ebx
 805ef2b:	c3                   	ret    
 805ef44:	66 0f 7f 42 cb       	movdqa %xmm0,-0x35(%edx)
 805ef49:	66 0f 7f 42 db       	movdqa %xmm0,-0x25(%edx)
 805ef4e:	66 0f 7f 42 eb       	movdqa %xmm0,-0x15(%edx)
 805ef53:	89 42 fb             	mov    %eax,-0x5(%edx)
 805ef56:	88 42 ff             	mov    %al,-0x1(%edx)
 805ef59:	8b 44 24 08          	mov    0x8(%esp),%eax
 805ef5d:	5b                   	pop    %ebx
 805ef5e:	c3                   	ret    
 805ef74:	66 0f 7f 42 ca       	movdqa %xmm0,-0x36(%edx)
 805ef79:	66 0f 7f 42 da       	movdqa %xmm0,-0x26(%edx)
 805ef7e:	66 0f 7f 42 ea       	movdqa %xmm0,-0x16(%edx)
 805ef83:	89 42 fa             	mov    %eax,-0x6(%edx)
 805ef86:	66 89 42 fe          	mov    %ax,-0x2(%edx)
 805ef8a:	8b 44 24 08          	mov    0x8(%esp),%eax
 805ef8e:	5b                   	pop    %ebx
 805ef8f:	c3                   	ret    
 805efa9:	66 0f 7f 42 d9       	movdqa %xmm0,-0x27(%edx)
 805efae:	66 0f 7f 42 e9       	movdqa %xmm0,-0x17(%edx)
 805efb3:	89 42 f9             	mov    %eax,-0x7(%edx)
 805efb6:	66 89 42 fd          	mov    %ax,-0x3(%edx)
 805efba:	88 42 ff             	mov    %al,-0x1(%edx)
 805efbd:	8b 44 24 08          	mov    0x8(%esp),%eax
 805efc1:	5b                   	pop    %ebx
 805efc2:	c3                   	ret    
 805efdf:	66 0f 7f 42 b8       	movdqa %xmm0,-0x48(%edx)
 805efe4:	66 0f 7f 42 c8       	movdqa %xmm0,-0x38(%edx)
 805efe9:	66 0f 7f 42 d8       	movdqa %xmm0,-0x28(%edx)
 805efee:	66 0f 7f 42 e8       	movdqa %xmm0,-0x18(%edx)
 805eff3:	66 0f d6 42 f8       	movq   %xmm0,-0x8(%edx)
 805eff8:	8b 44 24 08          	mov    0x8(%esp),%eax
 805effc:	5b                   	pop    %ebx
 805effd:	c3                   	ret    
 805f014:	66 0f 7f 42 c7       	movdqa %xmm0,-0x39(%edx)
 805f019:	66 0f 7f 42 d7       	movdqa %xmm0,-0x29(%edx)
 805f01e:	66 0f 7f 42 e7       	movdqa %xmm0,-0x19(%edx)
 805f023:	66 0f d6 42 f7       	movq   %xmm0,-0x9(%edx)
 805f028:	88 42 ff             	mov    %al,-0x1(%edx)
 805f02b:	8b 44 24 08          	mov    0x8(%esp),%eax
 805f02f:	5b                   	pop    %ebx
 805f030:	c3                   	ret    
 805f054:	66 0f 7f 42 c6       	movdqa %xmm0,-0x3a(%edx)
 805f059:	66 0f 7f 42 d6       	movdqa %xmm0,-0x2a(%edx)
 805f05e:	66 0f 7f 42 e6       	movdqa %xmm0,-0x1a(%edx)
 805f063:	66 0f d6 42 f6       	movq   %xmm0,-0xa(%edx)
 805f068:	66 89 42 fe          	mov    %ax,-0x2(%edx)
 805f06c:	8b 44 24 08          	mov    0x8(%esp),%eax
 805f070:	5b                   	pop    %ebx
 805f071:	c3                   	ret    
 805f099:	66 0f 7f 42 d5       	movdqa %xmm0,-0x2b(%edx)
 805f09e:	66 0f 7f 42 e5       	movdqa %xmm0,-0x1b(%edx)
 805f0a3:	66 0f d6 42 f5       	movq   %xmm0,-0xb(%edx)
 805f0a8:	66 89 42 fd          	mov    %ax,-0x3(%edx)
 805f0ac:	88 42 ff             	mov    %al,-0x1(%edx)
 805f0af:	8b 44 24 08          	mov    0x8(%esp),%eax
 805f0b3:	5b                   	pop    %ebx
 805f0b4:	c3                   	ret    
 805f0d4:	66 0f 7f 42 c4       	movdqa %xmm0,-0x3c(%edx)
 805f0d9:	66 0f 7f 42 d4       	movdqa %xmm0,-0x2c(%edx)
 805f0de:	66 0f 7f 42 e4       	movdqa %xmm0,-0x1c(%edx)
 805f0e3:	66 0f d6 42 f4       	movq   %xmm0,-0xc(%edx)
 805f0e8:	89 42 fc             	mov    %eax,-0x4(%edx)
 805f0eb:	8b 44 24 08          	mov    0x8(%esp),%eax
 805f0ef:	5b                   	pop    %ebx
 805f0f0:	c3                   	ret    
 805f119:	66 0f 7f 42 d3       	movdqa %xmm0,-0x2d(%edx)
 805f11e:	66 0f 7f 42 e3       	movdqa %xmm0,-0x1d(%edx)
 805f123:	66 0f d6 42 f3       	movq   %xmm0,-0xd(%edx)
 805f128:	89 42 fb             	mov    %eax,-0x5(%edx)
 805f12b:	88 42 ff             	mov    %al,-0x1(%edx)
 805f12e:	8b 44 24 08          	mov    0x8(%esp),%eax
 805f132:	5b                   	pop    %ebx
 805f133:	c3                   	ret    
 805f159:	66 0f 7f 42 d2       	movdqa %xmm0,-0x2e(%edx)
 805f15e:	66 0f 7f 42 e2       	movdqa %xmm0,-0x1e(%edx)
 805f163:	66 0f d6 42 f2       	movq   %xmm0,-0xe(%edx)
 805f168:	89 42 fa             	mov    %eax,-0x6(%edx)
 805f16b:	66 89 42 fe          	mov    %ax,-0x2(%edx)
 805f16f:	8b 44 24 08          	mov    0x8(%esp),%eax
 805f173:	5b                   	pop    %ebx
 805f174:	c3                   	ret    
 805f19e:	66 0f 7f 42 e1       	movdqa %xmm0,-0x1f(%edx)
 805f1a3:	66 0f d6 42 f1       	movq   %xmm0,-0xf(%edx)
 805f1a8:	89 42 f9             	mov    %eax,-0x7(%edx)
 805f1ab:	66 89 42 fd          	mov    %ax,-0x3(%edx)
 805f1af:	88 42 ff             	mov    %al,-0x1(%edx)
 805f1b2:	8b 44 24 08          	mov    0x8(%esp),%eax
 805f1b6:	5b                   	pop    %ebx
 805f1b7:	c3                   	ret    
 8060556:	f6 c1 20             	test   $0x20,%cl
 8060559:	75 65                	jne    80605c0 <__strcmp_ssse3+0x1400>
 806055b:	f6 c1 40             	test   $0x40,%cl
 806055e:	75 70                	jne    80605d0 <__strcmp_ssse3+0x1410>
 8060560:	0f b6 48 07          	movzbl 0x7(%eax),%ecx
 8060564:	0f b6 42 07          	movzbl 0x7(%edx),%eax
 8060568:	29 c8                	sub    %ecx,%eax
 806056a:	c3                   	ret    
 8060568:	29 c8                	sub    %ecx,%eax
 806056a:	c3                   	ret    
 806056b:	90                   	nop
 806056c:	8d 74 26 00          	lea    0x0(%esi,%eiz,1),%esi
 8060570:	0f b6 08             	movzbl (%eax),%ecx
 8060573:	0f b6 02             	movzbl (%edx),%eax
 8060576:	29 c8                	sub    %ecx,%eax
 8060578:	c3                   	ret    
 8060573:	0f b6 02             	movzbl (%edx),%eax
 8060576:	29 c8                	sub    %ecx,%eax
 8060578:	c3                   	ret    
 8060579:	8d b4 26 00 00 00 00 	lea    0x0(%esi,%eiz,1),%esi
 8060580:	0f b6 48 01          	movzbl 0x1(%eax),%ecx
 8060584:	0f b6 42 01          	movzbl 0x1(%edx),%eax
 8060588:	29 c8                	sub    %ecx,%eax
 806058a:	c3                   	ret    
 8060588:	29 c8                	sub    %ecx,%eax
 806058a:	c3                   	ret    
 806058b:	90                   	nop
 806058c:	8d 74 26 00          	lea    0x0(%esi,%eiz,1),%esi
 8060590:	0f b6 48 02          	movzbl 0x2(%eax),%ecx
 8060594:	0f b6 42 02          	movzbl 0x2(%edx),%eax
 8060598:	29 c8                	sub    %ecx,%eax
 806059a:	c3                   	ret    
 8060598:	29 c8                	sub    %ecx,%eax
 806059a:	c3                   	ret    
 806059b:	90                   	nop
 806059c:	8d 74 26 00          	lea    0x0(%esi,%eiz,1),%esi
 80605a0:	0f b6 48 03          	movzbl 0x3(%eax),%ecx
 80605a4:	0f b6 42 03          	movzbl 0x3(%edx),%eax
 80605a8:	29 c8                	sub    %ecx,%eax
 80605aa:	c3                   	ret    
 80605a8:	29 c8                	sub    %ecx,%eax
 80605aa:	c3                   	ret    
 80605ab:	90                   	nop
 80605ac:	8d 74 26 00          	lea    0x0(%esi,%eiz,1),%esi
 80605b0:	0f b6 48 04          	movzbl 0x4(%eax),%ecx
 80605b4:	0f b6 42 04          	movzbl 0x4(%edx),%eax
 80605b8:	29 c8                	sub    %ecx,%eax
 80605ba:	c3                   	ret    
 80605b8:	29 c8                	sub    %ecx,%eax
 80605ba:	c3                   	ret    
 80605bb:	90                   	nop
 80605bc:	8d 74 26 00          	lea    0x0(%esi,%eiz,1),%esi
 80605c0:	0f b6 48 05          	movzbl 0x5(%eax),%ecx
 80605c4:	0f b6 42 05          	movzbl 0x5(%edx),%eax
 80605c8:	29 c8                	sub    %ecx,%eax
 80605ca:	c3                   	ret    
 80605c8:	29 c8                	sub    %ecx,%eax
 80605ca:	c3                   	ret    
 80605cb:	90                   	nop
 80605cc:	8d 74 26 00          	lea    0x0(%esi,%eiz,1),%esi
 80605d0:	0f b6 48 06          	movzbl 0x6(%eax),%ecx
 80605d4:	0f b6 42 06          	movzbl 0x6(%edx),%eax
 80605d8:	29 c8                	sub    %ecx,%eax
 80605da:	c3                   	ret    
 80605ff:	f6 c5 20             	test   $0x20,%ch
 8060602:	75 bc                	jne    80605c0 <__strcmp_ssse3+0x1400>
 8060604:	f6 c5 40             	test   $0x40,%ch
 8060607:	75 c7                	jne    80605d0 <__strcmp_ssse3+0x1410>
 8060609:	0f b6 48 07          	movzbl 0x7(%eax),%ecx
 806060d:	0f b6 42 07          	movzbl 0x7(%edx),%eax
 8060611:	29 c8                	sub    %ecx,%eax
 8060613:	c3                   	ret    
 8060611:	29 c8                	sub    %ecx,%eax
 8060613:	c3                   	ret    
 8060614:	8d b6 00 00 00 00    	lea    0x0(%esi),%esi
 806061a:	8d bf 00 00 00 00    	lea    0x0(%edi),%edi
 8060620:	b8 01 00 00 00       	mov    $0x1,%eax
 8060625:	77 02                	ja     8060629 <__strcmp_ssse3+0x1469>
 8060627:	f7 d8                	neg    %eax
 8060629:	c3                   	ret    
 8060614:	8d b6 00 00 00 00    	lea    0x0(%esi),%esi
 806061a:	8d bf 00 00 00 00    	lea    0x0(%edi),%edi
 8060620:	b8 01 00 00 00       	mov    $0x1,%eax
 8060625:	77 02                	ja     8060629 <__strcmp_ssse3+0x1469>
 8060627:	f7 d8                	neg    %eax
 8060629:	c3                   	ret    
 806062a:	31 c0                	xor    %eax,%eax
 806062c:	c3                   	ret    
 80607b0:	73 0d                	jae    80607bf <__strcmp_sse4_2+0x18f>
 80607b2:	8d 0c 11             	lea    (%ecx,%edx,1),%ecx
 80607b5:	0f b6 04 0f          	movzbl (%edi,%ecx,1),%eax
 80607b9:	0f b6 0c 0e          	movzbl (%esi,%ecx,1),%ecx
 80607bd:	29 c8                	sub    %ecx,%eax
 80607bf:	5e                   	pop    %esi
 80607c0:	5f                   	pop    %edi
 80607c1:	c3                   	ret    
 80607bd:	29 c8                	sub    %ecx,%eax
 80607bf:	5e                   	pop    %esi
 80607c0:	5f                   	pop    %edi
 80607c1:	c3                   	ret    
 80607c2:	8d b4 26 00 00 00 00 	lea    0x0(%esi,%eiz,1),%esi
 80607c9:	8d bc 27 00 00 00 00 	lea    0x0(%edi,%eiz,1),%edi
 80607d0:	31 c0                	xor    %eax,%eax
 80607d2:	c3                   	ret    
 80607d0:	31 c0                	xor    %eax,%eax
 80607d2:	c3                   	ret    
 80607d3:	8d b6 00 00 00 00    	lea    0x0(%esi),%esi
 80607d9:	8d bc 27 00 00 00 00 	lea    0x0(%edi,%eiz,1),%edi
 80607e0:	b8 01 00 00 00       	mov    $0x1,%eax
 80607e5:	77 02                	ja     80607e9 <__strcmp_sse4_2+0x1b9>
 80607e7:	f7 d8                	neg    %eax
 80607e9:	c3                   	ret    
 8060963:	39 fe                	cmp    %edi,%esi
 8060965:	75 e9                	jne    8060950 <strncmp+0x90>
 8060967:	0f b6 fb             	movzbl %bl,%edi
 806096a:	29 f8                	sub    %edi,%eax
 806096c:	5b                   	pop    %ebx
 806096d:	5e                   	pop    %esi
 806096e:	5f                   	pop    %edi
 806096f:	c3                   	ret    
 8060990:	72 1e                	jb     80609b0 <__memcmp_ssse3+0x40>
 8060992:	8a 08                	mov    (%eax),%cl
 8060994:	3a 0a                	cmp    (%edx),%cl
 8060996:	74 18                	je     80609b0 <__memcmp_ssse3+0x40>
 8060998:	b8 01 00 00 00       	mov    $0x1,%eax
 806099d:	77 02                	ja     80609a1 <__memcmp_ssse3+0x31>
 806099f:	f7 d8                	neg    %eax
 80609a1:	c3                   	ret    
 8060998:	b8 01 00 00 00       	mov    $0x1,%eax
 806099d:	77 02                	ja     80609a1 <__memcmp_ssse3+0x31>
 806099f:	f7 d8                	neg    %eax
 80609a1:	c3                   	ret    
 80609a2:	8d b4 26 00 00 00 00 	lea    0x0(%esi,%eiz,1),%esi
 80609a9:	8d bc 27 00 00 00 00 	lea    0x0(%edi,%eiz,1),%edi
 80609b0:	31 c0                	xor    %eax,%eax
 80609b2:	c3                   	ret    
 8061aaf:	75 6f                	jne    8061b20 <__memcmp_ssse3+0x11b0>
 8061ab1:	0f b6 47 f7          	movzbl -0x9(%edi),%eax
 8061ab5:	0f b6 56 f7          	movzbl -0x9(%esi),%edx
 8061ab9:	29 d0                	sub    %edx,%eax
 8061abb:	5f                   	pop    %edi
 8061abc:	5e                   	pop    %esi
 8061abd:	5b                   	pop    %ebx
 8061abe:	c3                   	ret    
 8061abf:	90                   	nop
 8061ac0:	0f b6 47 f0          	movzbl -0x10(%edi),%eax
 8061ac4:	0f b6 56 f0          	movzbl -0x10(%esi),%edx
 8061ac8:	29 d0                	sub    %edx,%eax
 8061aca:	5f                   	pop    %edi
 8061acb:	5e                   	pop    %esi
 8061acc:	5b                   	pop    %ebx
 8061acd:	c3                   	ret    
 8061ace:	66 90                	xchg   %ax,%ax
 8061ad0:	0f b6 47 f1          	movzbl -0xf(%edi),%eax
 8061ad4:	0f b6 56 f1          	movzbl -0xf(%esi),%edx
 8061ad8:	29 d0                	sub    %edx,%eax
 8061ada:	5f                   	pop    %edi
 8061adb:	5e                   	pop    %esi
 8061adc:	5b                   	pop    %ebx
 8061add:	c3                   	ret    
 8061ade:	66 90                	xchg   %ax,%ax
 8061ae0:	0f b6 47 f2          	movzbl -0xe(%edi),%eax
 8061ae4:	0f b6 56 f2          	movzbl -0xe(%esi),%edx
 8061ae8:	29 d0                	sub    %edx,%eax
 8061aea:	5f                   	pop    %edi
 8061aeb:	5e                   	pop    %esi
 8061aec:	5b                   	pop    %ebx
 8061aed:	c3                   	ret    
 8061aee:	66 90                	xchg   %ax,%ax
 8061af0:	0f b6 47 f3          	movzbl -0xd(%edi),%eax
 8061af4:	0f b6 56 f3          	movzbl -0xd(%esi),%edx
 8061af8:	29 d0                	sub    %edx,%eax
 8061afa:	5f                   	pop    %edi
 8061afb:	5e                   	pop    %esi
 8061afc:	5b                   	pop    %ebx
 8061afd:	c3                   	ret    
 8061afe:	66 90                	xchg   %ax,%ax
 8061b00:	0f b6 47 f4          	movzbl -0xc(%edi),%eax
 8061b04:	0f b6 56 f4          	movzbl -0xc(%esi),%edx
 8061b08:	29 d0                	sub    %edx,%eax
 8061b0a:	5f                   	pop    %edi
 8061b0b:	5e                   	pop    %esi
 8061b0c:	5b                   	pop    %ebx
 8061b0d:	c3                   	ret    
 8061b0e:	66 90                	xchg   %ax,%ax
 8061b10:	0f b6 47 f5          	movzbl -0xb(%edi),%eax
 8061b14:	0f b6 56 f5          	movzbl -0xb(%esi),%edx
 8061b18:	29 d0                	sub    %edx,%eax
 8061b1a:	5f                   	pop    %edi
 8061b1b:	5e                   	pop    %esi
 8061b1c:	5b                   	pop    %ebx
 8061b1d:	c3                   	ret    
 8061b1e:	66 90                	xchg   %ax,%ax
 8061b20:	0f b6 47 f6          	movzbl -0xa(%edi),%eax
 8061b24:	0f b6 56 f6          	movzbl -0xa(%esi),%edx
 8061b28:	29 d0                	sub    %edx,%eax
 8061b2a:	5f                   	pop    %edi
 8061b2b:	5e                   	pop    %esi
 8061b2c:	5b                   	pop    %ebx
 8061b2d:	c3                   	ret    
 8061b59:	8d b4 26 00 00 00 00 	lea    0x0(%esi,%eiz,1),%esi
 8061b60:	0f b6 47 f7          	movzbl -0x9(%edi),%eax
 8061b64:	0f b6 56 f7          	movzbl -0x9(%esi),%edx
 8061b68:	29 d0                	sub    %edx,%eax
 8061b6a:	5f                   	pop    %edi
 8061b6b:	5e                   	pop    %esi
 8061b6c:	5b                   	pop    %ebx
 8061b6d:	c3                   	ret    
 8061db6:	0f 85 34 02 00 00    	jne    8061ff0 <__memcmp_ssse3+0x1680>
 8061dbc:	8b 48 fc             	mov    -0x4(%eax),%ecx
 8061dbf:	8b 5a fc             	mov    -0x4(%edx),%ebx
 8061dc2:	39 d9                	cmp    %ebx,%ecx
 8061dc4:	b8 00 00 00 00       	mov    $0x0,%eax
 8061dc9:	0f 85 21 02 00 00    	jne    8061ff0 <__memcmp_ssse3+0x1680>
 8061dcf:	5b                   	pop    %ebx
 8061dd0:	c3                   	ret    
 8061e72:	39 d9                	cmp    %ebx,%ecx
 8061e74:	0f 85 76 01 00 00    	jne    8061ff0 <__memcmp_ssse3+0x1680>
 8061e7a:	0f b6 48 ff          	movzbl -0x1(%eax),%ecx
 8061e7e:	3a 4a ff             	cmp    -0x1(%edx),%cl
 8061e81:	b8 00 00 00 00       	mov    $0x0,%eax
 8061e86:	0f 85 84 01 00 00    	jne    8062010 <__memcmp_ssse3+0x16a0>
 8061e8c:	5b                   	pop    %ebx
 8061e8d:	c3                   	ret    
 8061f2e:	0f b7 5a fe          	movzwl -0x2(%edx),%ebx
 8061f32:	38 d9                	cmp    %bl,%cl
 8061f34:	0f 85 d6 00 00 00    	jne    8062010 <__memcmp_ssse3+0x16a0>
 8061f3a:	38 fd                	cmp    %bh,%ch
 8061f3c:	b8 00 00 00 00       	mov    $0x0,%eax
 8061f41:	0f 85 c9 00 00 00    	jne    8062010 <__memcmp_ssse3+0x16a0>
 8061f47:	5b                   	pop    %ebx
 8061f48:	c3                   	ret    
 8061fd2:	66 39 d9             	cmp    %bx,%cx
 8061fd5:	75 39                	jne    8062010 <__memcmp_ssse3+0x16a0>
 8061fd7:	0f b6 40 ff          	movzbl -0x1(%eax),%eax
 8061fdb:	3a 42 ff             	cmp    -0x1(%edx),%al
 8061fde:	b8 00 00 00 00       	mov    $0x0,%eax
 8061fe3:	75 2b                	jne    8062010 <__memcmp_ssse3+0x16a0>
 8061fe5:	5b                   	pop    %ebx
 8061fe6:	c3                   	ret    
 8062003:	66 39 d9             	cmp    %bx,%cx
 8062006:	8d 76 00             	lea    0x0(%esi),%esi
 8062009:	8d bc 27 00 00 00 00 	lea    0x0(%edi,%eiz,1),%edi
 8062010:	5b                   	pop    %ebx
 8062011:	b8 01 00 00 00       	mov    $0x1,%eax
 8062016:	77 02                	ja     806201a <__memcmp_ssse3+0x16aa>
 8062018:	f7 d8                	neg    %eax
 806201a:	c3                   	ret    
 80620a7:	8a 58 06             	mov    0x6(%eax),%bl
 80620aa:	3a 5a 06             	cmp    0x6(%edx),%bl
 80620ad:	74 11                	je     80620c0 <__memcmp_sse4_2+0xa0>
 80620af:	5b                   	pop    %ebx
 80620b0:	b8 01 00 00 00       	mov    $0x1,%eax
 80620b5:	77 02                	ja     80620b9 <__memcmp_sse4_2+0x99>
 80620b7:	f7 d8                	neg    %eax
 80620b9:	c3                   	ret    
 80620b0:	b8 01 00 00 00       	mov    $0x1,%eax
 80620b5:	77 02                	ja     80620b9 <__memcmp_sse4_2+0x99>
 80620b7:	f7 d8                	neg    %eax
 80620b9:	c3                   	ret    
 80620ba:	8d b6 00 00 00 00    	lea    0x0(%esi),%esi
 80620c0:	5b                   	pop    %ebx
 80620c1:	31 c0                	xor    %eax,%eax
 80620c3:	c3                   	ret    
 80620c3:	c3                   	ret    
 80620c4:	8d b6 00 00 00 00    	lea    0x0(%esi),%esi
 80620ca:	8d bf 00 00 00 00    	lea    0x0(%edi),%edi
 80620d0:	72 0e                	jb     80620e0 <__memcmp_sse4_2+0xc0>
 80620d2:	0f b6 00             	movzbl (%eax),%eax
 80620d5:	0f b6 12             	movzbl (%edx),%edx
 80620d8:	29 d0                	sub    %edx,%eax
 80620da:	c3                   	ret    
 80620d2:	0f b6 00             	movzbl (%eax),%eax
 80620d5:	0f b6 12             	movzbl (%edx),%edx
 80620d8:	29 d0                	sub    %edx,%eax
 80620da:	c3                   	ret    
 80620db:	90                   	nop
 80620dc:	8d 74 26 00          	lea    0x0(%esi,%eiz,1),%esi
 80620e0:	31 c0                	xor    %eax,%eax
 80620e2:	c3                   	ret    
 80621a4:	0f 85 d6 09 00 00    	jne    8062b80 <__memcmp_sse4_2+0xb60>
 80621aa:	8b 48 fc             	mov    -0x4(%eax),%ecx
 80621ad:	8b 5a fc             	mov    -0x4(%edx),%ebx
 80621b0:	39 d9                	cmp    %ebx,%ecx
 80621b2:	b8 00 00 00 00       	mov    $0x0,%eax
 80621b7:	0f 85 c3 09 00 00    	jne    8062b80 <__memcmp_sse4_2+0xb60>
 80621bd:	5b                   	pop    %ebx
 80621be:	c3                   	ret    
 806222c:	39 d9                	cmp    %ebx,%ecx
 806222e:	0f 85 4c 09 00 00    	jne    8062b80 <__memcmp_sse4_2+0xb60>
 8062234:	0f b6 48 ff          	movzbl -0x1(%eax),%ecx
 8062238:	3a 4a ff             	cmp    -0x1(%edx),%cl
 806223b:	b8 00 00 00 00       	mov    $0x0,%eax
 8062240:	0f 85 50 09 00 00    	jne    8062b96 <__memcmp_sse4_2+0xb76>
 8062246:	5b                   	pop    %ebx
 8062247:	c3                   	ret    
 80622c8:	0f b7 5a fe          	movzwl -0x2(%edx),%ebx
 80622cc:	38 d9                	cmp    %bl,%cl
 80622ce:	0f 85 c2 08 00 00    	jne    8062b96 <__memcmp_sse4_2+0xb76>
 80622d4:	38 fd                	cmp    %bh,%ch
 80622d6:	b8 00 00 00 00       	mov    $0x0,%eax
 80622db:	0f 85 b5 08 00 00    	jne    8062b96 <__memcmp_sse4_2+0xb76>
 80622e1:	5b                   	pop    %ebx
 80622e2:	c3                   	ret    
 8062374:	66 39 d9             	cmp    %bx,%cx
 8062377:	0f 85 19 08 00 00    	jne    8062b96 <__memcmp_sse4_2+0xb76>
 806237d:	0f b6 40 ff          	movzbl -0x1(%eax),%eax
 8062381:	3a 42 ff             	cmp    -0x1(%edx),%al
 8062384:	b8 00 00 00 00       	mov    $0x0,%eax
 8062389:	0f 85 07 08 00 00    	jne    8062b96 <__memcmp_sse4_2+0xb76>
 806238f:	5b                   	pop    %ebx
 8062390:	c3                   	ret    
 80623f4:	0f 83 46 07 00 00    	jae    8062b40 <__memcmp_sse4_2+0xb20>
 80623fa:	8b 48 fc             	mov    -0x4(%eax),%ecx
 80623fd:	8b 5a fc             	mov    -0x4(%edx),%ebx
 8062400:	39 d9                	cmp    %ebx,%ecx
 8062402:	b8 00 00 00 00       	mov    $0x0,%eax
 8062407:	0f 85 73 07 00 00    	jne    8062b80 <__memcmp_sse4_2+0xb60>
 806240d:	5b                   	pop    %ebx
 806240e:	c3                   	ret    
 8062470:	39 d9                	cmp    %ebx,%ecx
 8062472:	0f 85 08 07 00 00    	jne    8062b80 <__memcmp_sse4_2+0xb60>
 8062478:	0f b6 48 ff          	movzbl -0x1(%eax),%ecx
 806247c:	3a 4a ff             	cmp    -0x1(%edx),%cl
 806247f:	b8 00 00 00 00       	mov    $0x0,%eax
 8062484:	0f 85 0c 07 00 00    	jne    8062b96 <__memcmp_sse4_2+0xb76>
 806248a:	5b                   	pop    %ebx
 806248b:	c3                   	ret    
 80624fc:	0f b7 5a fe          	movzwl -0x2(%edx),%ebx
 8062500:	38 d9                	cmp    %bl,%cl
 8062502:	0f 85 8e 06 00 00    	jne    8062b96 <__memcmp_sse4_2+0xb76>
 8062508:	38 fd                	cmp    %bh,%ch
 806250a:	b8 00 00 00 00       	mov    $0x0,%eax
 806250f:	0f 85 81 06 00 00    	jne    8062b96 <__memcmp_sse4_2+0xb76>
 8062515:	5b                   	pop    %ebx
 8062516:	c3                   	ret    
 8062598:	66 39 d9             	cmp    %bx,%cx
 806259b:	0f 85 f5 05 00 00    	jne    8062b96 <__memcmp_sse4_2+0xb76>
 80625a1:	0f b6 40 ff          	movzbl -0x1(%eax),%eax
 80625a5:	3a 42 ff             	cmp    -0x1(%edx),%al
 80625a8:	b8 00 00 00 00       	mov    $0x0,%eax
 80625ad:	0f 85 e3 05 00 00    	jne    8062b96 <__memcmp_sse4_2+0xb76>
 80625b3:	5b                   	pop    %ebx
 80625b4:	c3                   	ret    
 8062622:	0f 85 58 05 00 00    	jne    8062b80 <__memcmp_sse4_2+0xb60>
 8062628:	8b 48 fc             	mov    -0x4(%eax),%ecx
 806262b:	8b 5a fc             	mov    -0x4(%edx),%ebx
 806262e:	39 d9                	cmp    %ebx,%ecx
 8062630:	b8 00 00 00 00       	mov    $0x0,%eax
 8062635:	0f 85 45 05 00 00    	jne    8062b80 <__memcmp_sse4_2+0xb60>
 806263b:	5b                   	pop    %ebx
 806263c:	c3                   	ret    
 80626ae:	39 d9                	cmp    %ebx,%ecx
 80626b0:	0f 85 ca 04 00 00    	jne    8062b80 <__memcmp_sse4_2+0xb60>
 80626b6:	0f b6 48 ff          	movzbl -0x1(%eax),%ecx
 80626ba:	3a 4a ff             	cmp    -0x1(%edx),%cl
 80626bd:	b8 00 00 00 00       	mov    $0x0,%eax
 80626c2:	0f 85 ce 04 00 00    	jne    8062b96 <__memcmp_sse4_2+0xb76>
 80626c8:	5b                   	pop    %ebx
 80626c9:	c3                   	ret    
 806274a:	0f b7 5a fe          	movzwl -0x2(%edx),%ebx
 806274e:	38 d9                	cmp    %bl,%cl
 8062750:	0f 85 40 04 00 00    	jne    8062b96 <__memcmp_sse4_2+0xb76>
 8062756:	38 fd                	cmp    %bh,%ch
 8062758:	b8 00 00 00 00       	mov    $0x0,%eax
 806275d:	0f 85 33 04 00 00    	jne    8062b96 <__memcmp_sse4_2+0xb76>
 8062763:	5b                   	pop    %ebx
 8062764:	c3                   	ret    
 80627f6:	66 39 d9             	cmp    %bx,%cx
 80627f9:	0f 85 97 03 00 00    	jne    8062b96 <__memcmp_sse4_2+0xb76>
 80627ff:	0f b6 40 ff          	movzbl -0x1(%eax),%eax
 8062803:	3a 42 ff             	cmp    -0x1(%edx),%al
 8062806:	b8 00 00 00 00       	mov    $0x0,%eax
 806280b:	0f 85 85 03 00 00    	jne    8062b96 <__memcmp_sse4_2+0xb76>
 8062811:	5b                   	pop    %ebx
 8062812:	c3                   	ret    
 8062890:	0f 85 ea 02 00 00    	jne    8062b80 <__memcmp_sse4_2+0xb60>
 8062896:	8b 48 fc             	mov    -0x4(%eax),%ecx
 8062899:	8b 5a fc             	mov    -0x4(%edx),%ebx
 806289c:	39 d9                	cmp    %ebx,%ecx
 806289e:	b8 00 00 00 00       	mov    $0x0,%eax
 80628a3:	0f 85 d7 02 00 00    	jne    8062b80 <__memcmp_sse4_2+0xb60>
 80628a9:	5b                   	pop    %ebx
 80628aa:	c3                   	ret    
 806292c:	39 d9                	cmp    %ebx,%ecx
 806292e:	0f 85 4c 02 00 00    	jne    8062b80 <__memcmp_sse4_2+0xb60>
 8062934:	0f b6 48 ff          	movzbl -0x1(%eax),%ecx
 8062938:	3a 4a ff             	cmp    -0x1(%edx),%cl
 806293b:	b8 00 00 00 00       	mov    $0x0,%eax
 8062940:	0f 85 50 02 00 00    	jne    8062b96 <__memcmp_sse4_2+0xb76>
 8062946:	5b                   	pop    %ebx
 8062947:	c3                   	ret    
 80629d8:	0f b7 5a fe          	movzwl -0x2(%edx),%ebx
 80629dc:	38 d9                	cmp    %bl,%cl
 80629de:	0f 85 b2 01 00 00    	jne    8062b96 <__memcmp_sse4_2+0xb76>
 80629e4:	38 fd                	cmp    %bh,%ch
 80629e6:	b8 00 00 00 00       	mov    $0x0,%eax
 80629eb:	0f 85 a5 01 00 00    	jne    8062b96 <__memcmp_sse4_2+0xb76>
 80629f1:	5b                   	pop    %ebx
 80629f2:	c3                   	ret    
 8062a94:	66 39 d9             	cmp    %bx,%cx
 8062a97:	0f 85 f9 00 00 00    	jne    8062b96 <__memcmp_sse4_2+0xb76>
 8062a9d:	0f b6 40 ff          	movzbl -0x1(%eax),%eax
 8062aa1:	3a 42 ff             	cmp    -0x1(%edx),%al
 8062aa4:	b8 00 00 00 00       	mov    $0x0,%eax
 8062aa9:	0f 85 e7 00 00 00    	jne    8062b96 <__memcmp_sse4_2+0xb76>
 8062aaf:	5b                   	pop    %ebx
 8062ab0:	c3                   	ret    
 8062b2a:	75 54                	jne    8062b80 <__memcmp_sse4_2+0xb60>
 8062b2c:	8b 48 fc             	mov    -0x4(%eax),%ecx
 8062b2f:	8b 5a fc             	mov    -0x4(%edx),%ebx
 8062b32:	39 d9                	cmp    %ebx,%ecx
 8062b34:	b8 00 00 00 00       	mov    $0x0,%eax
 8062b39:	75 45                	jne    8062b80 <__memcmp_sse4_2+0xb60>
 8062b3b:	5b                   	pop    %ebx
 8062b3c:	c3                   	ret    
 8062b5e:	75 20                	jne    8062b80 <__memcmp_sse4_2+0xb60>
 8062b60:	8b 48 0c             	mov    0xc(%eax),%ecx
 8062b63:	8b 5a 0c             	mov    0xc(%edx),%ebx
 8062b66:	39 d9                	cmp    %ebx,%ecx
 8062b68:	b8 00 00 00 00       	mov    $0x0,%eax
 8062b6d:	75 11                	jne    8062b80 <__memcmp_sse4_2+0xb60>
 8062b6f:	5b                   	pop    %ebx
 8062b70:	c3                   	ret    
 8062b8f:	38 d9                	cmp    %bl,%cl
 8062b91:	75 03                	jne    8062b96 <__memcmp_sse4_2+0xb76>
 8062b93:	66 39 d9             	cmp    %bx,%cx
 8062b96:	5b                   	pop    %ebx
 8062b97:	b8 01 00 00 00       	mov    $0x1,%eax
 8062b9c:	77 02                	ja     8062ba0 <__memcmp_sse4_2+0xb80>
 8062b9e:	f7 d8                	neg    %eax
 8062ba0:	c3                   	ret    
 80640a2:	0f 85 e8 00 00 00    	jne    8064190 <__strcpy_ssse3+0x15e0>
 80640a8:	90                   	nop
 80640a9:	8d b4 26 00 00 00 00 	lea    0x0(%esi,%eiz,1),%esi
 80640b0:	8b 01                	mov    (%ecx),%eax
 80640b2:	89 02                	mov    %eax,(%edx)
 80640b4:	89 f8                	mov    %edi,%eax
 80640b6:	5f                   	pop    %edi
 80640b7:	c3                   	ret    
 80640d2:	0f 85 e8 00 00 00    	jne    80641c0 <__strcpy_ssse3+0x1610>
 80640d8:	90                   	nop
 80640d9:	8d b4 26 00 00 00 00 	lea    0x0(%esi,%eiz,1),%esi
 80640e0:	66 0f 12 01          	movlpd (%ecx),%xmm0
 80640e4:	66 0f 13 02          	movlpd %xmm0,(%edx)
 80640e8:	89 f8                	mov    %edi,%eax
 80640ea:	5f                   	pop    %edi
 80640eb:	c3                   	ret    
 806411f:	90                   	nop
 8064120:	66 0f 12 01          	movlpd (%ecx),%xmm0
 8064124:	8b 41 08             	mov    0x8(%ecx),%eax
 8064127:	66 0f 13 02          	movlpd %xmm0,(%edx)
 806412b:	89 42 08             	mov    %eax,0x8(%edx)
 806412e:	89 f8                	mov    %edi,%eax
 8064130:	5f                   	pop    %edi
 8064131:	c3                   	ret    
 8064155:	0f 85 15 01 00 00    	jne    8064270 <__strcpy_ssse3+0x16c0>
 806415b:	90                   	nop
 806415c:	8d 74 26 00          	lea    0x0(%esi,%eiz,1),%esi
 8064160:	f3 0f 6f 01          	movdqu (%ecx),%xmm0
 8064164:	f3 0f 7f 02          	movdqu %xmm0,(%edx)
 8064168:	89 f8                	mov    %edi,%eax
 806416a:	5f                   	pop    %edi
 806416b:	c3                   	ret    
 806416a:	5f                   	pop    %edi
 806416b:	c3                   	ret    
 806416c:	8d 74 26 00          	lea    0x0(%esi,%eiz,1),%esi
 8064170:	8a 01                	mov    (%ecx),%al
 8064172:	88 02                	mov    %al,(%edx)
 8064174:	89 f8                	mov    %edi,%eax
 8064176:	5f                   	pop    %edi
 8064177:	c3                   	ret    
 8064177:	c3                   	ret    
 8064178:	90                   	nop
 8064179:	8d b4 26 00 00 00 00 	lea    0x0(%esi,%eiz,1),%esi
 8064180:	66 8b 01             	mov    (%ecx),%ax
 8064183:	66 89 02             	mov    %ax,(%edx)
 8064186:	89 f8                	mov    %edi,%eax
 8064188:	5f                   	pop    %edi
 8064189:	c3                   	ret    
 806418a:	8d b6 00 00 00 00    	lea    0x0(%esi),%esi
 8064190:	66 8b 01             	mov    (%ecx),%ax
 8064193:	66 89 02             	mov    %ax,(%edx)
 8064196:	8a 41 02             	mov    0x2(%ecx),%al
 8064199:	88 42 02             	mov    %al,0x2(%edx)
 806419c:	89 f8                	mov    %edi,%eax
 806419e:	5f                   	pop    %edi
 806419f:	c3                   	ret    
 806419f:	c3                   	ret    
 80641a0:	8b 01                	mov    (%ecx),%eax
 80641a2:	89 02                	mov    %eax,(%edx)
 80641a4:	8a 41 04             	mov    0x4(%ecx),%al
 80641a7:	88 42 04             	mov    %al,0x4(%edx)
 80641aa:	89 f8                	mov    %edi,%eax
 80641ac:	5f                   	pop    %edi
 80641ad:	c3                   	ret    
 80641ae:	66 90                	xchg   %ax,%ax
 80641b0:	8b 01                	mov    (%ecx),%eax
 80641b2:	89 02                	mov    %eax,(%edx)
 80641b4:	66 8b 41 04          	mov    0x4(%ecx),%ax
 80641b8:	66 89 42 04          	mov    %ax,0x4(%edx)
 80641bc:	89 f8                	mov    %edi,%eax
 80641be:	5f                   	pop    %edi
 80641bf:	c3                   	ret    
 80641bf:	c3                   	ret    
 80641c0:	8b 01                	mov    (%ecx),%eax
 80641c2:	89 02                	mov    %eax,(%edx)
 80641c4:	8b 41 03             	mov    0x3(%ecx),%eax
 80641c7:	89 42 03             	mov    %eax,0x3(%edx)
 80641ca:	89 f8                	mov    %edi,%eax
 80641cc:	5f                   	pop    %edi
 80641cd:	c3                   	ret    
 80641ce:	66 90                	xchg   %ax,%ax
 80641d0:	66 0f 12 01          	movlpd (%ecx),%xmm0
 80641d4:	8a 41 08             	mov    0x8(%ecx),%al
 80641d7:	66 0f 13 02          	movlpd %xmm0,(%edx)
 80641db:	88 42 08             	mov    %al,0x8(%edx)
 80641de:	89 f8                	mov    %edi,%eax
 80641e0:	5f                   	pop    %edi
 80641e1:	c3                   	ret    
 80641e9:	8d bc 27 00 00 00 00 	lea    0x0(%edi,%eiz,1),%edi
 80641f0:	66 0f 12 01          	movlpd (%ecx),%xmm0
 80641f4:	66 8b 41 08          	mov    0x8(%ecx),%ax
 80641f8:	66 0f 13 02          	movlpd %xmm0,(%edx)
 80641fc:	66 89 42 08          	mov    %ax,0x8(%edx)
 8064200:	89 f8                	mov    %edi,%eax
 8064202:	5f                   	pop    %edi
 8064203:	c3                   	ret    
 806420a:	8d bf 00 00 00 00    	lea    0x0(%edi),%edi
 8064210:	66 0f 12 01          	movlpd (%ecx),%xmm0
 8064214:	8b 41 07             	mov    0x7(%ecx),%eax
 8064217:	66 0f 13 02          	movlpd %xmm0,(%edx)
 806421b:	89 42 07             	mov    %eax,0x7(%edx)
 806421e:	89 f8                	mov    %edi,%eax
 8064220:	5f                   	pop    %edi
 8064221:	c3                   	ret    
 8064229:	8d bc 27 00 00 00 00 	lea    0x0(%edi,%eiz,1),%edi
 8064230:	66 0f 12 01          	movlpd (%ecx),%xmm0
 8064234:	66 0f 12 49 05       	movlpd 0x5(%ecx),%xmm1
 8064239:	66 0f 13 02          	movlpd %xmm0,(%edx)
 806423d:	66 0f 13 4a 05       	movlpd %xmm1,0x5(%edx)
 8064242:	89 f8                	mov    %edi,%eax
 8064244:	5f                   	pop    %edi
 8064245:	c3                   	ret    
 8064249:	8d bc 27 00 00 00 00 	lea    0x0(%edi,%eiz,1),%edi
 8064250:	66 0f 12 01          	movlpd (%ecx),%xmm0
 8064254:	66 0f 12 49 06       	movlpd 0x6(%ecx),%xmm1
 8064259:	66 0f 13 02          	movlpd %xmm0,(%edx)
 806425d:	66 0f 13 4a 06       	movlpd %xmm1,0x6(%edx)
 8064262:	89 f8                	mov    %edi,%eax
 8064264:	5f                   	pop    %edi
 8064265:	c3                   	ret    
 8064269:	8d bc 27 00 00 00 00 	lea    0x0(%edi,%eiz,1),%edi
 8064270:	66 0f 12 01          	movlpd (%ecx),%xmm0
 8064274:	66 0f 12 49 07       	movlpd 0x7(%ecx),%xmm1
 8064279:	66 0f 13 02          	movlpd %xmm0,(%edx)
 806427d:	66 0f 13 4a 07       	movlpd %xmm1,0x7(%edx)
 8064282:	89 f8                	mov    %edi,%eax
 8064284:	5f                   	pop    %edi
 8064285:	c3                   	ret    
 8064284:	5f                   	pop    %edi
 8064285:	c3                   	ret    
 8064286:	8d 76 00             	lea    0x0(%esi),%esi
 8064289:	8d bc 27 00 00 00 00 	lea    0x0(%edi,%eiz,1),%edi
 8064290:	8a 01                	mov    (%ecx),%al
 8064292:	88 02                	mov    %al,(%edx)
 8064294:	89 d0                	mov    %edx,%eax
 8064296:	c3                   	ret    
 8064294:	89 d0                	mov    %edx,%eax
 8064296:	c3                   	ret    
 8064297:	89 f6                	mov    %esi,%esi
 8064299:	8d bc 27 00 00 00 00 	lea    0x0(%edi,%eiz,1),%edi
 80642a0:	66 8b 01             	mov    (%ecx),%ax
 80642a3:	66 89 02             	mov    %ax,(%edx)
 80642a6:	89 d0                	mov    %edx,%eax
 80642a8:	c3                   	ret    
 80642a8:	c3                   	ret    
 80642a9:	8d b4 26 00 00 00 00 	lea    0x0(%esi,%eiz,1),%esi
 80642b0:	66 8b 01             	mov    (%ecx),%ax
 80642b3:	66 89 02             	mov    %ax,(%edx)
 80642b6:	8a 41 02             	mov    0x2(%ecx),%al
 80642b9:	88 42 02             	mov    %al,0x2(%edx)
 80642bc:	89 d0                	mov    %edx,%eax
 80642be:	c3                   	ret    
 80642b9:	88 42 02             	mov    %al,0x2(%edx)
 80642bc:	89 d0                	mov    %edx,%eax
 80642be:	c3                   	ret    
 80642bf:	90                   	nop
 80642c0:	8b 01                	mov    (%ecx),%eax
 80642c2:	89 02                	mov    %eax,(%edx)
 80642c4:	89 d0                	mov    %edx,%eax
 80642c6:	c3                   	ret    
 80642c7:	89 f6                	mov    %esi,%esi
 80642c9:	8d bc 27 00 00 00 00 	lea    0x0(%edi,%eiz,1),%edi
 80642d0:	8b 01                	mov    (%ecx),%eax
 80642d2:	89 02                	mov    %eax,(%edx)
 80642d4:	8a 41 04             	mov    0x4(%ecx),%al
 80642d7:	88 42 04             	mov    %al,0x4(%edx)
 80642da:	89 d0                	mov    %edx,%eax
 80642dc:	c3                   	ret    
 80642dc:	c3                   	ret    
 80642dd:	8d 76 00             	lea    0x0(%esi),%esi
 80642e0:	8b 01                	mov    (%ecx),%eax
 80642e2:	89 02                	mov    %eax,(%edx)
 80642e4:	66 8b 41 04          	mov    0x4(%ecx),%ax
 80642e8:	66 89 42 04          	mov    %ax,0x4(%edx)
 80642ec:	89 d0                	mov    %edx,%eax
 80642ee:	c3                   	ret    
 80642ee:	c3                   	ret    
 80642ef:	90                   	nop
 80642f0:	8b 01                	mov    (%ecx),%eax
 80642f2:	89 02                	mov    %eax,(%edx)
 80642f4:	8b 41 03             	mov    0x3(%ecx),%eax
 80642f7:	89 42 03             	mov    %eax,0x3(%edx)
 80642fa:	89 d0                	mov    %edx,%eax
 80642fc:	c3                   	ret    
 80642f7:	89 42 03             	mov    %eax,0x3(%edx)
 80642fa:	89 d0                	mov    %edx,%eax
 80642fc:	c3                   	ret    
 80642fd:	8d 76 00             	lea    0x0(%esi),%esi
 8064300:	66 0f 12 01          	movlpd (%ecx),%xmm0
 8064304:	66 0f 13 02          	movlpd %xmm0,(%edx)
 8064308:	89 d0                	mov    %edx,%eax
 806430a:	c3                   	ret    
 806430b:	90                   	nop
 806430c:	8d 74 26 00          	lea    0x0(%esi,%eiz,1),%esi
 8064310:	66 0f 12 01          	movlpd (%ecx),%xmm0
 8064314:	8a 41 08             	mov    0x8(%ecx),%al
 8064317:	66 0f 13 02          	movlpd %xmm0,(%edx)
 806431b:	88 42 08             	mov    %al,0x8(%edx)
 806431e:	89 d0                	mov    %edx,%eax
 8064320:	c3                   	ret    
 806432e:	90                   	nop
 806432f:	90                   	nop
 8064330:	66 0f 12 01          	movlpd (%ecx),%xmm0
 8064334:	66 8b 41 08          	mov    0x8(%ecx),%ax
 8064338:	66 0f 13 02          	movlpd %xmm0,(%edx)
 806433c:	66 89 42 08          	mov    %ax,0x8(%edx)
 8064340:	89 d0                	mov    %edx,%eax
 8064342:	c3                   	ret    
 8064343:	8d b6 00 00 00 00    	lea    0x0(%esi),%esi
 8064349:	8d bc 27 00 00 00 00 	lea    0x0(%edi,%eiz,1),%edi
 8064350:	66 0f 12 01          	movlpd (%ecx),%xmm0
 8064354:	8b 41 07             	mov    0x7(%ecx),%eax
 8064357:	66 0f 13 02          	movlpd %xmm0,(%edx)
 806435b:	89 42 07             	mov    %eax,0x7(%edx)
 806435e:	89 d0                	mov    %edx,%eax
 8064360:	c3                   	ret    
 806436e:	90                   	nop
 806436f:	90                   	nop
 8064370:	66 0f 12 01          	movlpd (%ecx),%xmm0
 8064374:	8b 41 08             	mov    0x8(%ecx),%eax
 8064377:	66 0f 13 02          	movlpd %xmm0,(%edx)
 806437b:	89 42 08             	mov    %eax,0x8(%edx)
 806437e:	89 d0                	mov    %edx,%eax
 8064380:	c3                   	ret    
 806438e:	90                   	nop
 806438f:	90                   	nop
 8064390:	66 0f 12 01          	movlpd (%ecx),%xmm0
 8064394:	66 0f 12 49 05       	movlpd 0x5(%ecx),%xmm1
 8064399:	66 0f 13 02          	movlpd %xmm0,(%edx)
 806439d:	66 0f 13 4a 05       	movlpd %xmm1,0x5(%edx)
 80643a2:	89 d0                	mov    %edx,%eax
 80643a4:	c3                   	ret    
 80643a5:	8d 74 26 00          	lea    0x0(%esi,%eiz,1),%esi
 80643a9:	8d bc 27 00 00 00 00 	lea    0x0(%edi,%eiz,1),%edi
 80643b0:	66 0f 12 01          	movlpd (%ecx),%xmm0
 80643b4:	66 0f 12 49 06       	movlpd 0x6(%ecx),%xmm1
 80643b9:	66 0f 13 02          	movlpd %xmm0,(%edx)
 80643bd:	66 0f 13 4a 06       	movlpd %xmm1,0x6(%edx)
 80643c2:	89 d0                	mov    %edx,%eax
 80643c4:	c3                   	ret    
 80643c5:	8d 74 26 00          	lea    0x0(%esi,%eiz,1),%esi
 80643c9:	8d bc 27 00 00 00 00 	lea    0x0(%edi,%eiz,1),%edi
 80643d0:	66 0f 12 01          	movlpd (%ecx),%xmm0
 80643d4:	66 0f 12 49 07       	movlpd 0x7(%ecx),%xmm1
 80643d9:	66 0f 13 02          	movlpd %xmm0,(%edx)
 80643dd:	66 0f 13 4a 07       	movlpd %xmm1,0x7(%edx)
 80643e2:	89 d0                	mov    %edx,%eax
 80643e4:	c3                   	ret    
 80643e2:	89 d0                	mov    %edx,%eax
 80643e4:	c3                   	ret    
 80643e5:	8d 74 26 00          	lea    0x0(%esi,%eiz,1),%esi
 80643e9:	8d bc 27 00 00 00 00 	lea    0x0(%edi,%eiz,1),%edi
 80643f0:	f3 0f 6f 01          	movdqu (%ecx),%xmm0
 80643f4:	f3 0f 7f 02          	movdqu %xmm0,(%edx)
 80643f8:	89 d0                	mov    %edx,%eax
 80643fa:	c3                   	ret    
 80658f2:	0f 85 e8 00 00 00    	jne    80659e0 <__stpcpy_ssse3+0x15e0>
 80658f8:	90                   	nop
 80658f9:	8d b4 26 00 00 00 00 	lea    0x0(%esi,%eiz,1),%esi
 8065900:	8b 01                	mov    (%ecx),%eax
 8065902:	89 02                	mov    %eax,(%edx)
 8065904:	8d 42 03             	lea    0x3(%edx),%eax
 8065907:	5f                   	pop    %edi
 8065908:	c3                   	ret    
 8065922:	0f 85 08 01 00 00    	jne    8065a30 <__stpcpy_ssse3+0x1630>
 8065928:	90                   	nop
 8065929:	8d b4 26 00 00 00 00 	lea    0x0(%esi,%eiz,1),%esi
 8065930:	66 0f 12 01          	movlpd (%ecx),%xmm0
 8065934:	66 0f 13 02          	movlpd %xmm0,(%edx)
 8065938:	8d 42 07             	lea    0x7(%edx),%eax
 806593b:	5f                   	pop    %edi
 806593c:	c3                   	ret    
 806596f:	90                   	nop
 8065970:	66 0f 12 01          	movlpd (%ecx),%xmm0
 8065974:	8b 41 08             	mov    0x8(%ecx),%eax
 8065977:	66 0f 13 02          	movlpd %xmm0,(%edx)
 806597b:	89 42 08             	mov    %eax,0x8(%edx)
 806597e:	8d 42 0b             	lea    0xb(%edx),%eax
 8065981:	5f                   	pop    %edi
 8065982:	c3                   	ret    
 80659a5:	0f 85 35 01 00 00    	jne    8065ae0 <__stpcpy_ssse3+0x16e0>
 80659ab:	90                   	nop
 80659ac:	8d 74 26 00          	lea    0x0(%esi,%eiz,1),%esi
 80659b0:	f3 0f 6f 01          	movdqu (%ecx),%xmm0
 80659b4:	f3 0f 7f 02          	movdqu %xmm0,(%edx)
 80659b8:	8d 42 0f             	lea    0xf(%edx),%eax
 80659bb:	5f                   	pop    %edi
 80659bc:	c3                   	ret    
 80659bb:	5f                   	pop    %edi
 80659bc:	c3                   	ret    
 80659bd:	8d 76 00             	lea    0x0(%esi),%esi
 80659c0:	8a 01                	mov    (%ecx),%al
 80659c2:	88 02                	mov    %al,(%edx)
 80659c4:	8d 02                	lea    (%edx),%eax
 80659c6:	5f                   	pop    %edi
 80659c7:	c3                   	ret    
 80659c7:	c3                   	ret    
 80659c8:	90                   	nop
 80659c9:	8d b4 26 00 00 00 00 	lea    0x0(%esi,%eiz,1),%esi
 80659d0:	66 8b 01             	mov    (%ecx),%ax
 80659d3:	66 89 02             	mov    %ax,(%edx)
 80659d6:	8d 42 01             	lea    0x1(%edx),%eax
 80659d9:	5f                   	pop    %edi
 80659da:	c3                   	ret    
 80659dc:	8d 74 26 00          	lea    0x0(%esi,%eiz,1),%esi
 80659e0:	66 8b 01             	mov    (%ecx),%ax
 80659e3:	66 89 02             	mov    %ax,(%edx)
 80659e6:	8a 41 02             	mov    0x2(%ecx),%al
 80659e9:	88 42 02             	mov    %al,0x2(%edx)
 80659ec:	8d 42 02             	lea    0x2(%edx),%eax
 80659ef:	5f                   	pop    %edi
 80659f0:	c3                   	ret    
 80659ff:	90                   	nop
 8065a00:	8b 01                	mov    (%ecx),%eax
 8065a02:	89 02                	mov    %eax,(%edx)
 8065a04:	8a 41 04             	mov    0x4(%ecx),%al
 8065a07:	88 42 04             	mov    %al,0x4(%edx)
 8065a0a:	8d 42 04             	lea    0x4(%edx),%eax
 8065a0d:	5f                   	pop    %edi
 8065a0e:	c3                   	ret    
 8065a0f:	90                   	nop
 8065a10:	8b 01                	mov    (%ecx),%eax
 8065a12:	89 02                	mov    %eax,(%edx)
 8065a14:	66 8b 41 04          	mov    0x4(%ecx),%ax
 8065a18:	66 89 42 04          	mov    %ax,0x4(%edx)
 8065a1c:	8d 42 05             	lea    0x5(%edx),%eax
 8065a1f:	5f                   	pop    %edi
 8065a20:	c3                   	ret    
 8065a2f:	90                   	nop
 8065a30:	8b 01                	mov    (%ecx),%eax
 8065a32:	89 02                	mov    %eax,(%edx)
 8065a34:	8b 41 03             	mov    0x3(%ecx),%eax
 8065a37:	89 42 03             	mov    %eax,0x3(%edx)
 8065a3a:	8d 42 06             	lea    0x6(%edx),%eax
 8065a3d:	5f                   	pop    %edi
 8065a3e:	c3                   	ret    
 8065a3f:	90                   	nop
 8065a40:	66 0f 12 01          	movlpd (%ecx),%xmm0
 8065a44:	8a 41 08             	mov    0x8(%ecx),%al
 8065a47:	66 0f 13 02          	movlpd %xmm0,(%edx)
 8065a4b:	88 42 08             	mov    %al,0x8(%edx)
 8065a4e:	8d 42 08             	lea    0x8(%edx),%eax
 8065a51:	5f                   	pop    %edi
 8065a52:	c3                   	ret    
 8065a59:	8d bc 27 00 00 00 00 	lea    0x0(%edi,%eiz,1),%edi
 8065a60:	66 0f 12 01          	movlpd (%ecx),%xmm0
 8065a64:	66 8b 41 08          	mov    0x8(%ecx),%ax
 8065a68:	66 0f 13 02          	movlpd %xmm0,(%edx)
 8065a6c:	66 89 42 08          	mov    %ax,0x8(%edx)
 8065a70:	8d 42 09             	lea    0x9(%edx),%eax
 8065a73:	5f                   	pop    %edi
 8065a74:	c3                   	ret    
 8065a79:	8d bc 27 00 00 00 00 	lea    0x0(%edi,%eiz,1),%edi
 8065a80:	66 0f 12 01          	movlpd (%ecx),%xmm0
 8065a84:	8b 41 07             	mov    0x7(%ecx),%eax
 8065a87:	66 0f 13 02          	movlpd %xmm0,(%edx)
 8065a8b:	89 42 07             	mov    %eax,0x7(%edx)
 8065a8e:	8d 42 0a             	lea    0xa(%edx),%eax
 8065a91:	5f                   	pop    %edi
 8065a92:	c3                   	ret    
 8065a99:	8d bc 27 00 00 00 00 	lea    0x0(%edi,%eiz,1),%edi
 8065aa0:	66 0f 12 01          	movlpd (%ecx),%xmm0
 8065aa4:	66 0f 12 49 05       	movlpd 0x5(%ecx),%xmm1
 8065aa9:	66 0f 13 02          	movlpd %xmm0,(%edx)
 8065aad:	66 0f 13 4a 05       	movlpd %xmm1,0x5(%edx)
 8065ab2:	8d 42 0c             	lea    0xc(%edx),%eax
 8065ab5:	5f                   	pop    %edi
 8065ab6:	c3                   	ret    
 8065ab9:	8d bc 27 00 00 00 00 	lea    0x0(%edi,%eiz,1),%edi
 8065ac0:	66 0f 12 01          	movlpd (%ecx),%xmm0
 8065ac4:	66 0f 12 49 06       	movlpd 0x6(%ecx),%xmm1
 8065ac9:	66 0f 13 02          	movlpd %xmm0,(%edx)
 8065acd:	66 0f 13 4a 06       	movlpd %xmm1,0x6(%edx)
 8065ad2:	8d 42 0d             	lea    0xd(%edx),%eax
 8065ad5:	5f                   	pop    %edi
 8065ad6:	c3                   	ret    
 8065ad9:	8d bc 27 00 00 00 00 	lea    0x0(%edi,%eiz,1),%edi
 8065ae0:	66 0f 12 01          	movlpd (%ecx),%xmm0
 8065ae4:	66 0f 12 49 07       	movlpd 0x7(%ecx),%xmm1
 8065ae9:	66 0f 13 02          	movlpd %xmm0,(%edx)
 8065aed:	66 0f 13 4a 07       	movlpd %xmm1,0x7(%edx)
 8065af2:	8d 42 0e             	lea    0xe(%edx),%eax
 8065af5:	5f                   	pop    %edi
 8065af6:	c3                   	ret    
 8065af5:	5f                   	pop    %edi
 8065af6:	c3                   	ret    
 8065af7:	89 f6                	mov    %esi,%esi
 8065af9:	8d bc 27 00 00 00 00 	lea    0x0(%edi,%eiz,1),%edi
 8065b00:	8a 01                	mov    (%ecx),%al
 8065b02:	88 02                	mov    %al,(%edx)
 8065b04:	8d 02                	lea    (%edx),%eax
 8065b06:	c3                   	ret    
 8065b04:	8d 02                	lea    (%edx),%eax
 8065b06:	c3                   	ret    
 8065b07:	89 f6                	mov    %esi,%esi
 8065b09:	8d bc 27 00 00 00 00 	lea    0x0(%edi,%eiz,1),%edi
 8065b10:	66 8b 01             	mov    (%ecx),%ax
 8065b13:	66 89 02             	mov    %ax,(%edx)
 8065b16:	8d 42 01             	lea    0x1(%edx),%eax
 8065b19:	c3                   	ret    
 8065b19:	c3                   	ret    
 8065b1a:	8d b6 00 00 00 00    	lea    0x0(%esi),%esi
 8065b20:	66 8b 01             	mov    (%ecx),%ax
 8065b23:	66 89 02             	mov    %ax,(%edx)
 8065b26:	8a 41 02             	mov    0x2(%ecx),%al
 8065b29:	88 42 02             	mov    %al,0x2(%edx)
 8065b2c:	8d 42 02             	lea    0x2(%edx),%eax
 8065b2f:	c3                   	ret    
 8065b26:	8a 41 02             	mov    0x2(%ecx),%al
 8065b29:	88 42 02             	mov    %al,0x2(%edx)
 8065b2c:	8d 42 02             	lea    0x2(%edx),%eax
 8065b2f:	c3                   	ret    
 8065b30:	8b 01                	mov    (%ecx),%eax
 8065b32:	89 02                	mov    %eax,(%edx)
 8065b34:	8d 42 03             	lea    0x3(%edx),%eax
 8065b37:	c3                   	ret    
 8065b38:	90                   	nop
 8065b39:	8d b4 26 00 00 00 00 	lea    0x0(%esi,%eiz,1),%esi
 8065b40:	8b 01                	mov    (%ecx),%eax
 8065b42:	89 02                	mov    %eax,(%edx)
 8065b44:	8a 41 04             	mov    0x4(%ecx),%al
 8065b47:	88 42 04             	mov    %al,0x4(%edx)
 8065b4a:	8d 42 04             	lea    0x4(%edx),%eax
 8065b4d:	c3                   	ret    
 8065b4d:	c3                   	ret    
 8065b4e:	66 90                	xchg   %ax,%ax
 8065b50:	8b 01                	mov    (%ecx),%eax
 8065b52:	89 02                	mov    %eax,(%edx)
 8065b54:	66 8b 41 04          	mov    0x4(%ecx),%ax
 8065b58:	66 89 42 04          	mov    %ax,0x4(%edx)
 8065b5c:	8d 42 05             	lea    0x5(%edx),%eax
 8065b5f:	c3                   	ret    
 8065b5c:	8d 42 05             	lea    0x5(%edx),%eax
 8065b5f:	c3                   	ret    
 8065b60:	8b 01                	mov    (%ecx),%eax
 8065b62:	89 02                	mov    %eax,(%edx)
 8065b64:	8b 41 03             	mov    0x3(%ecx),%eax
 8065b67:	89 42 03             	mov    %eax,0x3(%edx)
 8065b6a:	8d 42 06             	lea    0x6(%edx),%eax
 8065b6d:	c3                   	ret    
 8065b67:	89 42 03             	mov    %eax,0x3(%edx)
 8065b6a:	8d 42 06             	lea    0x6(%edx),%eax
 8065b6d:	c3                   	ret    
 8065b6e:	66 90                	xchg   %ax,%ax
 8065b70:	66 0f 12 01          	movlpd (%ecx),%xmm0
 8065b74:	66 0f 13 02          	movlpd %xmm0,(%edx)
 8065b78:	8d 42 07             	lea    0x7(%edx),%eax
 8065b7b:	c3                   	ret    
 8065b7b:	c3                   	ret    
 8065b7c:	8d 74 26 00          	lea    0x0(%esi,%eiz,1),%esi
 8065b80:	66 0f 12 01          	movlpd (%ecx),%xmm0
 8065b84:	8a 41 08             	mov    0x8(%ecx),%al
 8065b87:	66 0f 13 02          	movlpd %xmm0,(%edx)
 8065b8b:	88 42 08             	mov    %al,0x8(%edx)
 8065b8e:	8d 42 08             	lea    0x8(%edx),%eax
 8065b91:	c3                   	ret    
 8065b92:	8d b4 26 00 00 00 00 	lea    0x0(%esi,%eiz,1),%esi
 8065b99:	8d bc 27 00 00 00 00 	lea    0x0(%edi,%eiz,1),%edi
 8065ba0:	66 0f 12 01          	movlpd (%ecx),%xmm0
 8065ba4:	66 8b 41 08          	mov    0x8(%ecx),%ax
 8065ba8:	66 0f 13 02          	movlpd %xmm0,(%edx)
 8065bac:	66 89 42 08          	mov    %ax,0x8(%edx)
 8065bb0:	8d 42 09             	lea    0x9(%edx),%eax
 8065bb3:	c3                   	ret    
 8065bb4:	8d b6 00 00 00 00    	lea    0x0(%esi),%esi
 8065bba:	8d bf 00 00 00 00    	lea    0x0(%edi),%edi
 8065bc0:	66 0f 12 01          	movlpd (%ecx),%xmm0
 8065bc4:	8b 41 07             	mov    0x7(%ecx),%eax
 8065bc7:	66 0f 13 02          	movlpd %xmm0,(%edx)
 8065bcb:	89 42 07             	mov    %eax,0x7(%edx)
 8065bce:	8d 42 0a             	lea    0xa(%edx),%eax
 8065bd1:	c3                   	ret    
 8065bd2:	8d b4 26 00 00 00 00 	lea    0x0(%esi,%eiz,1),%esi
 8065bd9:	8d bc 27 00 00 00 00 	lea    0x0(%edi,%eiz,1),%edi
 8065be0:	66 0f 12 01          	movlpd (%ecx),%xmm0
 8065be4:	8b 41 08             	mov    0x8(%ecx),%eax
 8065be7:	66 0f 13 02          	movlpd %xmm0,(%edx)
 8065beb:	89 42 08             	mov    %eax,0x8(%edx)
 8065bee:	8d 42 0b             	lea    0xb(%edx),%eax
 8065bf1:	c3                   	ret    
 8065bf2:	8d b4 26 00 00 00 00 	lea    0x0(%esi,%eiz,1),%esi
 8065bf9:	8d bc 27 00 00 00 00 	lea    0x0(%edi,%eiz,1),%edi
 8065c00:	66 0f 12 01          	movlpd (%ecx),%xmm0
 8065c04:	66 0f 12 49 05       	movlpd 0x5(%ecx),%xmm1
 8065c09:	66 0f 13 02          	movlpd %xmm0,(%edx)
 8065c0d:	66 0f 13 4a 05       	movlpd %xmm1,0x5(%edx)
 8065c12:	8d 42 0c             	lea    0xc(%edx),%eax
 8065c15:	c3                   	ret    
 8065c16:	8d 76 00             	lea    0x0(%esi),%esi
 8065c19:	8d bc 27 00 00 00 00 	lea    0x0(%edi,%eiz,1),%edi
 8065c20:	66 0f 12 01          	movlpd (%ecx),%xmm0
 8065c24:	66 0f 12 49 06       	movlpd 0x6(%ecx),%xmm1
 8065c29:	66 0f 13 02          	movlpd %xmm0,(%edx)
 8065c2d:	66 0f 13 4a 06       	movlpd %xmm1,0x6(%edx)
 8065c32:	8d 42 0d             	lea    0xd(%edx),%eax
 8065c35:	c3                   	ret    
 8065c36:	8d 76 00             	lea    0x0(%esi),%esi
 8065c39:	8d bc 27 00 00 00 00 	lea    0x0(%edi,%eiz,1),%edi
 8065c40:	66 0f 12 01          	movlpd (%ecx),%xmm0
 8065c44:	66 0f 12 49 07       	movlpd 0x7(%ecx),%xmm1
 8065c49:	66 0f 13 02          	movlpd %xmm0,(%edx)
 8065c4d:	66 0f 13 4a 07       	movlpd %xmm1,0x7(%edx)
 8065c52:	8d 42 0e             	lea    0xe(%edx),%eax
 8065c55:	c3                   	ret    
 8065c52:	8d 42 0e             	lea    0xe(%edx),%eax
 8065c55:	c3                   	ret    
 8065c56:	8d 76 00             	lea    0x0(%esi),%esi
 8065c59:	8d bc 27 00 00 00 00 	lea    0x0(%edi,%eiz,1),%edi
 8065c60:	f3 0f 6f 01          	movdqu (%ecx),%xmm0
 8065c64:	f3 0f 7f 02          	movdqu %xmm0,(%edx)
 8065c68:	8d 42 0f             	lea    0xf(%edx),%eax
 8065c6b:	c3                   	ret    
 8065f1b:	0f 85 cf 00 00 00    	jne    8065ff0 <__strcpy_sse2+0x380>
 8065f21:	8b 01                	mov    (%ecx),%eax
 8065f23:	89 02                	mov    %eax,(%edx)
 8065f25:	8b 41 04             	mov    0x4(%ecx),%eax
 8065f28:	89 42 04             	mov    %eax,0x4(%edx)
 8065f2b:	89 f8                	mov    %edi,%eax
 8065f2d:	5f                   	pop    %edi
 8065f2e:	c3                   	ret    
 8065f69:	0f 85 51 01 00 00    	jne    80660c0 <__strcpy_sse2+0x450>
 8065f6f:	66 0f 12 01          	movlpd (%ecx),%xmm0
 8065f73:	66 0f 13 02          	movlpd %xmm0,(%edx)
 8065f77:	66 0f 12 41 08       	movlpd 0x8(%ecx),%xmm0
 8065f7c:	66 0f 13 42 08       	movlpd %xmm0,0x8(%edx)
 8065f81:	89 f8                	mov    %edi,%eax
 8065f83:	5f                   	pop    %edi
 8065f84:	c3                   	ret    
 8065f84:	c3                   	ret    
 8065f85:	8d 74 26 00          	lea    0x0(%esi,%eiz,1),%esi
 8065f89:	8d bc 27 00 00 00 00 	lea    0x0(%edi,%eiz,1),%edi
 8065f90:	8a 01                	mov    (%ecx),%al
 8065f92:	88 02                	mov    %al,(%edx)
 8065f94:	89 f8                	mov    %edi,%eax
 8065f96:	5f                   	pop    %edi
 8065f97:	c3                   	ret    
 8065f97:	c3                   	ret    
 8065f98:	90                   	nop
 8065f99:	8d b4 26 00 00 00 00 	lea    0x0(%esi,%eiz,1),%esi
 8065fa0:	66 8b 01             	mov    (%ecx),%ax
 8065fa3:	66 89 02             	mov    %ax,(%edx)
 8065fa6:	89 f8                	mov    %edi,%eax
 8065fa8:	5f                   	pop    %edi
 8065fa9:	c3                   	ret    
 8065faa:	8d b6 00 00 00 00    	lea    0x0(%esi),%esi
 8065fb0:	66 8b 01             	mov    (%ecx),%ax
 8065fb3:	66 89 02             	mov    %ax,(%edx)
 8065fb6:	8a 41 02             	mov    0x2(%ecx),%al
 8065fb9:	88 42 02             	mov    %al,0x2(%edx)
 8065fbc:	89 f8                	mov    %edi,%eax
 8065fbe:	5f                   	pop    %edi
 8065fbf:	c3                   	ret    
 8065fbc:	89 f8                	mov    %edi,%eax
 8065fbe:	5f                   	pop    %edi
 8065fbf:	c3                   	ret    
 8065fc0:	8b 01                	mov    (%ecx),%eax
 8065fc2:	89 02                	mov    %eax,(%edx)
 8065fc4:	89 f8                	mov    %edi,%eax
 8065fc6:	5f                   	pop    %edi
 8065fc7:	c3                   	ret    
 8065fc9:	8d b4 26 00 00 00 00 	lea    0x0(%esi,%eiz,1),%esi
 8065fd0:	8b 01                	mov    (%ecx),%eax
 8065fd2:	89 02                	mov    %eax,(%edx)
 8065fd4:	8a 41 04             	mov    0x4(%ecx),%al
 8065fd7:	88 42 04             	mov    %al,0x4(%edx)
 8065fda:	89 f8                	mov    %edi,%eax
 8065fdc:	5f                   	pop    %edi
 8065fdd:	c3                   	ret    
 8065fde:	66 90                	xchg   %ax,%ax
 8065fe0:	8b 01                	mov    (%ecx),%eax
 8065fe2:	89 02                	mov    %eax,(%edx)
 8065fe4:	66 8b 41 04          	mov    0x4(%ecx),%ax
 8065fe8:	66 89 42 04          	mov    %ax,0x4(%edx)
 8065fec:	89 f8                	mov    %edi,%eax
 8065fee:	5f                   	pop    %edi
 8065fef:	c3                   	ret    
 8065fef:	c3                   	ret    
 8065ff0:	8b 01                	mov    (%ecx),%eax
 8065ff2:	89 02                	mov    %eax,(%edx)
 8065ff4:	8b 41 03             	mov    0x3(%ecx),%eax
 8065ff7:	89 42 03             	mov    %eax,0x3(%edx)
 8065ffa:	89 f8                	mov    %edi,%eax
 8065ffc:	5f                   	pop    %edi
 8065ffd:	c3                   	ret    
 8066002:	89 02                	mov    %eax,(%edx)
 8066004:	8b 41 04             	mov    0x4(%ecx),%eax
 8066007:	89 42 04             	mov    %eax,0x4(%edx)
 806600a:	8a 41 08             	mov    0x8(%ecx),%al
 806600d:	88 42 08             	mov    %al,0x8(%edx)
 8066010:	89 f8                	mov    %edi,%eax
 8066012:	5f                   	pop    %edi
 8066013:	c3                   	ret    
 8066022:	89 02                	mov    %eax,(%edx)
 8066024:	8b 41 04             	mov    0x4(%ecx),%eax
 8066027:	89 42 04             	mov    %eax,0x4(%edx)
 806602a:	66 8b 41 08          	mov    0x8(%ecx),%ax
 806602e:	66 89 42 08          	mov    %ax,0x8(%edx)
 8066032:	89 f8                	mov    %edi,%eax
 8066034:	5f                   	pop    %edi
 8066035:	c3                   	ret    
 8066042:	89 02                	mov    %eax,(%edx)
 8066044:	8b 41 04             	mov    0x4(%ecx),%eax
 8066047:	89 42 04             	mov    %eax,0x4(%edx)
 806604a:	8b 41 07             	mov    0x7(%ecx),%eax
 806604d:	89 42 07             	mov    %eax,0x7(%edx)
 8066050:	89 f8                	mov    %edi,%eax
 8066052:	5f                   	pop    %edi
 8066053:	c3                   	ret    
 8066062:	89 02                	mov    %eax,(%edx)
 8066064:	8b 41 04             	mov    0x4(%ecx),%eax
 8066067:	89 42 04             	mov    %eax,0x4(%edx)
 806606a:	8b 41 08             	mov    0x8(%ecx),%eax
 806606d:	89 42 08             	mov    %eax,0x8(%edx)
 8066070:	89 f8                	mov    %edi,%eax
 8066072:	5f                   	pop    %edi
 8066073:	c3                   	ret    
 806607a:	8d bf 00 00 00 00    	lea    0x0(%edi),%edi
 8066080:	66 0f 12 01          	movlpd (%ecx),%xmm0
 8066084:	66 0f 13 02          	movlpd %xmm0,(%edx)
 8066088:	66 0f 12 41 05       	movlpd 0x5(%ecx),%xmm0
 806608d:	66 0f 13 42 05       	movlpd %xmm0,0x5(%edx)
 8066092:	89 f8                	mov    %edi,%eax
 8066094:	5f                   	pop    %edi
 8066095:	c3                   	ret    
 8066099:	8d bc 27 00 00 00 00 	lea    0x0(%edi,%eiz,1),%edi
 80660a0:	66 0f 12 01          	movlpd (%ecx),%xmm0
 80660a4:	66 0f 13 02          	movlpd %xmm0,(%edx)
 80660a8:	66 0f 12 41 06       	movlpd 0x6(%ecx),%xmm0
 80660ad:	66 0f 13 42 06       	movlpd %xmm0,0x6(%edx)
 80660b2:	89 f8                	mov    %edi,%eax
 80660b4:	5f                   	pop    %edi
 80660b5:	c3                   	ret    
 80660b9:	8d bc 27 00 00 00 00 	lea    0x0(%edi,%eiz,1),%edi
 80660c0:	66 0f 12 01          	movlpd (%ecx),%xmm0
 80660c4:	66 0f 13 02          	movlpd %xmm0,(%edx)
 80660c8:	66 0f 12 41 07       	movlpd 0x7(%ecx),%xmm0
 80660cd:	66 0f 13 42 07       	movlpd %xmm0,0x7(%edx)
 80660d2:	89 f8                	mov    %edi,%eax
 80660d4:	5f                   	pop    %edi
 80660d5:	c3                   	ret    
 80660d4:	5f                   	pop    %edi
 80660d5:	c3                   	ret    
 80660d6:	8d 76 00             	lea    0x0(%esi),%esi
 80660d9:	8d bc 27 00 00 00 00 	lea    0x0(%edi,%eiz,1),%edi
 80660e0:	8a 01                	mov    (%ecx),%al
 80660e2:	88 02                	mov    %al,(%edx)
 80660e4:	89 d0                	mov    %edx,%eax
 80660e6:	c3                   	ret    
 80660e4:	89 d0                	mov    %edx,%eax
 80660e6:	c3                   	ret    
 80660e7:	89 f6                	mov    %esi,%esi
 80660e9:	8d bc 27 00 00 00 00 	lea    0x0(%edi,%eiz,1),%edi
 80660f0:	66 8b 01             	mov    (%ecx),%ax
 80660f3:	66 89 02             	mov    %ax,(%edx)
 80660f6:	89 d0                	mov    %edx,%eax
 80660f8:	c3                   	ret    
 80660f8:	c3                   	ret    
 80660f9:	8d b4 26 00 00 00 00 	lea    0x0(%esi,%eiz,1),%esi
 8066100:	66 8b 01             	mov    (%ecx),%ax
 8066103:	66 89 02             	mov    %ax,(%edx)
 8066106:	8a 41 02             	mov    0x2(%ecx),%al
 8066109:	88 42 02             	mov    %al,0x2(%edx)
 806610c:	89 d0                	mov    %edx,%eax
 806610e:	c3                   	ret    
 8066109:	88 42 02             	mov    %al,0x2(%edx)
 806610c:	89 d0                	mov    %edx,%eax
 806610e:	c3                   	ret    
 806610f:	90                   	nop
 8066110:	8b 01                	mov    (%ecx),%eax
 8066112:	89 02                	mov    %eax,(%edx)
 8066114:	89 d0                	mov    %edx,%eax
 8066116:	c3                   	ret    
 8066117:	89 f6                	mov    %esi,%esi
 8066119:	8d bc 27 00 00 00 00 	lea    0x0(%edi,%eiz,1),%edi
 8066120:	8b 01                	mov    (%ecx),%eax
 8066122:	89 02                	mov    %eax,(%edx)
 8066124:	8a 41 04             	mov    0x4(%ecx),%al
 8066127:	88 42 04             	mov    %al,0x4(%edx)
 806612a:	89 d0                	mov    %edx,%eax
 806612c:	c3                   	ret    
 806612c:	c3                   	ret    
 806612d:	8d 76 00             	lea    0x0(%esi),%esi
 8066130:	8b 01                	mov    (%ecx),%eax
 8066132:	89 02                	mov    %eax,(%edx)
 8066134:	66 8b 41 04          	mov    0x4(%ecx),%ax
 8066138:	66 89 42 04          	mov    %ax,0x4(%edx)
 806613c:	89 d0                	mov    %edx,%eax
 806613e:	c3                   	ret    
 806613e:	c3                   	ret    
 806613f:	90                   	nop
 8066140:	8b 01                	mov    (%ecx),%eax
 8066142:	89 02                	mov    %eax,(%edx)
 8066144:	8b 41 03             	mov    0x3(%ecx),%eax
 8066147:	89 42 03             	mov    %eax,0x3(%edx)
 806614a:	89 d0                	mov    %edx,%eax
 806614c:	c3                   	ret    
 806614c:	c3                   	ret    
 806614d:	8d 76 00             	lea    0x0(%esi),%esi
 8066150:	8b 01                	mov    (%ecx),%eax
 8066152:	89 02                	mov    %eax,(%edx)
 8066154:	8b 41 04             	mov    0x4(%ecx),%eax
 8066157:	89 42 04             	mov    %eax,0x4(%edx)
 806615a:	89 d0                	mov    %edx,%eax
 806615c:	c3                   	ret    
 8066160:	8b 01                	mov    (%ecx),%eax
 8066162:	89 02                	mov    %eax,(%edx)
 8066164:	8b 41 04             	mov    0x4(%ecx),%eax
 8066167:	89 42 04             	mov    %eax,0x4(%edx)
 806616a:	8a 41 08             	mov    0x8(%ecx),%al
 806616d:	88 42 08             	mov    %al,0x8(%edx)
 8066170:	89 d0                	mov    %edx,%eax
 8066172:	c3                   	ret    
 8066180:	8b 01                	mov    (%ecx),%eax
 8066182:	89 02                	mov    %eax,(%edx)
 8066184:	8b 41 04             	mov    0x4(%ecx),%eax
 8066187:	89 42 04             	mov    %eax,0x4(%edx)
 806618a:	66 8b 41 08          	mov    0x8(%ecx),%ax
 806618e:	66 89 42 08          	mov    %ax,0x8(%edx)
 8066192:	89 d0                	mov    %edx,%eax
 8066194:	c3                   	ret    
 80661a0:	8b 01                	mov    (%ecx),%eax
 80661a2:	89 02                	mov    %eax,(%edx)
 80661a4:	8b 41 04             	mov    0x4(%ecx),%eax
 80661a7:	89 42 04             	mov    %eax,0x4(%edx)
 80661aa:	8b 41 07             	mov    0x7(%ecx),%eax
 80661ad:	89 42 07             	mov    %eax,0x7(%edx)
 80661b0:	89 d0                	mov    %edx,%eax
 80661b2:	c3                   	ret    
 80661c0:	8b 01                	mov    (%ecx),%eax
 80661c2:	89 02                	mov    %eax,(%edx)
 80661c4:	8b 41 04             	mov    0x4(%ecx),%eax
 80661c7:	89 42 04             	mov    %eax,0x4(%edx)
 80661ca:	8b 41 08             	mov    0x8(%ecx),%eax
 80661cd:	89 42 08             	mov    %eax,0x8(%edx)
 80661d0:	89 d0                	mov    %edx,%eax
 80661d2:	c3                   	ret    
 80661d3:	8d b6 00 00 00 00    	lea    0x0(%esi),%esi
 80661d9:	8d bc 27 00 00 00 00 	lea    0x0(%edi,%eiz,1),%edi
 80661e0:	66 0f 12 01          	movlpd (%ecx),%xmm0
 80661e4:	66 0f 13 02          	movlpd %xmm0,(%edx)
 80661e8:	66 0f 12 41 05       	movlpd 0x5(%ecx),%xmm0
 80661ed:	66 0f 13 42 05       	movlpd %xmm0,0x5(%edx)
 80661f2:	89 d0                	mov    %edx,%eax
 80661f4:	c3                   	ret    
 80661f5:	8d 74 26 00          	lea    0x0(%esi,%eiz,1),%esi
 80661f9:	8d bc 27 00 00 00 00 	lea    0x0(%edi,%eiz,1),%edi
 8066200:	66 0f 12 01          	movlpd (%ecx),%xmm0
 8066204:	66 0f 13 02          	movlpd %xmm0,(%edx)
 8066208:	66 0f 12 41 06       	movlpd 0x6(%ecx),%xmm0
 806620d:	66 0f 13 42 06       	movlpd %xmm0,0x6(%edx)
 8066212:	89 d0                	mov    %edx,%eax
 8066214:	c3                   	ret    
 8066215:	8d 74 26 00          	lea    0x0(%esi,%eiz,1),%esi
 8066219:	8d bc 27 00 00 00 00 	lea    0x0(%edi,%eiz,1),%edi
 8066220:	66 0f 12 01          	movlpd (%ecx),%xmm0
 8066224:	66 0f 13 02          	movlpd %xmm0,(%edx)
 8066228:	66 0f 12 41 07       	movlpd 0x7(%ecx),%xmm0
 806622d:	66 0f 13 42 07       	movlpd %xmm0,0x7(%edx)
 8066232:	89 d0                	mov    %edx,%eax
 8066234:	c3                   	ret    
 8066235:	8d 74 26 00          	lea    0x0(%esi,%eiz,1),%esi
 8066239:	8d bc 27 00 00 00 00 	lea    0x0(%edi,%eiz,1),%edi
 8066240:	66 0f 12 01          	movlpd (%ecx),%xmm0
 8066244:	66 0f 13 02          	movlpd %xmm0,(%edx)
 8066248:	66 0f 12 41 08       	movlpd 0x8(%ecx),%xmm0
 806624d:	66 0f 13 42 08       	movlpd %xmm0,0x8(%edx)
 8066252:	89 d0                	mov    %edx,%eax
 8066254:	c3                   	ret    
 806650b:	0f 85 ef 00 00 00    	jne    8066600 <__stpcpy_sse2+0x3a0>
 8066511:	8b 01                	mov    (%ecx),%eax
 8066513:	89 02                	mov    %eax,(%edx)
 8066515:	8b 41 04             	mov    0x4(%ecx),%eax
 8066518:	89 42 04             	mov    %eax,0x4(%edx)
 806651b:	8d 42 07             	lea    0x7(%edx),%eax
 806651e:	5f                   	pop    %edi
 806651f:	c3                   	ret    
 8066559:	0f 85 71 01 00 00    	jne    80666d0 <__stpcpy_sse2+0x470>
 806655f:	66 0f 12 01          	movlpd (%ecx),%xmm0
 8066563:	66 0f 13 02          	movlpd %xmm0,(%edx)
 8066567:	66 0f 12 41 08       	movlpd 0x8(%ecx),%xmm0
 806656c:	66 0f 13 42 08       	movlpd %xmm0,0x8(%edx)
 8066571:	8d 42 0f             	lea    0xf(%edx),%eax
 8066574:	5f                   	pop    %edi
 8066575:	c3                   	ret    
 8066575:	c3                   	ret    
 8066576:	8d 76 00             	lea    0x0(%esi),%esi
 8066579:	8d bc 27 00 00 00 00 	lea    0x0(%edi,%eiz,1),%edi
 8066580:	8a 01                	mov    (%ecx),%al
 8066582:	88 02                	mov    %al,(%edx)
 8066584:	8d 02                	lea    (%edx),%eax
 8066586:	5f                   	pop    %edi
 8066587:	c3                   	ret    
 8066587:	c3                   	ret    
 8066588:	90                   	nop
 8066589:	8d b4 26 00 00 00 00 	lea    0x0(%esi,%eiz,1),%esi
 8066590:	66 8b 01             	mov    (%ecx),%ax
 8066593:	66 89 02             	mov    %ax,(%edx)
 8066596:	8d 42 01             	lea    0x1(%edx),%eax
 8066599:	5f                   	pop    %edi
 806659a:	c3                   	ret    
 806659c:	8d 74 26 00          	lea    0x0(%esi,%eiz,1),%esi
 80665a0:	66 8b 01             	mov    (%ecx),%ax
 80665a3:	66 89 02             	mov    %ax,(%edx)
 80665a6:	8a 41 02             	mov    0x2(%ecx),%al
 80665a9:	88 42 02             	mov    %al,0x2(%edx)
 80665ac:	8d 42 02             	lea    0x2(%edx),%eax
 80665af:	5f                   	pop    %edi
 80665b0:	c3                   	ret    
 80665bd:	90                   	nop
 80665be:	90                   	nop
 80665bf:	90                   	nop
 80665c0:	8b 01                	mov    (%ecx),%eax
 80665c2:	89 02                	mov    %eax,(%edx)
 80665c4:	8d 42 03             	lea    0x3(%edx),%eax
 80665c7:	5f                   	pop    %edi
 80665c8:	c3                   	ret    
 80665c9:	8d b4 26 00 00 00 00 	lea    0x0(%esi,%eiz,1),%esi
 80665d0:	8b 01                	mov    (%ecx),%eax
 80665d2:	89 02                	mov    %eax,(%edx)
 80665d4:	8a 41 04             	mov    0x4(%ecx),%al
 80665d7:	88 42 04             	mov    %al,0x4(%edx)
 80665da:	8d 42 04             	lea    0x4(%edx),%eax
 80665dd:	5f                   	pop    %edi
 80665de:	c3                   	ret    
 80665df:	90                   	nop
 80665e0:	8b 01                	mov    (%ecx),%eax
 80665e2:	89 02                	mov    %eax,(%edx)
 80665e4:	66 8b 41 04          	mov    0x4(%ecx),%ax
 80665e8:	66 89 42 04          	mov    %ax,0x4(%edx)
 80665ec:	8d 42 05             	lea    0x5(%edx),%eax
 80665ef:	5f                   	pop    %edi
 80665f0:	c3                   	ret    
 80665ff:	90                   	nop
 8066600:	8b 01                	mov    (%ecx),%eax
 8066602:	89 02                	mov    %eax,(%edx)
 8066604:	8b 41 03             	mov    0x3(%ecx),%eax
 8066607:	89 42 03             	mov    %eax,0x3(%edx)
 806660a:	8d 42 06             	lea    0x6(%edx),%eax
 806660d:	5f                   	pop    %edi
 806660e:	c3                   	ret    
 8066612:	89 02                	mov    %eax,(%edx)
 8066614:	8b 41 04             	mov    0x4(%ecx),%eax
 8066617:	89 42 04             	mov    %eax,0x4(%edx)
 806661a:	8a 41 08             	mov    0x8(%ecx),%al
 806661d:	88 42 08             	mov    %al,0x8(%edx)
 8066620:	8d 42 08             	lea    0x8(%edx),%eax
 8066623:	5f                   	pop    %edi
 8066624:	c3                   	ret    
 8066632:	89 02                	mov    %eax,(%edx)
 8066634:	8b 41 04             	mov    0x4(%ecx),%eax
 8066637:	89 42 04             	mov    %eax,0x4(%edx)
 806663a:	66 8b 41 08          	mov    0x8(%ecx),%ax
 806663e:	66 89 42 08          	mov    %ax,0x8(%edx)
 8066642:	8d 42 09             	lea    0x9(%edx),%eax
 8066645:	5f                   	pop    %edi
 8066646:	c3                   	ret    
 8066652:	89 02                	mov    %eax,(%edx)
 8066654:	8b 41 04             	mov    0x4(%ecx),%eax
 8066657:	89 42 04             	mov    %eax,0x4(%edx)
 806665a:	8b 41 07             	mov    0x7(%ecx),%eax
 806665d:	89 42 07             	mov    %eax,0x7(%edx)
 8066660:	8d 42 0a             	lea    0xa(%edx),%eax
 8066663:	5f                   	pop    %edi
 8066664:	c3                   	ret    
 8066672:	89 02                	mov    %eax,(%edx)
 8066674:	8b 41 04             	mov    0x4(%ecx),%eax
 8066677:	89 42 04             	mov    %eax,0x4(%edx)
 806667a:	8b 41 08             	mov    0x8(%ecx),%eax
 806667d:	89 42 08             	mov    %eax,0x8(%edx)
 8066680:	8d 42 0b             	lea    0xb(%edx),%eax
 8066683:	5f                   	pop    %edi
 8066684:	c3                   	ret    
 8066689:	8d bc 27 00 00 00 00 	lea    0x0(%edi,%eiz,1),%edi
 8066690:	66 0f 12 01          	movlpd (%ecx),%xmm0
 8066694:	66 0f 13 02          	movlpd %xmm0,(%edx)
 8066698:	66 0f 12 41 05       	movlpd 0x5(%ecx),%xmm0
 806669d:	66 0f 13 42 05       	movlpd %xmm0,0x5(%edx)
 80666a2:	8d 42 0c             	lea    0xc(%edx),%eax
 80666a5:	5f                   	pop    %edi
 80666a6:	c3                   	ret    
 80666a9:	8d bc 27 00 00 00 00 	lea    0x0(%edi,%eiz,1),%edi
 80666b0:	66 0f 12 01          	movlpd (%ecx),%xmm0
 80666b4:	66 0f 13 02          	movlpd %xmm0,(%edx)
 80666b8:	66 0f 12 41 06       	movlpd 0x6(%ecx),%xmm0
 80666bd:	66 0f 13 42 06       	movlpd %xmm0,0x6(%edx)
 80666c2:	8d 42 0d             	lea    0xd(%edx),%eax
 80666c5:	5f                   	pop    %edi
 80666c6:	c3                   	ret    
 80666c9:	8d bc 27 00 00 00 00 	lea    0x0(%edi,%eiz,1),%edi
 80666d0:	66 0f 12 01          	movlpd (%ecx),%xmm0
 80666d4:	66 0f 13 02          	movlpd %xmm0,(%edx)
 80666d8:	66 0f 12 41 07       	movlpd 0x7(%ecx),%xmm0
 80666dd:	66 0f 13 42 07       	movlpd %xmm0,0x7(%edx)
 80666e2:	8d 42 0e             	lea    0xe(%edx),%eax
 80666e5:	5f                   	pop    %edi
 80666e6:	c3                   	ret    
 80666e5:	5f                   	pop    %edi
 80666e6:	c3                   	ret    
 80666e7:	89 f6                	mov    %esi,%esi
 80666e9:	8d bc 27 00 00 00 00 	lea    0x0(%edi,%eiz,1),%edi
 80666f0:	8a 01                	mov    (%ecx),%al
 80666f2:	88 02                	mov    %al,(%edx)
 80666f4:	89 d0                	mov    %edx,%eax
 80666f6:	c3                   	ret    
 80666f4:	89 d0                	mov    %edx,%eax
 80666f6:	c3                   	ret    
 80666f7:	89 f6                	mov    %esi,%esi
 80666f9:	8d bc 27 00 00 00 00 	lea    0x0(%edi,%eiz,1),%edi
 8066700:	66 8b 01             	mov    (%ecx),%ax
 8066703:	66 89 02             	mov    %ax,(%edx)
 8066706:	8d 42 01             	lea    0x1(%edx),%eax
 8066709:	c3                   	ret    
 8066709:	c3                   	ret    
 806670a:	8d b6 00 00 00 00    	lea    0x0(%esi),%esi
 8066710:	66 8b 01             	mov    (%ecx),%ax
 8066713:	66 89 02             	mov    %ax,(%edx)
 8066716:	8a 41 02             	mov    0x2(%ecx),%al
 8066719:	88 42 02             	mov    %al,0x2(%edx)
 806671c:	8d 42 02             	lea    0x2(%edx),%eax
 806671f:	c3                   	ret    
 8066716:	8a 41 02             	mov    0x2(%ecx),%al
 8066719:	88 42 02             	mov    %al,0x2(%edx)
 806671c:	8d 42 02             	lea    0x2(%edx),%eax
 806671f:	c3                   	ret    
 8066720:	8b 01                	mov    (%ecx),%eax
 8066722:	89 02                	mov    %eax,(%edx)
 8066724:	8d 42 03             	lea    0x3(%edx),%eax
 8066727:	c3                   	ret    
 8066728:	90                   	nop
 8066729:	8d b4 26 00 00 00 00 	lea    0x0(%esi,%eiz,1),%esi
 8066730:	8b 01                	mov    (%ecx),%eax
 8066732:	89 02                	mov    %eax,(%edx)
 8066734:	8a 41 04             	mov    0x4(%ecx),%al
 8066737:	88 42 04             	mov    %al,0x4(%edx)
 806673a:	8d 42 04             	lea    0x4(%edx),%eax
 806673d:	c3                   	ret    
 806673d:	c3                   	ret    
 806673e:	66 90                	xchg   %ax,%ax
 8066740:	8b 01                	mov    (%ecx),%eax
 8066742:	89 02                	mov    %eax,(%edx)
 8066744:	66 8b 41 04          	mov    0x4(%ecx),%ax
 8066748:	66 89 42 04          	mov    %ax,0x4(%edx)
 806674c:	8d 42 05             	lea    0x5(%edx),%eax
 806674f:	c3                   	ret    
 806674c:	8d 42 05             	lea    0x5(%edx),%eax
 806674f:	c3                   	ret    
 8066750:	8b 01                	mov    (%ecx),%eax
 8066752:	89 02                	mov    %eax,(%edx)
 8066754:	8b 41 03             	mov    0x3(%ecx),%eax
 8066757:	89 42 03             	mov    %eax,0x3(%edx)
 806675a:	8d 42 06             	lea    0x6(%edx),%eax
 806675d:	c3                   	ret    
 806675d:	c3                   	ret    
 806675e:	66 90                	xchg   %ax,%ax
 8066760:	8b 01                	mov    (%ecx),%eax
 8066762:	89 02                	mov    %eax,(%edx)
 8066764:	8b 41 04             	mov    0x4(%ecx),%eax
 8066767:	89 42 04             	mov    %eax,0x4(%edx)
 806676a:	8d 42 07             	lea    0x7(%edx),%eax
 806676d:	c3                   	ret    
 8066770:	8b 01                	mov    (%ecx),%eax
 8066772:	89 02                	mov    %eax,(%edx)
 8066774:	8b 41 04             	mov    0x4(%ecx),%eax
 8066777:	89 42 04             	mov    %eax,0x4(%edx)
 806677a:	8a 41 08             	mov    0x8(%ecx),%al
 806677d:	88 42 08             	mov    %al,0x8(%edx)
 8066780:	8d 42 08             	lea    0x8(%edx),%eax
 8066783:	c3                   	ret    
 8066790:	8b 01                	mov    (%ecx),%eax
 8066792:	89 02                	mov    %eax,(%edx)
 8066794:	8b 41 04             	mov    0x4(%ecx),%eax
 8066797:	89 42 04             	mov    %eax,0x4(%edx)
 806679a:	66 8b 41 08          	mov    0x8(%ecx),%ax
 806679e:	66 89 42 08          	mov    %ax,0x8(%edx)
 80667a2:	8d 42 09             	lea    0x9(%edx),%eax
 80667a5:	c3                   	ret    
 80667b0:	8b 01                	mov    (%ecx),%eax
 80667b2:	89 02                	mov    %eax,(%edx)
 80667b4:	8b 41 04             	mov    0x4(%ecx),%eax
 80667b7:	89 42 04             	mov    %eax,0x4(%edx)
 80667ba:	8b 41 07             	mov    0x7(%ecx),%eax
 80667bd:	89 42 07             	mov    %eax,0x7(%edx)
 80667c0:	8d 42 0a             	lea    0xa(%edx),%eax
 80667c3:	c3                   	ret    
 80667d0:	8b 01                	mov    (%ecx),%eax
 80667d2:	89 02                	mov    %eax,(%edx)
 80667d4:	8b 41 04             	mov    0x4(%ecx),%eax
 80667d7:	89 42 04             	mov    %eax,0x4(%edx)
 80667da:	8b 41 08             	mov    0x8(%ecx),%eax
 80667dd:	89 42 08             	mov    %eax,0x8(%edx)
 80667e0:	8d 42 0b             	lea    0xb(%edx),%eax
 80667e3:	c3                   	ret    
 80667e4:	8d b6 00 00 00 00    	lea    0x0(%esi),%esi
 80667ea:	8d bf 00 00 00 00    	lea    0x0(%edi),%edi
 80667f0:	66 0f 12 01          	movlpd (%ecx),%xmm0
 80667f4:	66 0f 13 02          	movlpd %xmm0,(%edx)
 80667f8:	66 0f 12 41 05       	movlpd 0x5(%ecx),%xmm0
 80667fd:	66 0f 13 42 05       	movlpd %xmm0,0x5(%edx)
 8066802:	8d 42 0c             	lea    0xc(%edx),%eax
 8066805:	c3                   	ret    
 8066806:	8d 76 00             	lea    0x0(%esi),%esi
 8066809:	8d bc 27 00 00 00 00 	lea    0x0(%edi,%eiz,1),%edi
 8066810:	66 0f 12 01          	movlpd (%ecx),%xmm0
 8066814:	66 0f 13 02          	movlpd %xmm0,(%edx)
 8066818:	66 0f 12 41 06       	movlpd 0x6(%ecx),%xmm0
 806681d:	66 0f 13 42 06       	movlpd %xmm0,0x6(%edx)
 8066822:	8d 42 0d             	lea    0xd(%edx),%eax
 8066825:	c3                   	ret    
 8066826:	8d 76 00             	lea    0x0(%esi),%esi
 8066829:	8d bc 27 00 00 00 00 	lea    0x0(%edi,%eiz,1),%edi
 8066830:	66 0f 12 01          	movlpd (%ecx),%xmm0
 8066834:	66 0f 13 02          	movlpd %xmm0,(%edx)
 8066838:	66 0f 12 41 07       	movlpd 0x7(%ecx),%xmm0
 806683d:	66 0f 13 42 07       	movlpd %xmm0,0x7(%edx)
 8066842:	8d 42 0e             	lea    0xe(%edx),%eax
 8066845:	c3                   	ret    
 8066846:	8d 76 00             	lea    0x0(%esi),%esi
 8066849:	8d bc 27 00 00 00 00 	lea    0x0(%edi,%eiz,1),%edi
 8066850:	66 0f 12 01          	movlpd (%ecx),%xmm0
 8066854:	66 0f 13 02          	movlpd %xmm0,(%edx)
 8066858:	66 0f 12 41 08       	movlpd 0x8(%ecx),%xmm0
 806685d:	66 0f 13 42 08       	movlpd %xmm0,0x8(%edx)
 8066862:	8d 42 0f             	lea    0xf(%edx),%eax
 8066865:	c3                   	ret    
 80669b6:	0f 85 84 02 00 00    	jne    8066c40 <__strchr_sse2+0x3d0>
 80669bc:	a8 40                	test   $0x40,%al
 80669be:	0f 85 fc 01 00 00    	jne    8066bc0 <__strchr_sse2+0x350>
 80669c4:	f6 c2 40             	test   $0x40,%dl
 80669c7:	0f 85 73 02 00 00    	jne    8066c40 <__strchr_sse2+0x3d0>
 80669cd:	8d 47 07             	lea    0x7(%edi),%eax
 80669d0:	5f                   	pop    %edi
 80669d1:	c3                   	ret    
 80669fc:	0f 85 3e 02 00 00    	jne    8066c40 <__strchr_sse2+0x3d0>
 8066a02:	a8 04                	test   $0x4,%al
 8066a04:	0f 85 76 01 00 00    	jne    8066b80 <__strchr_sse2+0x310>
 8066a0a:	f6 c2 04             	test   $0x4,%dl
 8066a0d:	0f 85 2d 02 00 00    	jne    8066c40 <__strchr_sse2+0x3d0>
 8066a13:	8d 47 03             	lea    0x3(%edi),%eax
 8066a16:	5f                   	pop    %edi
 8066a17:	c3                   	ret    
 8066a58:	0f 85 e2 01 00 00    	jne    8066c40 <__strchr_sse2+0x3d0>
 8066a5e:	f6 c4 40             	test   $0x40,%ah
 8066a61:	0f 85 c9 01 00 00    	jne    8066c30 <__strchr_sse2+0x3c0>
 8066a67:	f6 c6 40             	test   $0x40,%dh
 8066a6a:	0f 85 d0 01 00 00    	jne    8066c40 <__strchr_sse2+0x3d0>
 8066a70:	8d 47 0f             	lea    0xf(%edi),%eax
 8066a73:	5f                   	pop    %edi
 8066a74:	c3                   	ret    
 8066a9e:	0f 85 9c 01 00 00    	jne    8066c40 <__strchr_sse2+0x3d0>
 8066aa4:	f6 c4 04             	test   $0x4,%ah
 8066aa7:	0f 85 43 01 00 00    	jne    8066bf0 <__strchr_sse2+0x380>
 8066aad:	f6 c6 04             	test   $0x4,%dh
 8066ab0:	0f 85 8a 01 00 00    	jne    8066c40 <__strchr_sse2+0x3d0>
 8066ab6:	8d 47 0b             	lea    0xb(%edi),%eax
 8066ab9:	5f                   	pop    %edi
 8066aba:	c3                   	ret    
 8066ae6:	0f 85 b4 00 00 00    	jne    8066ba0 <__strchr_sse2+0x330>
 8066aec:	a8 20                	test   $0x20,%al
 8066aee:	0f 85 bc 00 00 00    	jne    8066bb0 <__strchr_sse2+0x340>
 8066af4:	a8 40                	test   $0x40,%al
 8066af6:	0f 85 c4 00 00 00    	jne    8066bc0 <__strchr_sse2+0x350>
 8066afc:	8d 47 07             	lea    0x7(%edi),%eax
 8066aff:	5f                   	pop    %edi
 8066b00:	c3                   	ret    
 8066b37:	0f 85 d3 00 00 00    	jne    8066c10 <__strchr_sse2+0x3a0>
 8066b3d:	f6 c4 20             	test   $0x20,%ah
 8066b40:	0f 85 da 00 00 00    	jne    8066c20 <__strchr_sse2+0x3b0>
 8066b46:	f6 c4 40             	test   $0x40,%ah
 8066b49:	0f 85 e1 00 00 00    	jne    8066c30 <__strchr_sse2+0x3c0>
 8066b4f:	8d 47 0f             	lea    0xf(%edi),%eax
 8066b52:	5f                   	pop    %edi
 8066b53:	c3                   	ret    
 8066b4f:	8d 47 0f             	lea    0xf(%edi),%eax
 8066b52:	5f                   	pop    %edi
 8066b53:	c3                   	ret    
 8066b54:	8d b6 00 00 00 00    	lea    0x0(%esi),%esi
 8066b5a:	8d bf 00 00 00 00    	lea    0x0(%edi),%edi
 8066b60:	8d 07                	lea    (%edi),%eax
 8066b62:	5f                   	pop    %edi
 8066b63:	c3                   	ret    
 8066b60:	8d 07                	lea    (%edi),%eax
 8066b62:	5f                   	pop    %edi
 8066b63:	c3                   	ret    
 8066b64:	8d b6 00 00 00 00    	lea    0x0(%esi),%esi
 8066b6a:	8d bf 00 00 00 00    	lea    0x0(%edi),%edi
 8066b70:	8d 47 01             	lea    0x1(%edi),%eax
 8066b73:	5f                   	pop    %edi
 8066b74:	c3                   	ret    
 8066b70:	8d 47 01             	lea    0x1(%edi),%eax
 8066b73:	5f                   	pop    %edi
 8066b74:	c3                   	ret    
 8066b75:	8d 74 26 00          	lea    0x0(%esi,%eiz,1),%esi
 8066b79:	8d bc 27 00 00 00 00 	lea    0x0(%edi,%eiz,1),%edi
 8066b80:	8d 47 02             	lea    0x2(%edi),%eax
 8066b83:	5f                   	pop    %edi
 8066b84:	c3                   	ret    
 8066b80:	8d 47 02             	lea    0x2(%edi),%eax
 8066b83:	5f                   	pop    %edi
 8066b84:	c3                   	ret    
 8066b85:	8d 74 26 00          	lea    0x0(%esi,%eiz,1),%esi
 8066b89:	8d bc 27 00 00 00 00 	lea    0x0(%edi,%eiz,1),%edi
 8066b90:	8d 47 03             	lea    0x3(%edi),%eax
 8066b93:	5f                   	pop    %edi
 8066b94:	c3                   	ret    
 8066b90:	8d 47 03             	lea    0x3(%edi),%eax
 8066b93:	5f                   	pop    %edi
 8066b94:	c3                   	ret    
 8066b95:	8d 74 26 00          	lea    0x0(%esi,%eiz,1),%esi
 8066b99:	8d bc 27 00 00 00 00 	lea    0x0(%edi,%eiz,1),%edi
 8066ba0:	8d 47 04             	lea    0x4(%edi),%eax
 8066ba3:	5f                   	pop    %edi
 8066ba4:	c3                   	ret    
 8066ba0:	8d 47 04             	lea    0x4(%edi),%eax
 8066ba3:	5f                   	pop    %edi
 8066ba4:	c3                   	ret    
 8066ba5:	8d 74 26 00          	lea    0x0(%esi,%eiz,1),%esi
 8066ba9:	8d bc 27 00 00 00 00 	lea    0x0(%edi,%eiz,1),%edi
 8066bb0:	8d 47 05             	lea    0x5(%edi),%eax
 8066bb3:	5f                   	pop    %edi
 8066bb4:	c3                   	ret    
 8066bb0:	8d 47 05             	lea    0x5(%edi),%eax
 8066bb3:	5f                   	pop    %edi
 8066bb4:	c3                   	ret    
 8066bb5:	8d 74 26 00          	lea    0x0(%esi,%eiz,1),%esi
 8066bb9:	8d bc 27 00 00 00 00 	lea    0x0(%edi,%eiz,1),%edi
 8066bc0:	8d 47 06             	lea    0x6(%edi),%eax
 8066bc3:	5f                   	pop    %edi
 8066bc4:	c3                   	ret    
 8066bc0:	8d 47 06             	lea    0x6(%edi),%eax
 8066bc3:	5f                   	pop    %edi
 8066bc4:	c3                   	ret    
 8066bc5:	8d 74 26 00          	lea    0x0(%esi,%eiz,1),%esi
 8066bc9:	8d bc 27 00 00 00 00 	lea    0x0(%edi,%eiz,1),%edi
 8066bd0:	8d 47 08             	lea    0x8(%edi),%eax
 8066bd3:	5f                   	pop    %edi
 8066bd4:	c3                   	ret    
 8066bd0:	8d 47 08             	lea    0x8(%edi),%eax
 8066bd3:	5f                   	pop    %edi
 8066bd4:	c3                   	ret    
 8066bd5:	8d 74 26 00          	lea    0x0(%esi,%eiz,1),%esi
 8066bd9:	8d bc 27 00 00 00 00 	lea    0x0(%edi,%eiz,1),%edi
 8066be0:	8d 47 09             	lea    0x9(%edi),%eax
 8066be3:	5f                   	pop    %edi
 8066be4:	c3                   	ret    
 8066be0:	8d 47 09             	lea    0x9(%edi),%eax
 8066be3:	5f                   	pop    %edi
 8066be4:	c3                   	ret    
 8066be5:	8d 74 26 00          	lea    0x0(%esi,%eiz,1),%esi
 8066be9:	8d bc 27 00 00 00 00 	lea    0x0(%edi,%eiz,1),%edi
 8066bf0:	8d 47 0a             	lea    0xa(%edi),%eax
 8066bf3:	5f                   	pop    %edi
 8066bf4:	c3                   	ret    
 8066bf0:	8d 47 0a             	lea    0xa(%edi),%eax
 8066bf3:	5f                   	pop    %edi
 8066bf4:	c3                   	ret    
 8066bf5:	8d 74 26 00          	lea    0x0(%esi,%eiz,1),%esi
 8066bf9:	8d bc 27 00 00 00 00 	lea    0x0(%edi,%eiz,1),%edi
 8066c00:	8d 47 0b             	lea    0xb(%edi),%eax
 8066c03:	5f                   	pop    %edi
 8066c04:	c3                   	ret    
 8066c00:	8d 47 0b             	lea    0xb(%edi),%eax
 8066c03:	5f                   	pop    %edi
 8066c04:	c3                   	ret    
 8066c05:	8d 74 26 00          	lea    0x0(%esi,%eiz,1),%esi
 8066c09:	8d bc 27 00 00 00 00 	lea    0x0(%edi,%eiz,1),%edi
 8066c10:	8d 47 0c             	lea    0xc(%edi),%eax
 8066c13:	5f                   	pop    %edi
 8066c14:	c3                   	ret    
 8066c10:	8d 47 0c             	lea    0xc(%edi),%eax
 8066c13:	5f                   	pop    %edi
 8066c14:	c3                   	ret    
 8066c15:	8d 74 26 00          	lea    0x0(%esi,%eiz,1),%esi
 8066c19:	8d bc 27 00 00 00 00 	lea    0x0(%edi,%eiz,1),%edi
 8066c20:	8d 47 0d             	lea    0xd(%edi),%eax
 8066c23:	5f                   	pop    %edi
 8066c24:	c3                   	ret    
 8066c20:	8d 47 0d             	lea    0xd(%edi),%eax
 8066c23:	5f                   	pop    %edi
 8066c24:	c3                   	ret    
 8066c25:	8d 74 26 00          	lea    0x0(%esi,%eiz,1),%esi
 8066c29:	8d bc 27 00 00 00 00 	lea    0x0(%edi,%eiz,1),%edi
 8066c30:	8d 47 0e             	lea    0xe(%edi),%eax
 8066c33:	5f                   	pop    %edi
 8066c34:	c3                   	ret    
 8066c30:	8d 47 0e             	lea    0xe(%edi),%eax
 8066c33:	5f                   	pop    %edi
 8066c34:	c3                   	ret    
 8066c35:	8d 74 26 00          	lea    0x0(%esi,%eiz,1),%esi
 8066c39:	8d bc 27 00 00 00 00 	lea    0x0(%edi,%eiz,1),%edi
 8066c40:	31 c0                	xor    %eax,%eax
 8066c42:	5f                   	pop    %edi
 8066c43:	c3                   	ret    
 8066c97:	74 0b                	je     8066ca4 <__strchr_sse2_bsf+0x54>
 8066c99:	0f bc d2             	bsf    %edx,%edx
 8066c9c:	39 d0                	cmp    %edx,%eax
 8066c9e:	0f 87 ac 00 00 00    	ja     8066d50 <__strchr_sse2_bsf+0x100>
 8066ca4:	01 f8                	add    %edi,%eax
 8066ca6:	01 c8                	add    %ecx,%eax
 8066ca8:	5f                   	pop    %edi
 8066ca9:	c3                   	ret    
 8066d3b:	74 07                	je     8066d44 <__strchr_sse2_bsf+0xf4>
 8066d3d:	0f bc ca             	bsf    %edx,%ecx
 8066d40:	39 c8                	cmp    %ecx,%eax
 8066d42:	77 0c                	ja     8066d50 <__strchr_sse2_bsf+0x100>
 8066d44:	83 ef 10             	sub    $0x10,%edi
 8066d47:	01 f8                	add    %edi,%eax
 8066d49:	5f                   	pop    %edi
 8066d4a:	c3                   	ret    
 8066d47:	01 f8                	add    %edi,%eax
 8066d49:	5f                   	pop    %edi
 8066d4a:	c3                   	ret    
 8066d4b:	90                   	nop
 8066d4c:	8d 74 26 00          	lea    0x0(%esi,%eiz,1),%esi
 8066d50:	31 c0                	xor    %eax,%eax
 8066d52:	5f                   	pop    %edi
 8066d53:	c3                   	ret    
 8066f1d:	a8 01                	test   $0x1,%al
 8066f1f:	0f 85 8b 00 00 00    	jne    8066fb0 <__rawmemchr_sse2+0x250>
 8066f25:	a8 02                	test   $0x2,%al
 8066f27:	0f 85 93 00 00 00    	jne    8066fc0 <__rawmemchr_sse2+0x260>
 8066f2d:	a8 04                	test   $0x4,%al
 8066f2f:	0f 85 9b 00 00 00    	jne    8066fd0 <__rawmemchr_sse2+0x270>
 8066f35:	8d 42 03             	lea    0x3(%edx),%eax
 8066f38:	c3                   	ret    
 8066f40:	a8 10                	test   $0x10,%al
 8066f42:	0f 85 98 00 00 00    	jne    8066fe0 <__rawmemchr_sse2+0x280>
 8066f48:	a8 20                	test   $0x20,%al
 8066f4a:	0f 85 a0 00 00 00    	jne    8066ff0 <__rawmemchr_sse2+0x290>
 8066f50:	a8 40                	test   $0x40,%al
 8066f52:	0f 85 a8 00 00 00    	jne    8067000 <__rawmemchr_sse2+0x2a0>
 8066f58:	8d 42 07             	lea    0x7(%edx),%eax
 8066f5b:	c3                   	ret    
 8066f67:	f6 c4 01             	test   $0x1,%ah
 8066f6a:	0f 85 a0 00 00 00    	jne    8067010 <__rawmemchr_sse2+0x2b0>
 8066f70:	f6 c4 02             	test   $0x2,%ah
 8066f73:	0f 85 a7 00 00 00    	jne    8067020 <__rawmemchr_sse2+0x2c0>
 8066f79:	f6 c4 04             	test   $0x4,%ah
 8066f7c:	0f 85 ae 00 00 00    	jne    8067030 <__rawmemchr_sse2+0x2d0>
 8066f82:	8d 42 0b             	lea    0xb(%edx),%eax
 8066f85:	c3                   	ret    
 8066f90:	f6 c4 10             	test   $0x10,%ah
 8066f93:	0f 85 a7 00 00 00    	jne    8067040 <__rawmemchr_sse2+0x2e0>
 8066f99:	f6 c4 20             	test   $0x20,%ah
 8066f9c:	0f 85 ae 00 00 00    	jne    8067050 <__rawmemchr_sse2+0x2f0>
 8066fa2:	f6 c4 40             	test   $0x40,%ah
 8066fa5:	0f 85 b5 00 00 00    	jne    8067060 <__rawmemchr_sse2+0x300>
 8066fab:	8d 42 0f             	lea    0xf(%edx),%eax
 8066fae:	c3                   	ret    
 8066f9c:	0f 85 ae 00 00 00    	jne    8067050 <__rawmemchr_sse2+0x2f0>
 8066fa2:	f6 c4 40             	test   $0x40,%ah
 8066fa5:	0f 85 b5 00 00 00    	jne    8067060 <__rawmemchr_sse2+0x300>
 8066fab:	8d 42 0f             	lea    0xf(%edx),%eax
 8066fae:	c3                   	ret    
 8066faf:	90                   	nop
 8066fb0:	89 d0                	mov    %edx,%eax
 8066fb2:	c3                   	ret    
 8066fae:	c3                   	ret    
 8066faf:	90                   	nop
 8066fb0:	89 d0                	mov    %edx,%eax
 8066fb2:	c3                   	ret    
 8066fb3:	8d b6 00 00 00 00    	lea    0x0(%esi),%esi
 8066fb9:	8d bc 27 00 00 00 00 	lea    0x0(%edi,%eiz,1),%edi
 8066fc0:	8d 42 01             	lea    0x1(%edx),%eax
 8066fc3:	c3                   	ret    
 8066fb3:	8d b6 00 00 00 00    	lea    0x0(%esi),%esi
 8066fb9:	8d bc 27 00 00 00 00 	lea    0x0(%edi,%eiz,1),%edi
 8066fc0:	8d 42 01             	lea    0x1(%edx),%eax
 8066fc3:	c3                   	ret    
 8066fc4:	8d b6 00 00 00 00    	lea    0x0(%esi),%esi
 8066fca:	8d bf 00 00 00 00    	lea    0x0(%edi),%edi
 8066fd0:	8d 42 02             	lea    0x2(%edx),%eax
 8066fd3:	c3                   	ret    
 8066fc4:	8d b6 00 00 00 00    	lea    0x0(%esi),%esi
 8066fca:	8d bf 00 00 00 00    	lea    0x0(%edi),%edi
 8066fd0:	8d 42 02             	lea    0x2(%edx),%eax
 8066fd3:	c3                   	ret    
 8066fd4:	8d b6 00 00 00 00    	lea    0x0(%esi),%esi
 8066fda:	8d bf 00 00 00 00    	lea    0x0(%edi),%edi
 8066fe0:	8d 42 04             	lea    0x4(%edx),%eax
 8066fe3:	c3                   	ret    
 8066fd4:	8d b6 00 00 00 00    	lea    0x0(%esi),%esi
 8066fda:	8d bf 00 00 00 00    	lea    0x0(%edi),%edi
 8066fe0:	8d 42 04             	lea    0x4(%edx),%eax
 8066fe3:	c3                   	ret    
 8066fe4:	8d b6 00 00 00 00    	lea    0x0(%esi),%esi
 8066fea:	8d bf 00 00 00 00    	lea    0x0(%edi),%edi
 8066ff0:	8d 42 05             	lea    0x5(%edx),%eax
 8066ff3:	c3                   	ret    
 8066fe4:	8d b6 00 00 00 00    	lea    0x0(%esi),%esi
 8066fea:	8d bf 00 00 00 00    	lea    0x0(%edi),%edi
 8066ff0:	8d 42 05             	lea    0x5(%edx),%eax
 8066ff3:	c3                   	ret    
 8066ff4:	8d b6 00 00 00 00    	lea    0x0(%esi),%esi
 8066ffa:	8d bf 00 00 00 00    	lea    0x0(%edi),%edi
 8067000:	8d 42 06             	lea    0x6(%edx),%eax
 8067003:	c3                   	ret    
 8066ff4:	8d b6 00 00 00 00    	lea    0x0(%esi),%esi
 8066ffa:	8d bf 00 00 00 00    	lea    0x0(%edi),%edi
 8067000:	8d 42 06             	lea    0x6(%edx),%eax
 8067003:	c3                   	ret    
 8067004:	8d b6 00 00 00 00    	lea    0x0(%esi),%esi
 806700a:	8d bf 00 00 00 00    	lea    0x0(%edi),%edi
 8067010:	8d 42 08             	lea    0x8(%edx),%eax
 8067013:	c3                   	ret    
 8067004:	8d b6 00 00 00 00    	lea    0x0(%esi),%esi
 806700a:	8d bf 00 00 00 00    	lea    0x0(%edi),%edi
 8067010:	8d 42 08             	lea    0x8(%edx),%eax
 8067013:	c3                   	ret    
 8067014:	8d b6 00 00 00 00    	lea    0x0(%esi),%esi
 806701a:	8d bf 00 00 00 00    	lea    0x0(%edi),%edi
 8067020:	8d 42 09             	lea    0x9(%edx),%eax
 8067023:	c3                   	ret    
 8067014:	8d b6 00 00 00 00    	lea    0x0(%esi),%esi
 806701a:	8d bf 00 00 00 00    	lea    0x0(%edi),%edi
 8067020:	8d 42 09             	lea    0x9(%edx),%eax
 8067023:	c3                   	ret    
 8067024:	8d b6 00 00 00 00    	lea    0x0(%esi),%esi
 806702a:	8d bf 00 00 00 00    	lea    0x0(%edi),%edi
 8067030:	8d 42 0a             	lea    0xa(%edx),%eax
 8067033:	c3                   	ret    
 8067024:	8d b6 00 00 00 00    	lea    0x0(%esi),%esi
 806702a:	8d bf 00 00 00 00    	lea    0x0(%edi),%edi
 8067030:	8d 42 0a             	lea    0xa(%edx),%eax
 8067033:	c3                   	ret    
 8067034:	8d b6 00 00 00 00    	lea    0x0(%esi),%esi
 806703a:	8d bf 00 00 00 00    	lea    0x0(%edi),%edi
 8067040:	8d 42 0c             	lea    0xc(%edx),%eax
 8067043:	c3                   	ret    
 8067034:	8d b6 00 00 00 00    	lea    0x0(%esi),%esi
 806703a:	8d bf 00 00 00 00    	lea    0x0(%edi),%edi
 8067040:	8d 42 0c             	lea    0xc(%edx),%eax
 8067043:	c3                   	ret    
 8067044:	8d b6 00 00 00 00    	lea    0x0(%esi),%esi
 806704a:	8d bf 00 00 00 00    	lea    0x0(%edi),%edi
 8067050:	8d 42 0d             	lea    0xd(%edx),%eax
 8067053:	c3                   	ret    
 8067044:	8d b6 00 00 00 00    	lea    0x0(%esi),%esi
 806704a:	8d bf 00 00 00 00    	lea    0x0(%edi),%edi
 8067050:	8d 42 0d             	lea    0xd(%edx),%eax
 8067053:	c3                   	ret    
 8067054:	8d b6 00 00 00 00    	lea    0x0(%esi),%esi
 806705a:	8d bf 00 00 00 00    	lea    0x0(%edi),%edi
 8067060:	8d 42 0e             	lea    0xe(%edx),%eax
 8067063:	c3                   	ret    
 8067054:	8d b6 00 00 00 00    	lea    0x0(%esi),%esi
 806705a:	8d bf 00 00 00 00    	lea    0x0(%edi),%edi
 8067060:	8d 42 0e             	lea    0xe(%edx),%eax
 8067063:	c3                   	ret    
 8067064:	8d b6 00 00 00 00    	lea    0x0(%esi),%esi
 806706a:	8d bf 00 00 00 00    	lea    0x0(%edi),%edi
 8067070:	31 c0                	xor    %eax,%eax
 8067072:	c3                   	ret    
 80670a1:	f3 0f 6f 00          	movdqu (%eax),%xmm0
 80670a5:	66 0f 74 c1          	pcmpeqb %xmm1,%xmm0
 80670a9:	66 0f d7 c8          	pmovmskb %xmm0,%ecx
 80670ad:	85 c9                	test   %ecx,%ecx
 80670af:	74 0f                	je     80670c0 <__rawmemchr_sse2_bsf+0x40>
 80670b1:	0f bc c9             	bsf    %ecx,%ecx
 80670b4:	01 c8                	add    %ecx,%eax
 80670b6:	c3                   	ret    
 80670b9:	8d bc 27 00 00 00 00 	lea    0x0(%edi,%eiz,1),%edi
 80670c0:	8d 50 10             	lea    0x10(%eax),%edx
 80670c3:	83 e2 f0             	and    $0xfffffff0,%edx
 80670c6:	eb 58                	jmp    8067120 <__rawmemchr_sse2_bsf+0xa0>
 80670c8:	90                   	nop
 80670c9:	8d b4 26 00 00 00 00 	lea    0x0(%esi,%eiz,1),%esi
 80670d0:	31 c0                	xor    %eax,%eax
 80670d2:	c3                   	ret    
 80670f0:	66 0f d7 c0          	pmovmskb %xmm0,%eax
 80670f4:	d3 f8                	sar    %cl,%eax
 80670f6:	85 c0                	test   %eax,%eax
 80670f8:	74 16                	je     8067110 <__rawmemchr_sse2_bsf+0x90>
 80670fa:	0f bc c0             	bsf    %eax,%eax
 80670fd:	01 d0                	add    %edx,%eax
 80670ff:	01 c8                	add    %ecx,%eax
 8067101:	c3                   	ret    
 8067236:	66 0f 74 4a 30       	pcmpeqb 0x30(%edx),%xmm1
 806723b:	66 0f d7 c3          	pmovmskb %xmm3,%eax
 806723f:	85 c0                	test   %eax,%eax
 8067241:	75 3d                	jne    8067280 <__rawmemchr_sse2_bsf+0x200>
 8067243:	66 0f d7 c1          	pmovmskb %xmm1,%eax
 8067247:	0f bc c0             	bsf    %eax,%eax
 806724a:	8d 44 02 30          	lea    0x30(%edx,%eax,1),%eax
 806724e:	c3                   	ret    
 8067243:	66 0f d7 c1          	pmovmskb %xmm1,%eax
 8067247:	0f bc c0             	bsf    %eax,%eax
 806724a:	8d 44 02 30          	lea    0x30(%edx,%eax,1),%eax
 806724e:	c3                   	ret    
 806724f:	90                   	nop
 8067250:	0f bc c0             	bsf    %eax,%eax
 8067253:	8d 44 10 f0          	lea    -0x10(%eax,%edx,1),%eax
 8067257:	c3                   	ret    
 8067250:	0f bc c0             	bsf    %eax,%eax
 8067253:	8d 44 10 f0          	lea    -0x10(%eax,%edx,1),%eax
 8067257:	c3                   	ret    
 8067258:	90                   	nop
 8067259:	8d b4 26 00 00 00 00 	lea    0x0(%esi,%eiz,1),%esi
 8067260:	0f bc c0             	bsf    %eax,%eax
 8067263:	01 d0                	add    %edx,%eax
 8067265:	c3                   	ret    
 8067260:	0f bc c0             	bsf    %eax,%eax
 8067263:	01 d0                	add    %edx,%eax
 8067265:	c3                   	ret    
 8067266:	8d 76 00             	lea    0x0(%esi),%esi
 8067269:	8d bc 27 00 00 00 00 	lea    0x0(%edi,%eiz,1),%edi
 8067270:	0f bc c0             	bsf    %eax,%eax
 8067273:	8d 44 10 10          	lea    0x10(%eax,%edx,1),%eax
 8067277:	c3                   	ret    
 8067270:	0f bc c0             	bsf    %eax,%eax
 8067273:	8d 44 10 10          	lea    0x10(%eax,%edx,1),%eax
 8067277:	c3                   	ret    
 8067278:	90                   	nop
 8067279:	8d b4 26 00 00 00 00 	lea    0x0(%esi,%eiz,1),%esi
 8067280:	0f bc c0             	bsf    %eax,%eax
 8067283:	8d 44 10 20          	lea    0x20(%eax,%edx,1),%eax
 8067287:	c3                   	ret    
 8067279:	8d b4 26 00 00 00 00 	lea    0x0(%esi,%eiz,1),%esi
 8067280:	0f bc c0             	bsf    %eax,%eax
 8067283:	8d 44 10 20          	lea    0x20(%eax,%edx,1),%eax
 8067287:	c3                   	ret    
 8067288:	90                   	nop
 8067289:	8d b4 26 00 00 00 00 	lea    0x0(%esi,%eiz,1),%esi
 8067290:	31 c0                	xor    %eax,%eax
 8067292:	c3                   	ret    
 80672db:	2b 04 b3             	sub    (%ebx,%esi,4),%eax
 80672de:	89 c6                	mov    %eax,%esi
 80672e0:	74 de                	je     80672c0 <__GI___strcasecmp_l+0x20>
 80672e2:	89 f0                	mov    %esi,%eax
 80672e4:	5b                   	pop    %ebx
 80672e5:	5e                   	pop    %esi
 80672e6:	5f                   	pop    %edi
 80672e7:	c3                   	ret    
 8069680:	0f 85 da 00 00 00    	jne    8069760 <__strcasecmp_l_ssse3+0x2440>
 8069686:	0f b6 48 07          	movzbl 0x7(%eax),%ecx
 806968a:	0f b6 42 07          	movzbl 0x7(%edx),%eax
 806968e:	8b 8c 8b 80 7d fd ff 	mov    -0x28280(%ebx,%ecx,4),%ecx
 8069695:	8b 84 83 80 7d fd ff 	mov    -0x28280(%ebx,%eax,4),%eax
 806969c:	29 c8                	sub    %ecx,%eax
 806969e:	5b                   	pop    %ebx
 806969f:	c3                   	ret    
 806969f:	c3                   	ret    
 80696a0:	0f b6 08             	movzbl (%eax),%ecx
 80696a3:	0f b6 02             	movzbl (%edx),%eax
 80696a6:	8b 8c 8b 80 7d fd ff 	mov    -0x28280(%ebx,%ecx,4),%ecx
 80696ad:	8b 84 83 80 7d fd ff 	mov    -0x28280(%ebx,%eax,4),%eax
 80696b4:	29 c8                	sub    %ecx,%eax
 80696b6:	5b                   	pop    %ebx
 80696b7:	c3                   	ret    
 80696b9:	8d b4 26 00 00 00 00 	lea    0x0(%esi,%eiz,1),%esi
 80696c0:	0f b6 48 01          	movzbl 0x1(%eax),%ecx
 80696c4:	0f b6 42 01          	movzbl 0x1(%edx),%eax
 80696c8:	8b 8c 8b 80 7d fd ff 	mov    -0x28280(%ebx,%ecx,4),%ecx
 80696cf:	8b 84 83 80 7d fd ff 	mov    -0x28280(%ebx,%eax,4),%eax
 80696d6:	29 c8                	sub    %ecx,%eax
 80696d8:	5b                   	pop    %ebx
 80696d9:	c3                   	ret    
 80696da:	8d b6 00 00 00 00    	lea    0x0(%esi),%esi
 80696e0:	0f b6 48 02          	movzbl 0x2(%eax),%ecx
 80696e4:	0f b6 42 02          	movzbl 0x2(%edx),%eax
 80696e8:	8b 8c 8b 80 7d fd ff 	mov    -0x28280(%ebx,%ecx,4),%ecx
 80696ef:	8b 84 83 80 7d fd ff 	mov    -0x28280(%ebx,%eax,4),%eax
 80696f6:	29 c8                	sub    %ecx,%eax
 80696f8:	5b                   	pop    %ebx
 80696f9:	c3                   	ret    
 80696fa:	8d b6 00 00 00 00    	lea    0x0(%esi),%esi
 8069700:	0f b6 48 03          	movzbl 0x3(%eax),%ecx
 8069704:	0f b6 42 03          	movzbl 0x3(%edx),%eax
 8069708:	8b 8c 8b 80 7d fd ff 	mov    -0x28280(%ebx,%ecx,4),%ecx
 806970f:	8b 84 83 80 7d fd ff 	mov    -0x28280(%ebx,%eax,4),%eax
 8069716:	29 c8                	sub    %ecx,%eax
 8069718:	5b                   	pop    %ebx
 8069719:	c3                   	ret    
 806971a:	8d b6 00 00 00 00    	lea    0x0(%esi),%esi
 8069720:	0f b6 48 04          	movzbl 0x4(%eax),%ecx
 8069724:	0f b6 42 04          	movzbl 0x4(%edx),%eax
 8069728:	8b 8c 8b 80 7d fd ff 	mov    -0x28280(%ebx,%ecx,4),%ecx
 806972f:	8b 84 83 80 7d fd ff 	mov    -0x28280(%ebx,%eax,4),%eax
 8069736:	29 c8                	sub    %ecx,%eax
 8069738:	5b                   	pop    %ebx
 8069739:	c3                   	ret    
 806973a:	8d b6 00 00 00 00    	lea    0x0(%esi),%esi
 8069740:	0f b6 48 05          	movzbl 0x5(%eax),%ecx
 8069744:	0f b6 42 05          	movzbl 0x5(%edx),%eax
 8069748:	8b 8c 8b 80 7d fd ff 	mov    -0x28280(%ebx,%ecx,4),%ecx
 806974f:	8b 84 83 80 7d fd ff 	mov    -0x28280(%ebx,%eax,4),%eax
 8069756:	29 c8                	sub    %ecx,%eax
 8069758:	5b                   	pop    %ebx
 8069759:	c3                   	ret    
 806975a:	8d b6 00 00 00 00    	lea    0x0(%esi),%esi
 8069760:	0f b6 48 06          	movzbl 0x6(%eax),%ecx
 8069764:	0f b6 42 06          	movzbl 0x6(%edx),%eax
 8069768:	8b 8c 8b 80 7d fd ff 	mov    -0x28280(%ebx,%ecx,4),%ecx
 806976f:	8b 84 83 80 7d fd ff 	mov    -0x28280(%ebx,%eax,4),%eax
 8069776:	29 c8                	sub    %ecx,%eax
 8069778:	5b                   	pop    %ebx
 8069779:	c3                   	ret    
 80697bb:	75 a3                	jne    8069760 <__strcasecmp_l_ssse3+0x2440>
 80697bd:	0f b6 48 07          	movzbl 0x7(%eax),%ecx
 80697c1:	0f b6 42 07          	movzbl 0x7(%edx),%eax
 80697c5:	8b 8c 8b 80 7d fd ff 	mov    -0x28280(%ebx,%ecx,4),%ecx
 80697cc:	8b 84 83 80 7d fd ff 	mov    -0x28280(%ebx,%eax,4),%eax
 80697d3:	29 c8                	sub    %ecx,%eax
 80697d5:	5b                   	pop    %ebx
 80697d6:	c3                   	ret    
 80697d7:	89 f6                	mov    %esi,%esi
 80697d9:	8d bc 27 00 00 00 00 	lea    0x0(%edi,%eiz,1),%edi
 80697e0:	b8 01 00 00 00       	mov    $0x1,%eax
 80697e5:	77 02                	ja     80697e9 <__strcasecmp_l_ssse3+0x24c9>
 80697e7:	f7 d8                	neg    %eax
 80697e9:	83 c4 04             	add    $0x4,%esp
 80697ec:	5b                   	pop    %ebx
 80697ed:	c3                   	ret    
 80697e5:	77 02                	ja     80697e9 <__strcasecmp_l_ssse3+0x24c9>
 80697e7:	f7 d8                	neg    %eax
 80697e9:	83 c4 04             	add    $0x4,%esp
 80697ec:	5b                   	pop    %ebx
 80697ed:	c3                   	ret    
 80697ee:	5b                   	pop    %ebx
 80697ef:	31 c0                	xor    %eax,%eax
 80697f1:	c3                   	ret    
 8069b29:	0f b6 0c 0e          	movzbl (%esi,%ecx,1),%ecx
 8069b2d:	8b 84 83 80 7d fd ff 	mov    -0x28280(%ebx,%eax,4),%eax
 8069b34:	8b 8c 8b 80 7d fd ff 	mov    -0x28280(%ebx,%ecx,4),%ecx
 8069b3b:	29 c8                	sub    %ecx,%eax
 8069b3d:	5e                   	pop    %esi
 8069b3e:	5f                   	pop    %edi
 8069b3f:	5b                   	pop    %ebx
 8069b40:	c3                   	ret    
 8069b4c:	90                   	nop
 8069b4d:	90                   	nop
 8069b4e:	90                   	nop
 8069b4f:	90                   	nop
 8069b50:	31 c0                	xor    %eax,%eax
 8069b52:	5f                   	pop    %edi
 8069b53:	5b                   	pop    %ebx
 8069b54:	c3                   	ret    
 8069b55:	8d 74 26 00          	lea    0x0(%esi,%eiz,1),%esi
 8069b59:	8d bc 27 00 00 00 00 	lea    0x0(%edi,%eiz,1),%edi
 8069b60:	b8 01 00 00 00       	mov    $0x1,%eax
 8069b65:	77 02                	ja     8069b69 <__strcasecmp_l_sse4_2+0x339>
 8069b67:	f7 d8                	neg    %eax
 8069b69:	5f                   	pop    %edi
 8069b6a:	5b                   	pop    %ebx
 8069b6b:	c3                   	ret    
 8069d93:	7e 42                	jle    8069dd7 <__strcspn_sse42+0xd7>
 8069d95:	83 c4 0c             	add    $0xc,%esp
 8069d98:	89 c8                	mov    %ecx,%eax
 8069d9a:	5b                   	pop    %ebx
 8069d9b:	5e                   	pop    %esi
 8069d9c:	5f                   	pop    %edi
 8069d9d:	5d                   	pop    %ebp
 8069d9e:	c3                   	ret    
 8069df7:	83 c4 0c             	add    $0xc,%esp
 8069dfa:	89 c8                	mov    %ecx,%eax
 8069dfc:	5b                   	pop    %ebx
 8069dfd:	29 f0                	sub    %esi,%eax
 8069dff:	5e                   	pop    %esi
 8069e00:	5f                   	pop    %edi
 8069e01:	5d                   	pop    %ebp
 8069e02:	c3                   	ret    
 8069e0c:	e8 9f 08 00 00       	call   806a6b0 <strlen>
 8069e11:	83 c4 10             	add    $0x10,%esp
 8069e14:	83 c4 0c             	add    $0xc,%esp
 8069e17:	5b                   	pop    %ebx
 8069e18:	5e                   	pop    %esi
 8069e19:	5f                   	pop    %edi
 8069e1a:	5d                   	pop    %ebp
 8069e1b:	c3                   	ret    
 8069f06:	84 ed                	test   %ch,%ch
 8069f08:	74 0a                	je     8069f14 <__rawmemchr_ia32+0xc4>
 8069f0a:	40                   	inc    %eax
 8069f0b:	f7 c1 00 00 ff 00    	test   $0xff0000,%ecx
 8069f11:	74 01                	je     8069f14 <__rawmemchr_ia32+0xc4>
 8069f13:	40                   	inc    %eax
 8069f14:	5f                   	pop    %edi
 8069f15:	c3                   	ret    
 8069f2d:	83 f9 01             	cmp    $0x1,%ecx
 8069f30:	75 12                	jne    8069f44 <__memcmp_ia32+0x24>
 8069f32:	0f b6 08             	movzbl (%eax),%ecx
 8069f35:	3a 0a                	cmp    (%edx),%cl
 8069f37:	75 04                	jne    8069f3d <__memcmp_ia32+0x1d>
 8069f39:	31 c0                	xor    %eax,%eax
 8069f3b:	5b                   	pop    %ebx
 8069f3c:	c3                   	ret    
 8069f37:	75 04                	jne    8069f3d <__memcmp_ia32+0x1d>
 8069f39:	31 c0                	xor    %eax,%eax
 8069f3b:	5b                   	pop    %ebx
 8069f3c:	c3                   	ret    
 8069f3d:	19 c0                	sbb    %eax,%eax
 8069f3f:	83 d8 ff             	sbb    $0xffffffff,%eax
 8069f42:	5b                   	pop    %ebx
 8069f43:	c3                   	ret    
 8069fc4:	8b 46 fc             	mov    -0x4(%esi),%eax
 8069fc7:	8b 4a fc             	mov    -0x4(%edx),%ecx
 8069fca:	39 c8                	cmp    %ecx,%eax
 8069fcc:	0f 85 05 02 00 00    	jne    806a1d7 <__memcmp_ia32+0x2b7>
 8069fd2:	5e                   	pop    %esi
 8069fd3:	31 c0                	xor    %eax,%eax
 8069fd5:	5b                   	pop    %ebx
 8069fd6:	c3                   	ret    
 806a033:	0f 85 9e 01 00 00    	jne    806a1d7 <__memcmp_ia32+0x2b7>
 806a039:	0f b6 46 ff          	movzbl -0x1(%esi),%eax
 806a03d:	3a 42 ff             	cmp    -0x1(%edx),%al
 806a040:	0f 85 a5 01 00 00    	jne    806a1eb <__memcmp_ia32+0x2cb>
 806a046:	5e                   	pop    %esi
 806a047:	31 c0                	xor    %eax,%eax
 806a049:	5b                   	pop    %ebx
 806a04a:	c3                   	ret    
 806a0b5:	38 c8                	cmp    %cl,%al
 806a0b7:	0f 85 2e 01 00 00    	jne    806a1eb <__memcmp_ia32+0x2cb>
 806a0bd:	39 c8                	cmp    %ecx,%eax
 806a0bf:	0f 85 26 01 00 00    	jne    806a1eb <__memcmp_ia32+0x2cb>
 806a0c5:	5e                   	pop    %esi
 806a0c6:	31 c0                	xor    %eax,%eax
 806a0c8:	5b                   	pop    %ebx
 806a0c9:	c3                   	ret    
 806a13e:	0f 85 a7 00 00 00    	jne    806a1eb <__memcmp_ia32+0x2cb>
 806a144:	0f b6 46 ff          	movzbl -0x1(%esi),%eax
 806a148:	3a 42 ff             	cmp    -0x1(%edx),%al
 806a14b:	0f 85 9a 00 00 00    	jne    806a1eb <__memcmp_ia32+0x2cb>
 806a151:	5e                   	pop    %esi
 806a152:	31 c0                	xor    %eax,%eax
 806a154:	5b                   	pop    %ebx
 806a155:	c3                   	ret    
 806a1e5:	38 c8                	cmp    %cl,%al
 806a1e7:	75 02                	jne    806a1eb <__memcmp_ia32+0x2cb>
 806a1e9:	39 c8                	cmp    %ecx,%eax
 806a1eb:	19 c0                	sbb    %eax,%eax
 806a1ed:	83 d8 ff             	sbb    $0xffffffff,%eax
 806a1f0:	5e                   	pop    %esi
 806a1f1:	5b                   	pop    %ebx
 806a1f2:	c3                   	ret    
 806a256:	f3 a5                	rep movsl %ds:(%esi),%es:(%edi)
 806a258:	89 c1                	mov    %eax,%ecx
 806a25a:	f3 a4                	rep movsb %ds:(%esi),%es:(%edi)
 806a25c:	58                   	pop    %eax
 806a25d:	89 c7                	mov    %eax,%edi
 806a25f:	89 d6                	mov    %edx,%esi
 806a261:	8b 44 24 04          	mov    0x4(%esp),%eax
 806a265:	c3                   	ret    
 806a2ad:	d1 e9                	shr    %ecx
 806a2af:	73 02                	jae    806a2b3 <memmove+0x23>
 806a2b1:	66 a5                	movsw  %ds:(%esi),%es:(%edi)
 806a2b3:	f3 a5                	rep movsl %ds:(%esi),%es:(%edi)
 806a2b5:	89 d6                	mov    %edx,%esi
 806a2b7:	8b 44 24 08          	mov    0x8(%esp),%eax
 806a2bb:	5f                   	pop    %edi
 806a2bc:	c3                   	ret    
 806a2d7:	83 ef 02             	sub    $0x2,%edi
 806a2da:	83 ee 02             	sub    $0x2,%esi
 806a2dd:	f3 a5                	rep movsl %ds:(%esi),%es:(%edi)
 806a2df:	89 d6                	mov    %edx,%esi
 806a2e1:	8b 44 24 08          	mov    0x8(%esp),%eax
 806a2e5:	fc                   	cld    
 806a2e6:	5f                   	pop    %edi
 806a2e7:	c3                   	ret    
 806a315:	a4                   	movsb  %ds:(%esi),%es:(%edi)
 806a316:	d1 e9                	shr    %ecx
 806a318:	73 02                	jae    806a31c <__mempcpy+0x1c>
 806a31a:	66 a5                	movsw  %ds:(%esi),%es:(%edi)
 806a31c:	f3 a5                	rep movsl %ds:(%esi),%es:(%edi)
 806a31e:	97                   	xchg   %eax,%edi
 806a31f:	89 d6                	mov    %edx,%esi
 806a321:	c3                   	ret    
 806a35e:	83 e2 03             	and    $0x3,%edx
 806a361:	69 c0 01 01 01 01    	imul   $0x1010101,%eax,%eax
 806a367:	f3 ab                	rep stos %eax,%es:(%edi)
 806a369:	89 d1                	mov    %edx,%ecx
 806a36b:	f3 aa                	rep stos %al,%es:(%edi)
 806a36d:	8b 44 24 08          	mov    0x8(%esp),%eax
 806a371:	5f                   	pop    %edi
 806a372:	c3                   	ret    
 806a507:	80 fb 00             	cmp    $0x0,%bl
 806a50a:	74 01                	je     806a50d <__strchr_ia32+0x18d>
 806a50c:	40                   	inc    %eax
 806a50d:	5d                   	pop    %ebp
 806a50e:	5b                   	pop    %ebx
 806a50f:	5e                   	pop    %esi
 806a510:	5f                   	pop    %edi
 806a511:	c3                   	ret    
 806a5b8:	8d 7f 03             	lea    0x3(%edi),%edi
 806a5bb:	74 02                	je     806a5bf <__strcpy_ia32+0x7f>
 806a5bd:	88 27                	mov    %ah,(%edi)
 806a5bf:	8b 44 24 10          	mov    0x10(%esp),%eax
 806a5c3:	5b                   	pop    %ebx
 806a5c4:	5e                   	pop    %esi
 806a5c5:	5f                   	pop    %edi
 806a5c6:	c3                   	ret    
 806a5da:	3a 02                	cmp    (%edx),%al
 806a5dc:	75 09                	jne    806a5e7 <__strcmp_ia32+0x17>
 806a5de:	41                   	inc    %ecx
 806a5df:	42                   	inc    %edx
 806a5e0:	84 c0                	test   %al,%al
 806a5e2:	75 f4                	jne    806a5d8 <__strcmp_ia32+0x8>
 806a5e4:	31 c0                	xor    %eax,%eax
 806a5e6:	c3                   	ret    
 806a5e0:	84 c0                	test   %al,%al
 806a5e2:	75 f4                	jne    806a5d8 <__strcmp_ia32+0x8>
 806a5e4:	31 c0                	xor    %eax,%eax
 806a5e6:	c3                   	ret    
 806a5e7:	b8 01 00 00 00       	mov    $0x1,%eax
 806a5ec:	b9 ff ff ff ff       	mov    $0xffffffff,%ecx
 806a5f1:	0f 42 c1             	cmovb  %ecx,%eax
 806a5f4:	c3                   	ret    
 806a69d:	38 0c 0c             	cmp    %cl,(%esp,%ecx,1)
 806a6a0:	75 de                	jne    806a680 <__strcspn_ia32+0x80>
 806a6a2:	40                   	inc    %eax
 806a6a3:	40                   	inc    %eax
 806a6a4:	40                   	inc    %eax
 806a6a5:	81 c4 00 01 00 00    	add    $0x100,%esp
 806a6ab:	29 d0                	sub    %edx,%eax
 806a6ad:	c3                   	ret    
 806a75a:	74 0a                	je     806a766 <strlen+0xb6>
 806a75c:	c1 e9 10             	shr    $0x10,%ecx
 806a75f:	40                   	inc    %eax
 806a760:	80 f9 00             	cmp    $0x0,%cl
 806a763:	74 01                	je     806a766 <strlen+0xb6>
 806a765:	40                   	inc    %eax
 806a766:	2b 44 24 04          	sub    0x4(%esp),%eax
 806a76a:	c3                   	ret    
 806a7ee:	74 05                	je     806a7f5 <__stpcpy_ia32+0x85>
 806a7f0:	83 c7 01             	add    $0x1,%edi
 806a7f3:	88 27                	mov    %ah,(%edi)
 806a7f5:	89 f8                	mov    %edi,%eax
 806a7f7:	5b                   	pop    %ebx
 806a7f8:	5e                   	pop    %esi
 806a7f9:	5f                   	pop    %edi
 806a7fa:	c3                   	ret    
 806a85e:	66 90                	xchg   %ax,%ax

0806a860 <.L39>:
 806a860:	31 c0                	xor    %eax,%eax
 806a862:	5b                   	pop    %ebx
 806a863:	5e                   	pop    %esi
 806a864:	5f                   	pop    %edi
 806a865:	c3                   	ret    
 806ab1a:	0f 85 5c ff ff ff    	jne    806aa7c <intel_check_word.isra.0+0x6c>
 806ab20:	31 c0                	xor    %eax,%eax
 806ab22:	83 c4 1c             	add    $0x1c,%esp
 806ab25:	5b                   	pop    %ebx
 806ab26:	5e                   	pop    %esi
 806ab27:	5f                   	pop    %edi
 806ab28:	5d                   	pop    %ebp
 806ab29:	c3                   	ret    
 806adcc:	65 33 3d 14 00 00 00 	xor    %gs:0x14,%edi
 806add3:	75 19                	jne    806adee <handle_intel.constprop.1+0x14e>
 806add5:	83 c4 3c             	add    $0x3c,%esp
 806add8:	5b                   	pop    %ebx
 806add9:	5e                   	pop    %esi
 806adda:	5f                   	pop    %edi
 806addb:	5d                   	pop    %ebp
 806addc:	c3                   	ret    
 806ae0f:	c7 c2 00 a9 0d 08    	mov    $0x80da900,%edx
 806ae15:	8b 12                	mov    (%edx),%edx
 806ae17:	83 fa 01             	cmp    $0x1,%edx
 806ae1a:	74 14                	je     806ae30 <__cache_sysconf+0x30>
 806ae1c:	83 fa 02             	cmp    $0x2,%edx
 806ae1f:	74 07                	je     806ae28 <__cache_sysconf+0x28>
 806ae21:	31 c0                	xor    %eax,%eax
 806ae23:	c3                   	ret    
 806ae53:	c1 e0 02             	shl    $0x2,%eax
 806ae56:	50                   	push   %eax
 806ae57:	ff 74 24 1c          	pushl  0x1c(%esp)
 806ae5b:	ff 74 24 1c          	pushl  0x1c(%esp)
 806ae5f:	e8 9c f4 ff ff       	call   806a300 <__mempcpy>
 806ae64:	83 c4 18             	add    $0x18,%esp
 806ae67:	5b                   	pop    %ebx
 806ae68:	c3                   	ret    
 806ae93:	65 ff 31             	pushl  %gs:(%ecx)
 806ae96:	50                   	push   %eax
 806ae97:	ff 74 24 2c          	pushl  0x2c(%esp)
 806ae9b:	ff 74 24 2c          	pushl  0x2c(%esp)
 806ae9f:	ff 74 24 2c          	pushl  0x2c(%esp)
 806aea3:	e8 38 04 00 00       	call   806b2e0 <__mbsrtowcs_l>
 806aea8:	83 c4 2c             	add    $0x2c,%esp
 806aeab:	c3                   	ret    
 806aeee:	e8 fd 6b 00 00       	call   8071af0 <__gconv_close_transform>
 806aef3:	89 34 24             	mov    %esi,(%esp)
 806aef6:	e8 e5 18 ff ff       	call   805c7e0 <__free>
 806aefb:	83 c4 10             	add    $0x10,%esp
 806aefe:	83 c4 04             	add    $0x4,%esp
 806af01:	5b                   	pop    %ebx
 806af02:	5e                   	pop    %esi
 806af03:	c3                   	ret    
 806af4f:	77 17                	ja     806af68 <__wcsmbs_getfct+0x58>
 806af51:	89 13                	mov    %edx,(%ebx)
 806af53:	8b 4c 24 0c          	mov    0xc(%esp),%ecx
 806af57:	65 33 0d 14 00 00 00 	xor    %gs:0x14,%ecx
 806af5e:	75 24                	jne    806af84 <__wcsmbs_getfct+0x74>
 806af60:	83 c4 18             	add    $0x18,%esp
 806af63:	5b                   	pop    %ebx
 806af64:	c3                   	ret    
 806b0f8:	65 33 05 14 00 00 00 	xor    %gs:0x14,%eax
 806b0ff:	0f 85 c3 00 00 00    	jne    806b1c8 <__wcsmbs_load_conv+0x238>
 806b105:	8d 65 f4             	lea    -0xc(%ebp),%esp
 806b108:	5b                   	pop    %ebx
 806b109:	5e                   	pop    %esi
 806b10a:	5f                   	pop    %edi
 806b10b:	5d                   	pop    %ebp
 806b10c:	c3                   	ret    
 806b219:	8b 10                	mov    (%eax),%edx
 806b21b:	85 d2                	test   %edx,%edx
 806b21d:	74 04                	je     806b223 <__wcsmbs_clone_conv+0x53>
 806b21f:	83 40 08 01          	addl   $0x1,0x8(%eax)
 806b223:	83 c4 04             	add    $0x4,%esp
 806b226:	5b                   	pop    %ebx
 806b227:	5e                   	pop    %esi
 806b228:	c3                   	ret    
 806b2ac:	83 c4 10             	add    $0x10,%esp
 806b2af:	31 c0                	xor    %eax,%eax
 806b2b1:	85 d2                	test   %edx,%edx
 806b2b3:	74 0b                	je     806b2c0 <__wcsmbs_named_conv+0x60>
 806b2b5:	5b                   	pop    %ebx
 806b2b6:	5e                   	pop    %esi
 806b2b7:	5f                   	pop    %edi
 806b2b8:	c3                   	ret    
 806b2c6:	ff 33                	pushl  (%ebx)
 806b2c8:	e8 23 68 00 00       	call   8071af0 <__gconv_close_transform>
 806b2cd:	83 c4 10             	add    $0x10,%esp
 806b2d0:	b8 01 00 00 00       	mov    $0x1,%eax
 806b2d5:	5b                   	pop    %ebx
 806b2d6:	5e                   	pop    %esi
 806b2d7:	5f                   	pop    %edi
 806b2d8:	c3                   	ret    
 806b4a2:	89 e8                	mov    %ebp,%eax
 806b4a4:	0f 85 4f 01 00 00    	jne    806b5f9 <__mbsrtowcs_l+0x319>
 806b4aa:	81 c4 6c 01 00 00    	add    $0x16c,%esp
 806b4b0:	5b                   	pop    %ebx
 806b4b1:	5e                   	pop    %esi
 806b4b2:	5f                   	pop    %edi
 806b4b3:	5d                   	pop    %ebp
 806b4b4:	c3                   	ret    
 806b757:	65 33 3d 14 00 00 00 	xor    %gs:0x14,%edi
 806b75e:	75 20                	jne    806b780 <__sysconf_check_spec+0x120>
 806b760:	8d 65 f4             	lea    -0xc(%ebp),%esp
 806b763:	5b                   	pop    %ebx
 806b764:	5e                   	pop    %esi
 806b765:	5f                   	pop    %edi
 806b766:	5d                   	pop    %ebp
 806b767:	c3                   	ret    
 806b8b0:	65 33 0d 14 00 00 00 	xor    %gs:0x14,%ecx
 806b8b7:	0f 85 94 02 00 00    	jne    806bb51 <.L29+0x31>
 806b8bd:	83 c4 4c             	add    $0x4c,%esp
 806b8c0:	5b                   	pop    %ebx
 806b8c1:	5e                   	pop    %esi
 806b8c2:	5f                   	pop    %edi
 806b8c3:	5d                   	pop    %ebp
 806b8c4:	c3                   	ret    
 806bb5b:	e9 4c fd ff ff       	jmp    806b8ac <__sysconf+0x11c>

0806bb60 <__sched_yield>:
 806bb60:	b8 9e 00 00 00       	mov    $0x9e,%eax
 806bb65:	65 ff 15 10 00 00 00 	call   *%gs:0x10
 806bb6c:	3d 01 f0 ff ff       	cmp    $0xfffff001,%eax
 806bb71:	0f 83 09 48 00 00    	jae    8070380 <__syscall_error>
 806bb77:	c3                   	ret    
 806bbac:	75 1a                	jne    806bbc8 <__get_child_max+0x48>
 806bbae:	8b 44 24 04          	mov    0x4(%esp),%eax
 806bbb2:	8b 54 24 0c          	mov    0xc(%esp),%edx
 806bbb6:	65 33 15 14 00 00 00 	xor    %gs:0x14,%edx
 806bbbd:	75 10                	jne    806bbcf <__get_child_max+0x4f>
 806bbbf:	83 c4 18             	add    $0x18,%esp
 806bbc2:	5b                   	pop    %ebx
 806bbc3:	c3                   	ret    
 806bbe1:	b8 c3 00 00 00       	mov    $0xc3,%eax
 806bbe6:	8b 4c 24 10          	mov    0x10(%esp),%ecx
 806bbea:	8b 5c 24 0c          	mov    0xc(%esp),%ebx
 806bbee:	65 ff 15 10 00 00 00 	call   *%gs:0x10
 806bbf5:	3d 00 f0 ff ff       	cmp    $0xfffff000,%eax
 806bbfa:	77 04                	ja     806bc00 <___xstat64+0x20>
 806bbfc:	5b                   	pop    %ebx
 806bbfd:	c3                   	ret    
 806bc11:	b8 c5 00 00 00       	mov    $0xc5,%eax
 806bc16:	8b 4c 24 10          	mov    0x10(%esp),%ecx
 806bc1a:	8b 5c 24 0c          	mov    0xc(%esp),%ebx
 806bc1e:	65 ff 15 10 00 00 00 	call   *%gs:0x10
 806bc25:	3d 00 f0 ff ff       	cmp    $0xfffff000,%eax
 806bc2a:	77 04                	ja     806bc30 <___fxstat64+0x20>
 806bc2c:	5b                   	pop    %ebx
 806bc2d:	c3                   	ret    
 806bc77:	65 ff 15 10 00 00 00 	call   *%gs:0x10
 806bc7e:	3d 00 f0 ff ff       	cmp    $0xfffff000,%eax
 806bc83:	77 6b                	ja     806bcf0 <__libc_open+0xb0>
 806bc85:	83 c4 10             	add    $0x10,%esp
 806bc88:	5b                   	pop    %ebx
 806bc89:	5e                   	pop    %esi
 806bc8a:	5f                   	pop    %edi
 806bc8b:	c3                   	ret    
 806bcd3:	e8 18 22 00 00       	call   806def0 <__libc_disable_asynccancel>
 806bcd8:	83 c4 10             	add    $0x10,%esp
 806bcdb:	8b 44 24 0c          	mov    0xc(%esp),%eax
 806bcdf:	83 c4 10             	add    $0x10,%esp
 806bce2:	5b                   	pop    %ebx
 806bce3:	5e                   	pop    %esi
 806bce4:	5f                   	pop    %edi
 806bce5:	c3                   	ret    
 806bd27:	bb 9c ff ff ff       	mov    $0xffffff9c,%ebx
 806bd2c:	65 ff 15 10 00 00 00 	call   *%gs:0x10
 806bd33:	3d 00 f0 ff ff       	cmp    $0xfffff000,%eax
 806bd38:	77 16                	ja     806bd50 <__open_nocancel+0x50>
 806bd3a:	83 c4 04             	add    $0x4,%esp
 806bd3d:	5b                   	pop    %ebx
 806bd3e:	5e                   	pop    %esi
 806bd3f:	c3                   	ret    
 806bd44:	eb d8                	jmp    806bd1e <__open_nocancel+0x1e>
 806bd46:	8d 76 00             	lea    0x0(%esi),%esi
 806bd49:	8d bc 27 00 00 00 00 	lea    0x0(%edi,%eiz,1),%edi
 806bd50:	e8 2b 46 00 00       	call   8070380 <__syscall_error>
 806bd55:	83 c4 04             	add    $0x4,%esp
 806bd58:	5b                   	pop    %ebx
 806bd59:	5e                   	pop    %esi
 806bd5a:	c3                   	ret    
 806bd7b:	b8 03 00 00 00       	mov    $0x3,%eax
 806bd80:	65 ff 15 10 00 00 00 	call   *%gs:0x10
 806bd87:	3d 00 f0 ff ff       	cmp    $0xfffff000,%eax
 806bd8c:	77 52                	ja     806bde0 <__libc_read+0x80>
 806bd8e:	83 c4 14             	add    $0x14,%esp
 806bd91:	5b                   	pop    %ebx
 806bd92:	5e                   	pop    %esi
 806bd93:	c3                   	ret    
 806bdc9:	56                   	push   %esi
 806bdca:	e8 21 21 00 00       	call   806def0 <__libc_disable_asynccancel>
 806bdcf:	83 c4 10             	add    $0x10,%esp
 806bdd2:	8b 44 24 08          	mov    0x8(%esp),%eax
 806bdd6:	83 c4 14             	add    $0x14,%esp
 806bdd9:	5b                   	pop    %ebx
 806bdda:	5e                   	pop    %esi
 806bddb:	c3                   	ret    
 806be06:	8b 4c 24 0c          	mov    0xc(%esp),%ecx
 806be0a:	8b 54 24 10          	mov    0x10(%esp),%edx
 806be0e:	8b 5c 24 08          	mov    0x8(%esp),%ebx
 806be12:	65 ff 15 10 00 00 00 	call   *%gs:0x10
 806be19:	3d 00 f0 ff ff       	cmp    $0xfffff000,%eax
 806be1e:	77 08                	ja     806be28 <__read_nocancel+0x28>
 806be20:	5b                   	pop    %ebx
 806be21:	c3                   	ret    
 806be4b:	b8 04 00 00 00       	mov    $0x4,%eax
 806be50:	65 ff 15 10 00 00 00 	call   *%gs:0x10
 806be57:	3d 00 f0 ff ff       	cmp    $0xfffff000,%eax
 806be5c:	77 52                	ja     806beb0 <__libc_write+0x80>
 806be5e:	83 c4 14             	add    $0x14,%esp
 806be61:	5b                   	pop    %ebx
 806be62:	5e                   	pop    %esi
 806be63:	c3                   	ret    
 806be99:	56                   	push   %esi
 806be9a:	e8 51 20 00 00       	call   806def0 <__libc_disable_asynccancel>
 806be9f:	83 c4 10             	add    $0x10,%esp
 806bea2:	8b 44 24 08          	mov    0x8(%esp),%eax
 806bea6:	83 c4 14             	add    $0x14,%esp
 806bea9:	5b                   	pop    %ebx
 806beaa:	5e                   	pop    %esi
 806beab:	c3                   	ret    
 806bed6:	8b 4c 24 0c          	mov    0xc(%esp),%ecx
 806beda:	8b 54 24 10          	mov    0x10(%esp),%edx
 806bede:	8b 5c 24 08          	mov    0x8(%esp),%ebx
 806bee2:	65 ff 15 10 00 00 00 	call   *%gs:0x10
 806bee9:	3d 00 f0 ff ff       	cmp    $0xfffff000,%eax
 806beee:	77 08                	ja     806bef8 <__write_nocancel+0x28>
 806bef0:	5b                   	pop    %ebx
 806bef1:	c3                   	ret    
 806bf43:	8b 4c 24 0c          	mov    0xc(%esp),%ecx
 806bf47:	65 33 0d 14 00 00 00 	xor    %gs:0x14,%ecx
 806bf4e:	75 17                	jne    806bf67 <__libc_lseek64+0x67>
 806bf50:	83 c4 10             	add    $0x10,%esp
 806bf53:	5b                   	pop    %ebx
 806bf54:	5e                   	pop    %esi
 806bf55:	5f                   	pop    %edi
 806bf56:	c3                   	ret    
 806bfa3:	8b 44 24 08          	mov    0x8(%esp),%eax
 806bfa7:	74 17                	je     806bfc0 <fcntl_common.part.0+0x50>
 806bfa9:	8b 4c 24 0c          	mov    0xc(%esp),%ecx
 806bfad:	65 33 0d 14 00 00 00 	xor    %gs:0x14,%ecx
 806bfb4:	75 19                	jne    806bfcf <fcntl_common.part.0+0x5f>
 806bfb6:	83 c4 18             	add    $0x18,%esp
 806bfb9:	5b                   	pop    %ebx
 806bfba:	c3                   	ret    
 806c006:	8b 5c 24 20          	mov    0x20(%esp),%ebx
 806c00a:	65 ff 15 10 00 00 00 	call   *%gs:0x10
 806c011:	3d 00 f0 ff ff       	cmp    $0xfffff000,%eax
 806c016:	77 20                	ja     806c038 <__libc_fcntl+0x58>
 806c018:	83 c4 14             	add    $0x14,%esp
 806c01b:	5b                   	pop    %ebx
 806c01c:	5e                   	pop    %esi
 806c01d:	c3                   	ret    
 806c020:	83 f9 09             	cmp    $0x9,%ecx
 806c023:	75 dc                	jne    806c001 <__libc_fcntl+0x21>
 806c025:	8b 44 24 20          	mov    0x20(%esp),%eax
 806c029:	e8 42 ff ff ff       	call   806bf70 <fcntl_common.part.0>
 806c02e:	83 c4 14             	add    $0x14,%esp
 806c031:	5b                   	pop    %ebx
 806c032:	5e                   	pop    %esi
 806c033:	c3                   	ret    
 806c0a1:	b8 dd 00 00 00       	mov    $0xdd,%eax
 806c0a6:	8b 5c 24 10          	mov    0x10(%esp),%ebx
 806c0aa:	65 ff 15 10 00 00 00 	call   *%gs:0x10
 806c0b1:	3d 00 f0 ff ff       	cmp    $0xfffff000,%eax
 806c0b6:	77 18                	ja     806c0d0 <__fcntl_nocancel+0x40>
 806c0b8:	83 c4 08             	add    $0x8,%esp
 806c0bb:	5b                   	pop    %ebx
 806c0bc:	c3                   	ret    
 806c0bb:	5b                   	pop    %ebx
 806c0bc:	c3                   	ret    
 806c0bd:	8d 76 00             	lea    0x0(%esi),%esi
 806c0c0:	8b 44 24 10          	mov    0x10(%esp),%eax
 806c0c4:	e8 a7 fe ff ff       	call   806bf70 <fcntl_common.part.0>
 806c0c9:	83 c4 08             	add    $0x8,%esp
 806c0cc:	5b                   	pop    %ebx
 806c0cd:	c3                   	ret    
 806c0f3:	b8 06 00 00 00       	mov    $0x6,%eax
 806c0f8:	65 ff 15 10 00 00 00 	call   *%gs:0x10
 806c0ff:	3d 00 f0 ff ff       	cmp    $0xfffff000,%eax
 806c104:	77 42                	ja     806c148 <__close+0x68>
 806c106:	83 c4 14             	add    $0x14,%esp
 806c109:	5b                   	pop    %ebx
 806c10a:	5e                   	pop    %esi
 806c10b:	c3                   	ret    
 806c131:	56                   	push   %esi
 806c132:	e8 b9 1d 00 00       	call   806def0 <__libc_disable_asynccancel>
 806c137:	83 c4 10             	add    $0x10,%esp
 806c13a:	8b 44 24 0c          	mov    0xc(%esp),%eax
 806c13e:	83 c4 14             	add    $0x14,%esp
 806c141:	5b                   	pop    %ebx
 806c142:	5e                   	pop    %esi
 806c143:	c3                   	ret    
 806c160:	53                   	push   %ebx
 806c161:	b8 06 00 00 00       	mov    $0x6,%eax
 806c166:	8b 5c 24 08          	mov    0x8(%esp),%ebx
 806c16a:	65 ff 15 10 00 00 00 	call   *%gs:0x10
 806c171:	3d 00 f0 ff ff       	cmp    $0xfffff000,%eax
 806c176:	77 08                	ja     806c180 <__close_nocancel+0x20>
 806c178:	5b                   	pop    %ebx
 806c179:	c3                   	ret    
 806c215:	8b 04 24             	mov    (%esp),%eax
 806c218:	0f 85 70 07 00 00    	jne    806c98e <__getcwd+0x7fe>
 806c21e:	81 c4 ec 00 00 00    	add    $0xec,%esp
 806c224:	5b                   	pop    %ebx
 806c225:	5e                   	pop    %esi
 806c226:	5f                   	pop    %edi
 806c227:	5d                   	pop    %ebp
 806c228:	c3                   	ret    
 806c9b1:	b8 bf 00 00 00       	mov    $0xbf,%eax
 806c9b6:	8b 4c 24 0c          	mov    0xc(%esp),%ecx
 806c9ba:	8b 5c 24 08          	mov    0x8(%esp),%ebx
 806c9be:	65 ff 15 10 00 00 00 	call   *%gs:0x10
 806c9c5:	3d 00 f0 ff ff       	cmp    $0xfffff000,%eax
 806c9ca:	77 04                	ja     806c9d0 <__new_getrlimit+0x20>
 806c9cc:	5b                   	pop    %ebx
 806c9cd:	c3                   	ret    
 806ca40:	bb ff ff ff ff       	mov    $0xffffffff,%ebx
 806ca45:	83 c4 0c             	add    $0xc,%esp
 806ca48:	89 d8                	mov    %ebx,%eax
 806ca4a:	5b                   	pop    %ebx
 806ca4b:	5e                   	pop    %esi
 806ca4c:	5f                   	pop    %edi
 806ca4d:	5d                   	pop    %ebp
 806ca4e:	c3                   	ret    
 806ca60:	78 de                	js     806ca40 <__sbrk+0x60>
 806ca62:	83 c4 0c             	add    $0xc,%esp
 806ca65:	89 d8                	mov    %ebx,%eax
 806ca67:	5b                   	pop    %ebx
 806ca68:	5e                   	pop    %esi
 806ca69:	5f                   	pop    %edi
 806ca6a:	5d                   	pop    %ebp
 806ca6b:	c3                   	ret    
 806ca8c:	83 ec 08             	sub    $0x8,%esp
 806ca8f:	c7 c0 f0 99 0d 08    	mov    $0x80d99f0,%eax
 806ca95:	8b 00                	mov    (%eax),%eax
 806ca97:	85 c0                	test   %eax,%eax
 806ca99:	74 05                	je     806caa0 <__getpagesize+0x20>
 806ca9b:	83 c4 08             	add    $0x8,%esp
 806ca9e:	5b                   	pop    %ebx
 806ca9f:	c3                   	ret    
 806caec:	b8 00 01 00 00       	mov    $0x100,%eax
 806caf1:	0f 49 44 24 04       	cmovns 0x4(%esp),%eax
 806caf6:	8b 54 24 0c          	mov    0xc(%esp),%edx
 806cafa:	65 33 15 14 00 00 00 	xor    %gs:0x14,%edx
 806cb01:	75 05                	jne    806cb08 <__getdtablesize+0x48>
 806cb03:	83 c4 18             	add    $0x18,%esp
 806cb06:	5b                   	pop    %ebx
 806cb07:	c3                   	ret    
 806cb3d:	65 ff 15 10 00 00 00 	call   *%gs:0x10
 806cb44:	3d 00 f0 ff ff       	cmp    $0xfffff000,%eax
 806cb49:	77 0a                	ja     806cb55 <__mmap+0x45>
 806cb4b:	5b                   	pop    %ebx
 806cb4c:	5e                   	pop    %esi
 806cb4d:	5f                   	pop    %edi
 806cb4e:	5d                   	pop    %ebp
 806cb4f:	c3                   	ret    
 806cbd8:	3d 00 f0 ff ff       	cmp    $0xfffff000,%eax
 806cbdd:	77 11                	ja     806cbf0 <__mmap64+0x90>
 806cbdf:	83 c4 2c             	add    $0x2c,%esp
 806cbe2:	5b                   	pop    %ebx
 806cbe3:	5e                   	pop    %esi
 806cbe4:	5f                   	pop    %edi
 806cbe5:	5d                   	pop    %ebp
 806cbe6:	c3                   	ret    
 806cc02:	8b 4c 24 08          	mov    0x8(%esp),%ecx
 806cc06:	8b 5c 24 04          	mov    0x4(%esp),%ebx
 806cc0a:	b8 5b 00 00 00       	mov    $0x5b,%eax
 806cc0f:	65 ff 15 10 00 00 00 	call   *%gs:0x10
 806cc16:	89 d3                	mov    %edx,%ebx
 806cc18:	3d 01 f0 ff ff       	cmp    $0xfffff001,%eax
 806cc1d:	0f 83 5d 37 00 00    	jae    8070380 <__syscall_error>
 806cc23:	c3                   	ret    
 806cc35:	8b 4c 24 0c          	mov    0xc(%esp),%ecx
 806cc39:	8b 5c 24 08          	mov    0x8(%esp),%ebx
 806cc3d:	b8 7d 00 00 00       	mov    $0x7d,%eax
 806cc42:	65 ff 15 10 00 00 00 	call   *%gs:0x10
 806cc49:	5b                   	pop    %ebx
 806cc4a:	3d 01 f0 ff ff       	cmp    $0xfffff001,%eax
 806cc4f:	0f 83 2b 37 00 00    	jae    8070380 <__syscall_error>
 806cc55:	c3                   	ret    
 806cc65:	8b 4c 24 0c          	mov    0xc(%esp),%ecx
 806cc69:	8b 5c 24 08          	mov    0x8(%esp),%ebx
 806cc6d:	b8 db 00 00 00       	mov    $0xdb,%eax
 806cc72:	65 ff 15 10 00 00 00 	call   *%gs:0x10
 806cc79:	5b                   	pop    %ebx
 806cc7a:	3d 01 f0 ff ff       	cmp    $0xfffff001,%eax
 806cc7f:	0f 83 fb 36 00 00    	jae    8070380 <__syscall_error>
 806cc85:	c3                   	ret    
 806cccd:	6a 02                	push   $0x2
 806cccf:	53                   	push   %ebx
 806ccd0:	ff d6                	call   *%esi
 806ccd2:	83 c4 10             	add    $0x10,%esp
 806ccd5:	5b                   	pop    %ebx
 806ccd6:	5e                   	pop    %esi
 806ccd7:	5f                   	pop    %edi
 806ccd8:	c3                   	ret    
 806cceb:	6a 03                	push   $0x3
 806cced:	53                   	push   %ebx
 806ccee:	ff d2                	call   *%edx
 806ccf0:	83 c4 10             	add    $0x10,%esp
 806ccf3:	5b                   	pop    %ebx
 806ccf4:	5e                   	pop    %esi
 806ccf5:	5f                   	pop    %edi
 806ccf6:	c3                   	ret    
 806cd46:	ff d7                	call   *%edi
 806cd48:	89 34 24             	mov    %esi,(%esp)
 806cd4b:	e8 90 fa fe ff       	call   805c7e0 <__free>
 806cd50:	83 c4 10             	add    $0x10,%esp
 806cd53:	5b                   	pop    %ebx
 806cd54:	5e                   	pop    %esi
 806cd55:	5f                   	pop    %edi
 806cd56:	c3                   	ret    
 806ce60:	09 d0                	or     %edx,%eax
 806ce62:	89 01                	mov    %eax,(%ecx)
 806ce64:	83 c4 0c             	add    $0xc,%esp
 806ce67:	5b                   	pop    %ebx
 806ce68:	5e                   	pop    %esi
 806ce69:	5f                   	pop    %edi
 806ce6a:	5d                   	pop    %ebp
 806ce6b:	c3                   	ret    
 806d011:	83 c4 10             	add    $0x10,%esp
 806d014:	83 c4 2c             	add    $0x2c,%esp
 806d017:	89 d8                	mov    %ebx,%eax
 806d019:	5b                   	pop    %ebx
 806d01a:	5e                   	pop    %esi
 806d01b:	5f                   	pop    %edi
 806d01c:	5d                   	pop    %ebp
 806d01d:	c3                   	ret    
 806d020:	83 c4 2c             	add    $0x2c,%esp
 806d023:	31 db                	xor    %ebx,%ebx
 806d025:	89 d8                	mov    %ebx,%eax
 806d027:	5b                   	pop    %ebx
 806d028:	5e                   	pop    %esi
 806d029:	5f                   	pop    %edi
 806d02a:	5d                   	pop    %ebp
 806d02b:	c3                   	ret    
 806d083:	31 ed                	xor    %ebp,%ebp
 806d085:	83 c4 0c             	add    $0xc,%esp
 806d088:	89 e8                	mov    %ebp,%eax
 806d08a:	5b                   	pop    %ebx
 806d08b:	5e                   	pop    %esi
 806d08c:	5f                   	pop    %edi
 806d08d:	5d                   	pop    %ebp
 806d08e:	c3                   	ret    
 806d158:	8b 45 bc             	mov    -0x44(%ebp),%eax
 806d15b:	0f 85 be 04 00 00    	jne    806d61f <__tdelete+0x58f>
 806d161:	8d 65 f4             	lea    -0xc(%ebp),%esp
 806d164:	5b                   	pop    %ebx
 806d165:	5e                   	pop    %esi
 806d166:	5f                   	pop    %edi
 806d167:	5d                   	pop    %ebp
 806d168:	c3                   	ret    
 806d6d2:	0f 84 1b 01 00 00    	je     806d7f3 <next_line+0x173>
 806d6d8:	83 c4 2c             	add    $0x2c,%esp
 806d6db:	89 f0                	mov    %esi,%eax
 806d6dd:	5b                   	pop    %ebx
 806d6de:	5e                   	pop    %esi
 806d6df:	5f                   	pop    %edi
 806d6e0:	5d                   	pop    %ebp
 806d6e1:	c3                   	ret    
 806d880:	d1 e9                	shr    %ecx
 806d882:	d1 e8                	shr    %eax
 806d884:	83 f9 01             	cmp    $0x1,%ecx
 806d887:	75 f7                	jne    806d880 <sysinfo_mempages+0x40>
 806d889:	5b                   	pop    %ebx
 806d88a:	5e                   	pop    %esi
 806d88b:	5f                   	pop    %edi
 806d88c:	c3                   	ret    
 806d9f6:	8b 45 d4             	mov    -0x2c(%ebp),%eax
 806d9f9:	0f 85 8b 01 00 00    	jne    806db8a <__get_nprocs+0x2fa>
 806d9ff:	8d 65 f4             	lea    -0xc(%ebp),%esp
 806da02:	5b                   	pop    %ebx
 806da03:	5e                   	pop    %esi
 806da04:	5f                   	pop    %edi
 806da05:	5d                   	pop    %ebp
 806da06:	c3                   	ret    
 806dc67:	8b 44 24 08          	mov    0x8(%esp),%eax
 806dc6b:	75 16                	jne    806dc83 <__get_nprocs_conf+0xf3>
 806dc6d:	83 c4 2c             	add    $0x2c,%esp
 806dc70:	5b                   	pop    %ebx
 806dc71:	5e                   	pop    %esi
 806dc72:	5f                   	pop    %edi
 806dc73:	5d                   	pop    %ebp
 806dc74:	c3                   	ret    
 806dd10:	e8 13 b6 fd ff       	call   8049328 <__x86.get_pc_thunk.ax>
 806dd15:	05 eb b2 06 00       	add    $0x6b2eb,%eax
 806dd1a:	ba 64 00 00 00       	mov    $0x64,%edx
 806dd1f:	c7 c0 64 af 0d 08    	mov    $0x80daf64,%eax
 806dd25:	8b 00                	mov    (%eax),%eax
 806dd27:	85 c0                	test   %eax,%eax
 806dd29:	0f 44 c2             	cmove  %edx,%eax
 806dd2c:	c3                   	ret    
 806dd5f:	0f 45 fa             	cmovne %edx,%edi
 806dd62:	89 bb a4 09 00 00    	mov    %edi,0x9a4(%ebx)
 806dd68:	8b 06                	mov    (%esi),%eax
 806dd6a:	89 83 a8 09 00 00    	mov    %eax,0x9a8(%ebx)
 806dd70:	5b                   	pop    %ebx
 806dd71:	5e                   	pop    %esi
 806dd72:	5f                   	pop    %edi
 806dd73:	c3                   	ret    
 806dd97:	b8 a3 00 00 00       	mov    $0xa3,%eax
 806dd9c:	65 ff 15 10 00 00 00 	call   *%gs:0x10
 806dda3:	5b                   	pop    %ebx
 806dda4:	5e                   	pop    %esi
 806dda5:	5f                   	pop    %edi
 806dda6:	3d 01 f0 ff ff       	cmp    $0xfffff001,%eax
 806ddab:	0f 83 cf 25 00 00    	jae    8070380 <__syscall_error>
 806ddb1:	c3                   	ret    
 806ddc0:	89 da                	mov    %ebx,%edx
 806ddc2:	8b 5c 24 04          	mov    0x4(%esp),%ebx
 806ddc6:	b8 74 00 00 00       	mov    $0x74,%eax
 806ddcb:	65 ff 15 10 00 00 00 	call   *%gs:0x10
 806ddd2:	89 d3                	mov    %edx,%ebx
 806ddd4:	3d 01 f0 ff ff       	cmp    $0xfffff001,%eax
 806ddd9:	0f 83 a1 25 00 00    	jae    8070380 <__syscall_error>
 806dddf:	c3                   	ret    
 806ddff:	c1 ea 02             	shr    $0x2,%edx
 806de02:	b8 00 00 04 00       	mov    $0x40000,%eax
 806de07:	85 d2                	test   %edx,%edx
 806de09:	0f 44 d0             	cmove  %eax,%edx
 806de0c:	31 c0                	xor    %eax,%eax
 806de0e:	3b 54 24 04          	cmp    0x4(%esp),%edx
 806de12:	0f 93 c0             	setae  %al
 806de15:	c3                   	ret    
 806de41:	89 d0                	mov    %edx,%eax
 806de43:	87 03                	xchg   %eax,(%ebx)
 806de45:	85 c0                	test   %eax,%eax
 806de47:	75 ec                	jne    806de35 <__lll_lock_wait_private+0x15>
 806de49:	5e                   	pop    %esi
 806de4a:	5b                   	pop    %ebx
 806de4b:	5a                   	pop    %edx
 806de4c:	c3                   	ret    
 806de5b:	b9 81 00 00 00       	mov    $0x81,%ecx
 806de60:	ba 01 00 00 00       	mov    $0x1,%edx
 806de65:	b8 f0 00 00 00       	mov    $0xf0,%eax
 806de6a:	65 ff 15 10 00 00 00 	call   *%gs:0x10
 806de71:	5a                   	pop    %edx
 806de72:	59                   	pop    %ecx
 806de73:	5b                   	pop    %ebx
 806de74:	c3                   	ret    
 806deac:	75 12                	jne    806dec0 <__libc_enable_asynccancel+0x40>
 806deae:	83 e1 bb             	and    $0xffffffbb,%ecx
 806deb1:	83 f9 0a             	cmp    $0xa,%ecx
 806deb4:	74 0e                	je     806dec4 <__libc_enable_asynccancel+0x44>
 806deb6:	83 c4 08             	add    $0x8,%esp
 806deb9:	89 d0                	mov    %edx,%eax
 806debb:	5b                   	pop    %ebx
 806debc:	c3                   	ret    
 806df2e:	83 f9 04             	cmp    $0x4,%ecx
 806df31:	74 0d                	je     806df40 <__libc_disable_asynccancel+0x50>
 806df33:	83 c4 0c             	add    $0xc,%esp
 806df36:	5b                   	pop    %ebx
 806df37:	5e                   	pop    %esi
 806df38:	5f                   	pop    %edi
 806df39:	5d                   	pop    %ebp
 806df3a:	c3                   	ret    
 806e0c0:	89 58 10             	mov    %ebx,0x10(%eax)
 806e0c3:	8b 12                	mov    (%edx),%edx
 806e0c5:	89 50 04             	mov    %edx,0x4(%eax)
 806e0c8:	8d 91 70 50 f9 ff    	lea    -0x6af90(%ecx),%edx
 806e0ce:	89 50 08             	mov    %edx,0x8(%eax)
 806e0d1:	5b                   	pop    %ebx
 806e0d2:	5e                   	pop    %esi
 806e0d3:	c3                   	ret    
 806e113:	73 13                	jae    806e128 <do_tunable_update_val+0x28>
 806e115:	3b 50 0c             	cmp    0xc(%eax),%edx
 806e118:	7e 3e                	jle    806e158 <do_tunable_update_val+0x58>
 806e11a:	3b 50 14             	cmp    0x14(%eax),%edx
 806e11d:	7c 21                	jl     806e140 <do_tunable_update_val+0x40>
 806e11f:	7e 1a                	jle    806e13b <do_tunable_update_val+0x3b>
 806e121:	5b                   	pop    %ebx
 806e122:	c3                   	ret    
 806e139:	77 e6                	ja     806e121 <do_tunable_update_val+0x21>
 806e13b:	3b 58 10             	cmp    0x10(%eax),%ebx
 806e13e:	77 e1                	ja     806e121 <do_tunable_update_val+0x21>
 806e140:	89 58 18             	mov    %ebx,0x18(%eax)
 806e143:	89 50 1c             	mov    %edx,0x1c(%eax)
 806e146:	c6 40 20 01          	movb   $0x1,0x20(%eax)
 806e14a:	5b                   	pop    %ebx
 806e14b:	c3                   	ret    
 806e140:	89 58 18             	mov    %ebx,0x18(%eax)
 806e143:	89 50 1c             	mov    %edx,0x1c(%eax)
 806e146:	c6 40 20 01          	movb   $0x1,0x20(%eax)
 806e14a:	5b                   	pop    %ebx
 806e14b:	c3                   	ret    
 806e14c:	8d 74 26 00          	lea    0x0(%esi,%eiz,1),%esi
 806e150:	89 50 18             	mov    %edx,0x18(%eax)
 806e153:	c3                   	ret    
 806e150:	89 50 18             	mov    %edx,0x18(%eax)
 806e153:	c3                   	ret    
 806e154:	8d 74 26 00          	lea    0x0(%esi,%eiz,1),%esi
 806e158:	7c c7                	jl     806e121 <do_tunable_update_val+0x21>
 806e15a:	3b 58 08             	cmp    0x8(%eax),%ebx
 806e15d:	73 bb                	jae    806e11a <do_tunable_update_val+0x1a>
 806e15f:	5b                   	pop    %ebx
 806e160:	c3                   	ret    
 806e176:	83 78 04 03          	cmpl   $0x3,0x4(%eax)
 806e17a:	75 14                	jne    806e190 <tunable_initialize+0x20>
 806e17c:	c6 40 20 01          	movb   $0x1,0x20(%eax)
 806e180:	89 d8                	mov    %ebx,%eax
 806e182:	e8 79 ff ff ff       	call   806e100 <do_tunable_update_val>
 806e187:	83 c4 18             	add    $0x18,%esp
 806e18a:	5b                   	pop    %ebx
 806e18b:	c3                   	ret    
 806e19f:	89 54 24 1c          	mov    %edx,0x1c(%esp)
 806e1a3:	83 c4 10             	add    $0x10,%esp
 806e1a6:	8d 54 24 08          	lea    0x8(%esp),%edx
 806e1aa:	89 d8                	mov    %ebx,%eax
 806e1ac:	e8 4f ff ff ff       	call   806e100 <do_tunable_update_val>
 806e1b1:	83 c4 18             	add    $0x18,%esp
 806e1b4:	5b                   	pop    %ebx
 806e1b5:	c3                   	ret    
 806e357:	85 c0                	test   %eax,%eax
 806e359:	0f 85 cd fe ff ff    	jne    806e22c <__tunables_init+0x4c>
 806e35f:	83 c4 3c             	add    $0x3c,%esp
 806e362:	5b                   	pop    %ebx
 806e363:	5e                   	pop    %esi
 806e364:	5f                   	pop    %edi
 806e365:	5d                   	pop    %ebp
 806e366:	c3                   	ret    
 806e760:	5e                   	pop    %esi
 806e761:	5f                   	pop    %edi
 806e762:	ff e0                	jmp    *%eax
 806e764:	8d 74 26 00          	lea    0x0(%esi,%eiz,1),%esi
 806e768:	5b                   	pop    %ebx
 806e769:	5e                   	pop    %esi
 806e76a:	5f                   	pop    %edi
 806e76b:	c3                   	ret    
 806e779:	eb c6                	jmp    806e741 <__tunable_get_val+0x31>
 806e77b:	66 90                	xchg   %ax,%ax
 806e77d:	66 90                	xchg   %ax,%ax
 806e77f:	90                   	nop

0806e780 <_dl_sysinfo_int80>:
 806e780:	cd 80                	int    $0x80
 806e782:	c3                   	ret    
 806ea23:	8b 44 24 14          	mov    0x14(%esp),%eax
 806ea27:	c7 00 01 00 00 00    	movl   $0x1,(%eax)
 806ea2d:	83 c4 74             	add    $0x74,%esp
 806ea30:	5b                   	pop    %ebx
 806ea31:	5e                   	pop    %esi
 806ea32:	5f                   	pop    %edi
 806ea33:	5d                   	pop    %ebp
 806ea34:	c3                   	ret    
 806f2e1:	39 f2                	cmp    %esi,%edx
 806f2e3:	75 eb                	jne    806f2d0 <_dl_non_dynamic_init+0x670>
 806f2e5:	83 c4 2c             	add    $0x2c,%esp
 806f2e8:	5b                   	pop    %ebx
 806f2e9:	5e                   	pop    %esi
 806f2ea:	5f                   	pop    %edi
 806f2eb:	5d                   	pop    %ebp
 806f2ec:	c3                   	ret    
 806f318:	8b 41 18             	mov    0x18(%ecx),%eax
 806f31b:	89 83 e0 09 00 00    	mov    %eax,0x9e0(%ebx)
 806f321:	83 c4 2c             	add    $0x2c,%esp
 806f324:	5b                   	pop    %ebx
 806f325:	5e                   	pop    %esi
 806f326:	5f                   	pop    %edi
 806f327:	5d                   	pop    %ebp
 806f328:	c3                   	ret    
 806f468:	e8 73 a4 fd ff       	call   80498e0 <__assert_fail>
 806f46d:	8d 76 00             	lea    0x0(%esi),%esi

0806f470 <_dl_get_dl_main_map>:
 806f470:	e8 b3 9e fd ff       	call   8049328 <__x86.get_pc_thunk.ax>
 806f475:	05 8b 9b 06 00       	add    $0x69b8b,%eax
 806f47a:	8d 80 a0 0a 00 00    	lea    0xaa0(%eax),%eax
 806f480:	c3                   	ret    
 806f4a0:	c7 c0 90 af 0d 08    	mov    $0x80daf90,%eax
 806f4a6:	8b 00                	mov    (%eax),%eax
 806f4a8:	85 c0                	test   %eax,%eax
 806f4aa:	74 0c                	je     806f4b8 <__libc_init_secure+0x28>
 806f4ac:	83 c4 04             	add    $0x4,%esp
 806f4af:	5b                   	pop    %ebx
 806f4b0:	5e                   	pop    %esi
 806f4b1:	c3                   	ret    
 806f4c4:	39 c6                	cmp    %eax,%esi
 806f4c6:	ba 01 00 00 00       	mov    $0x1,%edx
 806f4cb:	74 13                	je     806f4e0 <__libc_init_secure+0x50>
 806f4cd:	89 93 ac fd ff ff    	mov    %edx,-0x254(%ebx)
 806f4d3:	83 c4 04             	add    $0x4,%esp
 806f4d6:	5b                   	pop    %ebx
 806f4d7:	5e                   	pop    %esi
 806f4d8:	c3                   	ret    
 806f506:	81 c3 fa 9a 06 00    	add    $0x69afa,%ebx
 806f50c:	83 ec 10             	sub    $0x10,%esp
 806f50f:	ff 74 24 18          	pushl  0x18(%esp)
 806f513:	ff 74 24 18          	pushl  0x18(%esp)
 806f517:	e8 34 cf 02 00       	call   809c450 <_dl_mcount>
 806f51c:	83 c4 18             	add    $0x18,%esp
 806f51f:	5b                   	pop    %ebx
 806f520:	c3                   	ret    
 806f54b:	83 ec 08             	sub    $0x8,%esp
 806f54e:	ff 74 24 18          	pushl  0x18(%esp)
 806f552:	ff 74 24 18          	pushl  0x18(%esp)
 806f556:	e8 f5 ce 02 00       	call   809c450 <_dl_mcount>
 806f55b:	83 c4 10             	add    $0x10,%esp
 806f55e:	83 c4 08             	add    $0x8,%esp
 806f561:	5b                   	pop    %ebx
 806f562:	c3                   	ret    
 806f635:	84 d2                	test   %dl,%dl
 806f637:	0f 85 63 ff ff ff    	jne    806f5a0 <_dl_tunable_set_hwcaps+0x30>
 806f63d:	83 c4 1c             	add    $0x1c,%esp
 806f640:	5b                   	pop    %ebx
 806f641:	5e                   	pop    %esi
 806f642:	5f                   	pop    %edi
 806f643:	5d                   	pop    %ebp
 806f644:	c3                   	ret    
 8070225:	83 ff 03             	cmp    $0x3,%edi
 8070228:	75 b7                	jne    80701e1 <_dl_discover_osversion+0x31>
 807022a:	81 c4 dc 01 00 00    	add    $0x1dc,%esp
 8070230:	5b                   	pop    %ebx
 8070231:	5e                   	pop    %esi
 8070232:	5f                   	pop    %edi
 8070233:	5d                   	pop    %ebp
 8070234:	c3                   	ret    
 8070245:	29 f9                	sub    %edi,%ecx
 8070247:	c1 e1 03             	shl    $0x3,%ecx
 807024a:	5b                   	pop    %ebx
 807024b:	d3 e0                	shl    %cl,%eax
 807024d:	5e                   	pop    %esi
 807024e:	5f                   	pop    %edi
 807024f:	5d                   	pop    %ebp
 8070250:	c3                   	ret    
 8070317:	e8 14 da ff ff       	call   806dd30 <__init_misc>
 807031c:	e8 2f b0 00 00       	call   807b350 <__ctype_init>
 8070321:	83 c4 1c             	add    $0x1c,%esp
 8070324:	5b                   	pop    %ebx
 8070325:	5e                   	pop    %esi
 8070326:	5f                   	pop    %edi
 8070327:	5d                   	pop    %ebp
 8070328:	c3                   	ret    
08070380 <__syscall_error>:
 8070380:	e8 21 fe fd ff       	call   80501a6 <__x86.get_pc_thunk.dx>
 8070385:	81 c2 7b 8c 06 00    	add    $0x68c7b,%edx
 807038b:	f7 d8                	neg    %eax
 807038d:	c7 c2 e0 ff ff ff    	mov    $0xffffffe0,%edx
 8070393:	65 89 02             	mov    %eax,%gs:(%edx)
 8070396:	b8 ff ff ff ff       	mov    $0xffffffff,%eax
 807039b:	c3                   	ret    
 80704b3:	65 33 35 14 00 00 00 	xor    %gs:0x14,%esi
 80704ba:	0f 85 c4 03 00 00    	jne    8070884 <__gconv_open+0x4e4>
 80704c0:	8d 65 f4             	lea    -0xc(%ebp),%esp
 80704c3:	5b                   	pop    %ebx
 80704c4:	5e                   	pop    %esi
 80704c5:	5f                   	pop    %edi
 80704c6:	5d                   	pop    %ebp
 80704c7:	c3                   	ret    
 80709b1:	8b 5c 24 3c          	mov    0x3c(%esp),%ebx
 80709b5:	89 13                	mov    %edx,(%ebx)
 80709b7:	83 c4 1c             	add    $0x1c,%esp
 80709ba:	5b                   	pop    %ebx
 80709bb:	5e                   	pop    %esi
 80709bc:	5f                   	pop    %edi
 80709bd:	5d                   	pop    %ebp
 80709be:	c3                   	ret    
 8070a24:	85 c9                	test   %ecx,%ecx
 8070a26:	0f 85 70 ff ff ff    	jne    807099c <__gconv+0x10c>
 8070a2c:	83 c4 1c             	add    $0x1c,%esp
 8070a2f:	5b                   	pop    %ebx
 8070a30:	5e                   	pop    %esi
 8070a31:	5f                   	pop    %edi
 8070a32:	5d                   	pop    %ebp
 8070a33:	c3                   	ret    
 8070a34:	8d 74 26 00          	lea    0x0(%esi,%eiz,1),%esi
 8070a38:	83 c4 1c             	add    $0x1c,%esp
 8070a3b:	b8 08 00 00 00       	mov    $0x8,%eax
 8070a40:	5b                   	pop    %ebx
 8070a41:	5e                   	pop    %esi
 8070a42:	5f                   	pop    %edi
 8070a43:	5d                   	pop    %ebp
 8070a44:	c3                   	ret    
 8070ad3:	57                   	push   %edi
 8070ad4:	e8 17 10 00 00       	call   8071af0 <__gconv_close_transform>
 8070ad9:	83 c4 2c             	add    $0x2c,%esp
 8070adc:	5b                   	pop    %ebx
 8070add:	5e                   	pop    %esi
 8070ade:	5f                   	pop    %edi
 8070adf:	5d                   	pop    %ebp
 8070ae0:	c3                   	ret    
 8070aff:	8b 44 24 1c          	mov    0x1c(%esp),%eax
 8070b03:	ff 30                	pushl  (%eax)
 8070b05:	8b 44 24 1c          	mov    0x1c(%esp),%eax
 8070b09:	ff 30                	pushl  (%eax)
 8070b0b:	e8 10 77 fd ff       	call   8048220 <.plt+0x50>
 8070b10:	83 c4 18             	add    $0x18,%esp
 8070b13:	5b                   	pop    %ebx
 8070b14:	c3                   	ret    
 8070b4c:	ff 77 04             	pushl  0x4(%edi)
 8070b4f:	ff 76 04             	pushl  0x4(%esi)
 8070b52:	e8 c9 76 fd ff       	call   8048220 <.plt+0x50>
 8070b57:	83 c4 10             	add    $0x10,%esp
 8070b5a:	5b                   	pop    %ebx
 8070b5b:	5e                   	pop    %esi
 8070b5c:	5f                   	pop    %edi
 8070b5d:	c3                   	ret    
 8070b5d:	c3                   	ret    
 8070b5e:	66 90                	xchg   %ax,%ax

08070b60 <__gconv_get_modules_db>:
 8070b60:	e8 c3 87 fd ff       	call   8049328 <__x86.get_pc_thunk.ax>
 8070b65:	05 9b 84 06 00       	add    $0x6849b,%eax
 8070b6a:	8b 80 9c 1f 00 00    	mov    0x1f9c(%eax),%eax
 8070b70:	c3                   	ret    
 8070b7e:	90                   	nop
 8070b7f:	90                   	nop

08070b80 <__gconv_get_alias_db>:
 8070b80:	e8 a3 87 fd ff       	call   8049328 <__x86.get_pc_thunk.ax>
 8070b85:	05 7b 84 06 00       	add    $0x6847b,%eax
 8070b8a:	8b 80 a4 1f 00 00    	mov    0x1fa4(%eax),%eax
 8070b90:	c3                   	ret    
 8070be5:	52                   	push   %edx
 8070be6:	e8 b5 83 00 00       	call   8078fa0 <__gconv_release_shlib>
 8070beb:	c7 06 00 00 00 00    	movl   $0x0,(%esi)
 8070bf1:	83 c4 10             	add    $0x10,%esp
 8070bf4:	5b                   	pop    %ebx
 8070bf5:	5e                   	pop    %esi
 8070bf6:	5f                   	pop    %edi
 8070bf7:	c3                   	ret    
 80713d4:	8b 45 c4             	mov    -0x3c(%ebp),%eax
 80713d7:	0f 85 29 03 00 00    	jne    8071706 <find_derivation+0xad6>
 80713dd:	8d 65 f4             	lea    -0xc(%ebp),%esp
 80713e0:	5b                   	pop    %ebx
 80713e1:	5e                   	pop    %esi
 80713e2:	5f                   	pop    %edi
 80713e3:	5d                   	pop    %ebp
 80713e4:	c3                   	ret    
 8071777:	65 33 15 14 00 00 00 	xor    %gs:0x14,%edx
 807177e:	0f 85 9e 00 00 00    	jne    8071822 <__gconv_compare_alias+0x112>
 8071784:	83 c4 2c             	add    $0x2c,%esp
 8071787:	5b                   	pop    %ebx
 8071788:	5e                   	pop    %esi
 8071789:	5f                   	pop    %edi
 807178a:	5d                   	pop    %ebp
 807178b:	c3                   	ret    
 80718f6:	89 d0                	mov    %edx,%eax
 80718f8:	0f 85 ea 01 00 00    	jne    8071ae8 <__gconv_find_transform+0x2b8>
 80718fe:	83 c4 3c             	add    $0x3c,%esp
 8071901:	5b                   	pop    %ebx
 8071902:	5e                   	pop    %esi
 8071903:	5f                   	pop    %edi
 8071904:	5d                   	pop    %ebp
 8071905:	c3                   	ret    
 8071b7a:	e8 d1 c2 ff ff       	call   806de50 <__lll_unlock_wake_private>
 8071b7f:	83 c4 1c             	add    $0x1c,%esp
 8071b82:	31 c0                	xor    %eax,%eax
 8071b84:	5b                   	pop    %ebx
 8071b85:	5e                   	pop    %esi
 8071b86:	5f                   	pop    %edi
 8071b87:	5d                   	pop    %ebp
 8071b88:	c3                   	ret    
 8071be2:	8b 44 24 08          	mov    0x8(%esp),%eax
 8071be6:	89 06                	mov    %eax,(%esi)
 8071be8:	83 c4 1c             	add    $0x1c,%esp
 8071beb:	5b                   	pop    %ebx
 8071bec:	5e                   	pop    %esi
 8071bed:	5f                   	pop    %edi
 8071bee:	5d                   	pop    %ebp
 8071bef:	c3                   	ret    
 8071c88:	e8 53 ab fe ff       	call   805c7e0 <__free>
 8071c8d:	83 c4 10             	add    $0x10,%esp
 8071c90:	83 c4 1c             	add    $0x1c,%esp
 8071c93:	5b                   	pop    %ebx
 8071c94:	5e                   	pop    %esi
 8071c95:	5f                   	pop    %edi
 8071c96:	5d                   	pop    %ebp
 8071c97:	c3                   	ret    
 8071cdb:	8b 76 14             	mov    0x14(%esi),%esi
 8071cde:	85 f6                	test   %esi,%esi
 8071ce0:	75 e5                	jne    8071cc7 <detect_conflict+0x27>
 8071ce2:	5b                   	pop    %ebx
 8071ce3:	31 c0                	xor    %eax,%eax
 8071ce5:	5e                   	pop    %esi
 8071ce6:	5f                   	pop    %edi
 8071ce7:	c3                   	ret    
 8071ce7:	c3                   	ret    
 8071ce8:	90                   	nop
 8071ce9:	8d b4 26 00 00 00 00 	lea    0x0(%esi,%eiz,1),%esi
 8071cf0:	5b                   	pop    %ebx
 8071cf1:	b8 01 00 00 00       	mov    $0x1,%eax
 8071cf6:	5e                   	pop    %esi
 8071cf7:	5f                   	pop    %edi
 8071cf8:	c3                   	ret    
 8071d7c:	65 33 05 14 00 00 00 	xor    %gs:0x14,%eax
 8071d83:	0f 85 9e 02 00 00    	jne    8072027 <add_module.isra.0+0x327>
 8071d89:	8d 65 f4             	lea    -0xc(%ebp),%esp
 8071d8c:	5b                   	pop    %ebx
 8071d8d:	5e                   	pop    %esi
 8071d8e:	5f                   	pop    %edi
 8071d8f:	5d                   	pop    %ebp
 8071d90:	c3                   	ret    
 807209f:	e8 3c a7 fe ff       	call   805c7e0 <__free>
 80720a4:	83 c4 10             	add    $0x10,%esp
 80720a7:	83 c4 1c             	add    $0x1c,%esp
 80720aa:	5b                   	pop    %ebx
 80720ab:	5e                   	pop    %esi
 80720ac:	5f                   	pop    %edi
 80720ad:	5d                   	pop    %ebp
 80720ae:	c3                   	ret    
 807211f:	65 33 05 14 00 00 00 	xor    %gs:0x14,%eax
 8072126:	0f 85 e4 02 00 00    	jne    8072410 <__gconv_get_path+0x360>
 807212c:	8d 65 f4             	lea    -0xc(%ebp),%esp
 807212f:	5b                   	pop    %ebx
 8072130:	5e                   	pop    %esi
 8072131:	5f                   	pop    %edi
 8072132:	5d                   	pop    %ebp
 8072133:	c3                   	ret    
 80726f3:	65 33 05 14 00 00 00 	xor    %gs:0x14,%eax
 80726fa:	0f 85 a5 01 00 00    	jne    80728a5 <__gconv_read_conf+0x465>
 8072700:	8d 65 f4             	lea    -0xc(%ebp),%esp
 8072703:	5b                   	pop    %ebx
 8072704:	5e                   	pop    %esi
 8072705:	5f                   	pop    %edi
 8072706:	5d                   	pop    %ebp
 8072707:	c3                   	ret    
 807296e:	89 57 2c             	mov    %edx,0x2c(%edi)
 8072971:	89 47 30             	mov    %eax,0x30(%edi)
 8072974:	83 c4 0c             	add    $0xc,%esp
 8072977:	5b                   	pop    %ebx
 8072978:	5e                   	pop    %esi
 8072979:	5f                   	pop    %edi
 807297a:	5d                   	pop    %ebp
 807297b:	c3                   	ret    

08072980 <__gconv_btwoc_ascii>:
 8072980:	8b 54 24 08          	mov    0x8(%esp),%edx
 8072984:	84 d2                	test   %dl,%dl
 8072986:	0f b6 c2             	movzbl %dl,%eax
 8072989:	ba ff ff ff ff       	mov    $0xffffffff,%edx
 807298e:	0f 48 c2             	cmovs  %edx,%eax
 8072991:	c3                   	ret    
 8072be1:	89 f8                	mov    %edi,%eax
 8072be3:	0f 85 24 01 00 00    	jne    8072d0d <__gconv_transform_internal_ucs4+0x36d>
 8072be9:	83 c4 4c             	add    $0x4c,%esp
 8072bec:	5b                   	pop    %ebx
 8072bed:	5e                   	pop    %esi
 8072bee:	5f                   	pop    %edi
 8072bef:	5d                   	pop    %ebp
 8072bf0:	c3                   	ret    
 8072f81:	89 e8                	mov    %ebp,%eax
 8072f83:	0f 85 6c 02 00 00    	jne    80731f5 <__gconv_transform_ucs4_internal+0x4a5>
 8072f89:	83 c4 5c             	add    $0x5c,%esp
 8072f8c:	5b                   	pop    %ebx
 8072f8d:	5e                   	pop    %esi
 8072f8e:	5f                   	pop    %edi
 8072f8f:	5d                   	pop    %ebp
 8072f90:	c3                   	ret    
 80733d7:	89 f8                	mov    %edi,%eax
 80733d9:	0f 85 b2 01 00 00    	jne    8073591 <__gconv_transform_internal_ucs4le+0x371>
 80733df:	83 c4 4c             	add    $0x4c,%esp
 80733e2:	5b                   	pop    %ebx
 80733e3:	5e                   	pop    %esi
 80733e4:	5f                   	pop    %edi
 80733e5:	5d                   	pop    %ebp
 80733e6:	c3                   	ret    
 8073831:	89 e8                	mov    %ebp,%eax
 8073833:	0f 85 67 02 00 00    	jne    8073aa0 <__gconv_transform_ucs4le_internal+0x4b0>
 8073839:	83 c4 5c             	add    $0x5c,%esp
 807383c:	5b                   	pop    %ebx
 807383d:	5e                   	pop    %esi
 807383e:	5f                   	pop    %edi
 807383f:	5d                   	pop    %ebp
 8073840:	c3                   	ret    
 8073cf9:	8b 44 24 08          	mov    0x8(%esp),%eax
 8073cfd:	0f 85 2b 01 00 00    	jne    8073e2e <__gconv_transform_ascii_internal+0x33e>
 8073d03:	83 c4 4c             	add    $0x4c,%esp
 8073d06:	5b                   	pop    %ebx
 8073d07:	5e                   	pop    %esi
 8073d08:	5f                   	pop    %edi
 8073d09:	5d                   	pop    %ebp
 8073d0a:	c3                   	ret    
 8074053:	8b 44 24 0c          	mov    0xc(%esp),%eax
 8074057:	0f 85 38 06 00 00    	jne    8074695 <__gconv_transform_internal_ascii+0x855>
 807405d:	83 c4 7c             	add    $0x7c,%esp
 8074060:	5b                   	pop    %ebx
 8074061:	5e                   	pop    %esi
 8074062:	5f                   	pop    %edi
 8074063:	5d                   	pop    %ebp
 8074064:	c3                   	ret    
 8074829:	8b 44 24 08          	mov    0x8(%esp),%eax
 807482d:	0f 85 85 09 00 00    	jne    80751b8 <__gconv_transform_internal_utf8+0xb18>
 8074833:	83 c4 6c             	add    $0x6c,%esp
 8074836:	5b                   	pop    %ebx
 8074837:	5e                   	pop    %esi
 8074838:	5f                   	pop    %edi
 8074839:	5d                   	pop    %ebp
 807483a:	c3                   	ret    
 80754c1:	8b 44 24 18          	mov    0x18(%esp),%eax
 80754c5:	0f 85 94 0b 00 00    	jne    807605f <__gconv_transform_utf8_internal+0xe7f>
 80754cb:	81 c4 8c 00 00 00    	add    $0x8c,%esp
 80754d1:	5b                   	pop    %ebx
 80754d2:	5e                   	pop    %esi
 80754d3:	5f                   	pop    %edi
 80754d4:	5d                   	pop    %ebp
 80754d5:	c3                   	ret    
 8076321:	8b 44 24 0c          	mov    0xc(%esp),%eax
 8076325:	0f 85 c4 03 00 00    	jne    80766ef <__gconv_transform_ucs2_internal+0x61f>
 807632b:	83 c4 5c             	add    $0x5c,%esp
 807632e:	5b                   	pop    %ebx
 807632f:	5e                   	pop    %esi
 8076330:	5f                   	pop    %edi
 8076331:	5d                   	pop    %ebp
 8076332:	c3                   	ret    
 8076891:	8b 44 24 08          	mov    0x8(%esp),%eax
 8076895:	0f 85 28 06 00 00    	jne    8076ec3 <__gconv_transform_internal_ucs2+0x7c3>
 807689b:	83 c4 7c             	add    $0x7c,%esp
 807689e:	5b                   	pop    %ebx
 807689f:	5e                   	pop    %esi
 80768a0:	5f                   	pop    %edi
 80768a1:	5d                   	pop    %ebp
 80768a2:	c3                   	ret    
 8077251:	8b 44 24 14          	mov    0x14(%esp),%eax
 8077255:	0f 85 7f 03 00 00    	jne    80775da <__gconv_transform_ucs2reverse_internal+0x5da>
 807725b:	83 c4 5c             	add    $0x5c,%esp
 807725e:	5b                   	pop    %ebx
 807725f:	5e                   	pop    %esi
 8077260:	5f                   	pop    %edi
 8077261:	5d                   	pop    %ebp
 8077262:	c3                   	ret    
 80777b1:	8b 44 24 14          	mov    0x14(%esp),%eax
 80777b5:	0f 85 fb 05 00 00    	jne    8077db6 <__gconv_transform_internal_ucs2reverse+0x796>
 80777bb:	83 c4 7c             	add    $0x7c,%esp
 80777be:	5b                   	pop    %ebx
 80777bf:	5e                   	pop    %esi
 80777c0:	5f                   	pop    %edi
 80777c1:	5d                   	pop    %ebp
 80777c2:	c3                   	ret    
 8078139:	65 33 3d 14 00 00 00 	xor    %gs:0x14,%edi
 8078140:	0f 85 33 02 00 00    	jne    8078379 <__gconv_transliterate+0x489>
 8078146:	83 c4 7c             	add    $0x7c,%esp
 8078149:	5b                   	pop    %ebx
 807814a:	5e                   	pop    %esi
 807814b:	5f                   	pop    %edi
 807814c:	5d                   	pop    %ebp
 807814d:	c3                   	ret    
 8078444:	75 ca                	jne    8078410 <find_module_idx+0x90>
 8078446:	83 c4 2c             	add    $0x2c,%esp
 8078449:	b8 ff ff ff ff       	mov    $0xffffffff,%eax
 807844e:	5b                   	pop    %ebx
 807844f:	5e                   	pop    %esi
 8078450:	5f                   	pop    %edi
 8078451:	5d                   	pop    %ebp
 8078452:	c3                   	ret    
 8078464:	8b 5c 24 1c          	mov    0x1c(%esp),%ebx
 8078468:	89 13                	mov    %edx,(%ebx)
 807846a:	83 c4 2c             	add    $0x2c,%esp
 807846d:	5b                   	pop    %ebx
 807846e:	5e                   	pop    %esi
 807846f:	5f                   	pop    %edi
 8078470:	5d                   	pop    %ebp
 8078471:	c3                   	ret    
 8078567:	65 33 3d 14 00 00 00 	xor    %gs:0x14,%edi
 807856e:	75 08                	jne    8078578 <find_module+0xf8>
 8078570:	8d 65 f4             	lea    -0xc(%ebp),%esp
 8078573:	5b                   	pop    %ebx
 8078574:	5e                   	pop    %esi
 8078575:	5f                   	pop    %edi
 8078576:	5d                   	pop    %ebp
 8078577:	c3                   	ret    
 8078578:	e8 53 5a ff ff       	call   806dfd0 <__stack_chk_fail>
 807857d:	8d 76 00             	lea    0x0(%esi),%esi

08078580 <__gconv_get_cache>:
 8078580:	e8 a3 0d fd ff       	call   8049328 <__x86.get_pc_thunk.ax>
 8078585:	05 7b 0a 06 00       	add    $0x60a7b,%eax
 807858a:	8b 80 74 19 00 00    	mov    0x1974(%eax),%eax
 8078590:	c3                   	ret    
 80786d7:	65 33 3d 14 00 00 00 	xor    %gs:0x14,%edi
 80786de:	0f 85 bb 00 00 00    	jne    807879f <__gconv_load_cache+0x1ff>
 80786e4:	83 c4 7c             	add    $0x7c,%esp
 80786e7:	5b                   	pop    %ebx
 80786e8:	5e                   	pop    %esi
 80786e9:	5f                   	pop    %edi
 80786ea:	5d                   	pop    %ebp
 80786eb:	c3                   	ret    
 8078808:	65 33 0d 14 00 00 00 	xor    %gs:0x14,%ecx
 807880f:	75 36                	jne    8078847 <__gconv_compare_alias_cache+0x97>
 8078811:	83 c4 1c             	add    $0x1c,%esp
 8078814:	5b                   	pop    %ebx
 8078815:	5e                   	pop    %esi
 8078816:	5f                   	pop    %edi
 8078817:	5d                   	pop    %ebp
 8078818:	c3                   	ret    
 80788de:	89 f8                	mov    %edi,%eax
 80788e0:	0f 85 98 03 00 00    	jne    8078c7e <__gconv_lookup_cache+0x42e>
 80788e6:	83 c4 4c             	add    $0x4c,%esp
 80788e9:	5b                   	pop    %ebx
 80788ea:	5e                   	pop    %esi
 80788eb:	5f                   	pop    %edi
 80788ec:	5d                   	pop    %ebp
 80788ed:	c3                   	ret    
 8078cc7:	74 0f                	je     8078cd8 <__gconv_release_cache+0x28>
 8078cc9:	83 ec 0c             	sub    $0xc,%esp
 8078ccc:	ff 74 24 1c          	pushl  0x1c(%esp)
 8078cd0:	e8 0b 3b fe ff       	call   805c7e0 <__free>
 8078cd5:	83 c4 10             	add    $0x10,%esp
 8078cd8:	83 c4 08             	add    $0x8,%esp
 8078cdb:	5b                   	pop    %ebx
 8078cdc:	c3                   	ret    
 8078cef:	8b 44 24 1c          	mov    0x1c(%esp),%eax
 8078cf3:	ff 30                	pushl  (%eax)
 8078cf5:	8b 44 24 1c          	mov    0x1c(%esp),%eax
 8078cf9:	ff 30                	pushl  (%eax)
 8078cfb:	e8 20 f5 fc ff       	call   8048220 <.plt+0x50>
 8078d00:	83 c4 18             	add    $0x18,%esp
 8078d03:	5b                   	pop    %ebx
 8078d04:	c3                   	ret    
 8078d24:	85 c0                	test   %eax,%eax
 8078d26:	74 10                	je     8078d38 <do_release_shlib+0x28>
 8078d28:	83 f8 03             	cmp    $0x3,%eax
 8078d2b:	74 0b                	je     8078d38 <do_release_shlib+0x28>
 8078d2d:	83 c4 04             	add    $0x4,%esp
 8078d30:	5b                   	pop    %ebx
 8078d31:	5e                   	pop    %esi
 8078d32:	c3                   	ret    
 8078d80:	85 c0                	test   %eax,%eax
 8078d82:	7e 0c                	jle    8078d90 <do_release_shlib+0x80>
 8078d84:	83 e8 01             	sub    $0x1,%eax
 8078d87:	89 46 04             	mov    %eax,0x4(%esi)
 8078d8a:	83 c4 04             	add    $0x4,%esp
 8078d8d:	5b                   	pop    %ebx
 8078d8e:	5e                   	pop    %esi
 8078d8f:	c3                   	ret    
 8078e9a:	c1 c2 09             	rol    $0x9,%edx
 8078e9d:	89 56 10             	mov    %edx,0x10(%esi)
 8078ea0:	83 c4 1c             	add    $0x1c,%esp
 8078ea3:	5b                   	pop    %ebx
 8078ea4:	5e                   	pop    %esi
 8078ea5:	5f                   	pop    %edi
 8078ea6:	5d                   	pop    %ebp
 8078ea7:	c3                   	ret    
 8078ec1:	89 46 04             	mov    %eax,0x4(%esi)
 8078ec4:	83 c4 1c             	add    $0x1c,%esp
 8078ec7:	89 f0                	mov    %esi,%eax
 8078ec9:	5b                   	pop    %ebx
 8078eca:	5e                   	pop    %esi
 8078ecb:	5f                   	pop    %edi
 8078ecc:	5d                   	pop    %ebp
 8078ecd:	c3                   	ret    
 8078f46:	83 c4 1c             	add    $0x1c,%esp
 8078f49:	31 f6                	xor    %esi,%esi
 8078f4b:	5b                   	pop    %ebx
 8078f4c:	89 f0                	mov    %esi,%eax
 8078f4e:	5e                   	pop    %esi
 8078f4f:	5f                   	pop    %edi
 8078f50:	5d                   	pop    %ebp
 8078f51:	c3                   	ret    
 8078fb3:	89 83 78 19 00 00    	mov    %eax,0x1978(%ebx)
 8078fb9:	8d 83 10 fd f9 ff    	lea    -0x602f0(%ebx),%eax
 8078fbf:	50                   	push   %eax
 8078fc0:	ff b3 7c 19 00 00    	pushl  0x197c(%ebx)
 8078fc6:	e8 65 46 ff ff       	call   806d630 <__twalk>
 8078fcb:	83 c4 18             	add    $0x18,%esp
 8078fce:	5b                   	pop    %ebx
 8078fcf:	c3                   	ret    
 80790c6:	0f 85 b4 00 00 00    	jne    8079180 <new_composite_name+0x1b0>
 80790cc:	8b 44 24 04          	mov    0x4(%esp),%eax
 80790d0:	83 c4 1c             	add    $0x1c,%esp
 80790d3:	5b                   	pop    %ebx
 80790d4:	5e                   	pop    %esi
 80790d5:	5f                   	pop    %edi
 80790d6:	5d                   	pop    %ebp
 80790d7:	c3                   	ret    
 8079170:	c6 00 00             	movb   $0x0,(%eax)
 8079173:	8b 44 24 04          	mov    0x4(%esp),%eax
 8079177:	83 c4 1c             	add    $0x1c,%esp
 807917a:	5b                   	pop    %ebx
 807917b:	5e                   	pop    %esi
 807917c:	5f                   	pop    %edi
 807917d:	5d                   	pop    %ebp
 807917e:	c3                   	ret    
 80791a2:	83 c4 10             	add    $0x10,%esp
 80791a5:	8b 44 24 04          	mov    0x4(%esp),%eax
 80791a9:	83 c4 1c             	add    $0x1c,%esp
 80791ac:	5b                   	pop    %ebx
 80791ad:	5e                   	pop    %esi
 80791ae:	5f                   	pop    %edi
 80791af:	5d                   	pop    %ebp
 80791b0:	c3                   	ret    
 8079296:	89 c8                	mov    %ecx,%eax
 8079298:	0f 85 91 06 00 00    	jne    807992f <setlocale+0x74f>
 807929e:	81 c4 ac 00 00 00    	add    $0xac,%esp
 80792a4:	5b                   	pop    %ebx
 80792a5:	5e                   	pop    %esi
 80792a6:	5f                   	pop    %edi
 80792a7:	5d                   	pop    %ebp
 80792a8:	c3                   	ret    
 80799dd:	c6 02 2f             	movb   $0x2f,(%edx)
 80799e0:	c6 00 00             	movb   $0x0,(%eax)
 80799e3:	83 c4 10             	add    $0x10,%esp
 80799e6:	5b                   	pop    %ebx
 80799e7:	5e                   	pop    %esi
 80799e8:	5f                   	pop    %edi
 80799e9:	5d                   	pop    %ebp
 80799ea:	c3                   	ret    
 8079a10:	89 d0                	mov    %edx,%eax
 8079a12:	c6 00 00             	movb   $0x0,(%eax)
 8079a15:	83 c4 10             	add    $0x10,%esp
 8079a18:	5b                   	pop    %ebx
 8079a19:	5e                   	pop    %esi
 8079a1a:	5f                   	pop    %edi
 8079a1b:	5d                   	pop    %ebp
 8079a1c:	c3                   	ret    
 8079b35:	65 33 0d 14 00 00 00 	xor    %gs:0x14,%ecx
 8079b3c:	0f 85 c5 04 00 00    	jne    807a007 <_nl_find_locale+0x5d7>
 8079b42:	8d 65 f4             	lea    -0xc(%ebp),%esp
 8079b45:	5b                   	pop    %ebx
 8079b46:	5e                   	pop    %esi
 8079b47:	5f                   	pop    %edi
 8079b48:	5d                   	pop    %ebp
 8079b49:	c3                   	ret    
 807a066:	75 f8                	jne    807a060 <_nl_remove_locale+0x30>
 807a068:	c7 40 04 00 00 00 00 	movl   $0x0,0x4(%eax)
 807a06f:	c7 40 08 00 00 00 00 	movl   $0x0,0x8(%eax)
 807a076:	89 54 24 08          	mov    %edx,0x8(%esp)
 807a07a:	5b                   	pop    %ebx
 807a07b:	e9 d0 05 00 00       	jmp    807a650 <_nl_unload_locale>
 807a080:	5b                   	pop    %ebx
 807a081:	c3                   	ret    
 807a0fa:	85 c0                	test   %eax,%eax
 807a0fc:	75 32                	jne    807a130 <_nl_intern_locale_data+0xa0>
 807a0fe:	83 c4 1c             	add    $0x1c,%esp
 807a101:	5b                   	pop    %ebx
 807a102:	5e                   	pop    %esi
 807a103:	5f                   	pop    %edi
 807a104:	5d                   	pop    %ebp
 807a105:	c3                   	ret    
 807a116:	65 c7 00 16 00 00 00 	movl   $0x16,%gs:(%eax)
 807a11d:	83 c4 1c             	add    $0x1c,%esp
 807a120:	31 c0                	xor    %eax,%eax
 807a122:	5b                   	pop    %ebx
 807a123:	5e                   	pop    %esi
 807a124:	5f                   	pop    %edi
 807a125:	5d                   	pop    %ebp
 807a126:	c3                   	ret    
 807a1b3:	65 c7 00 16 00 00 00 	movl   $0x16,%gs:(%eax)
 807a1ba:	83 c4 1c             	add    $0x1c,%esp
 807a1bd:	31 c0                	xor    %eax,%eax
 807a1bf:	5b                   	pop    %ebx
 807a1c0:	5e                   	pop    %esi
 807a1c1:	5f                   	pop    %edi
 807a1c2:	5d                   	pop    %ebp
 807a1c3:	c3                   	ret    
 807a3ed:	65 33 05 14 00 00 00 	xor    %gs:0x14,%eax
 807a3f4:	0f 85 47 02 00 00    	jne    807a641 <_nl_load_locale+0x351>
 807a3fa:	8d 65 f4             	lea    -0xc(%ebp),%esp
 807a3fd:	5b                   	pop    %ebx
 807a3fe:	5e                   	pop    %esi
 807a3ff:	5f                   	pop    %edi
 807a400:	5d                   	pop    %ebp
 807a401:	c3                   	ret    
 807a68f:	83 c4 10             	add    $0x10,%esp
 807a692:	83 ec 0c             	sub    $0xc,%esp
 807a695:	56                   	push   %esi
 807a696:	e8 45 21 fe ff       	call   805c7e0 <__free>
 807a69b:	83 c4 14             	add    $0x14,%esp
 807a69e:	5b                   	pop    %ebx
 807a69f:	5e                   	pop    %esi
 807a6a0:	c3                   	ret    
 807a6df:	90                   	nop

0807a6e0 <rangecmp>:
 807a6e0:	8b 44 24 04          	mov    0x4(%esp),%eax
 807a6e4:	8b 54 24 08          	mov    0x8(%esp),%edx
 807a6e8:	8b 00                	mov    (%eax),%eax
 807a6ea:	2b 02                	sub    (%edx),%eax
 807a6ec:	c3                   	ret    
 807a78b:	65 33 1d 14 00 00 00 	xor    %gs:0x14,%ebx
 807a792:	0f 85 4b 0a 00 00    	jne    807b1e3 <_nl_load_locale_from_archive+0xaf3>
 807a798:	8d 65 f4             	lea    -0xc(%ebp),%esp
 807a79b:	5b                   	pop    %ebx
 807a79c:	5e                   	pop    %esi
 807a79d:	5f                   	pop    %edi
 807a79e:	5d                   	pop    %ebp
 807a79f:	c3                   	ret    
 807b2ba:	c7 c3 f4 ff ff ff    	mov    $0xfffffff4,%ebx
 807b2c0:	c7 c0 f0 ff ff ff    	mov    $0xfffffff0,%eax
 807b2c6:	65 89 0b             	mov    %ecx,%gs:(%ebx)
 807b2c9:	65 89 10             	mov    %edx,%gs:(%eax)
 807b2cc:	5b                   	pop    %ebx
 807b2cd:	5e                   	pop    %esi
 807b2ce:	5f                   	pop    %edi
 807b2cf:	c3                   	ret    
0807b2d0 <__current_locale_name>:
 807b2d0:	e8 53 e0 fc ff       	call   8049328 <__x86.get_pc_thunk.ax>
 807b2d5:	05 2b dd 05 00       	add    $0x5dd2b,%eax
 807b2da:	8b 54 24 04          	mov    0x4(%esp),%edx
 807b2de:	c7 c0 d4 ff ff ff    	mov    $0xffffffd4,%eax
 807b2e4:	65 8b 00             	mov    %gs:(%eax),%eax
 807b2e7:	8b 44 90 40          	mov    0x40(%eax,%edx,4),%eax
 807b2eb:	c3                   	ret    
 807b2ee:	66 90                	xchg   %ax,%ax

0807b2f0 <__ctype_b_loc>:
 807b2f0:	e8 33 e0 fc ff       	call   8049328 <__x86.get_pc_thunk.ax>
 807b2f5:	05 0b dd 05 00       	add    $0x5dd0b,%eax
 807b2fa:	c7 c0 f8 ff ff ff    	mov    $0xfffffff8,%eax
 807b300:	65 03 05 00 00 00 00 	add    %gs:0x0,%eax
 807b307:	c3                   	ret    
 807b309:	8d b4 26 00 00 00 00 	lea    0x0(%esi,%eiz,1),%esi

0807b310 <__ctype_toupper_loc>:
 807b310:	e8 13 e0 fc ff       	call   8049328 <__x86.get_pc_thunk.ax>
 807b315:	05 eb dc 05 00       	add    $0x5dceb,%eax
 807b31a:	c7 c0 f4 ff ff ff    	mov    $0xfffffff4,%eax
 807b320:	65 03 05 00 00 00 00 	add    %gs:0x0,%eax
 807b327:	c3                   	ret    
 807b329:	8d b4 26 00 00 00 00 	lea    0x0(%esi,%eiz,1),%esi

0807b330 <__ctype_tolower_loc>:
 807b330:	e8 f3 df fc ff       	call   8049328 <__x86.get_pc_thunk.ax>
 807b335:	05 cb dc 05 00       	add    $0x5dccb,%eax
 807b33a:	c7 c0 f0 ff ff ff    	mov    $0xfffffff0,%eax
 807b340:	65 03 05 00 00 00 00 	add    %gs:0x0,%eax
 807b347:	c3                   	ret    
 807b381:	81 c1 00 02 00 00    	add    $0x200,%ecx
 807b387:	65 89 0b             	mov    %ecx,%gs:(%ebx)
 807b38a:	c7 c1 f0 ff ff ff    	mov    $0xfffffff0,%ecx
 807b390:	8b 42 30             	mov    0x30(%edx),%eax
 807b393:	05 00 02 00 00       	add    $0x200,%eax
 807b398:	65 89 01             	mov    %eax,%gs:(%ecx)
 807b39b:	5b                   	pop    %ebx
 807b39c:	c3                   	ret    
 807b417:	89 44 24 08          	mov    %eax,0x8(%esp)
 807b41b:	0f ae 54 24 08       	ldmxcsr 0x8(%esp)
 807b420:	8b 44 24 0c          	mov    0xc(%esp),%eax
 807b424:	65 33 05 14 00 00 00 	xor    %gs:0x14,%eax
 807b42b:	75 05                	jne    807b432 <__setfpucw+0x92>
 807b42d:	83 c4 18             	add    $0x18,%esp
 807b430:	5b                   	pop    %ebx
 807b431:	c3                   	ret    
 807b510:	89 f8                	mov    %edi,%eax
 807b512:	75 15                	jne    807b529 <raise+0xe9>
 807b514:	81 c4 1c 01 00 00    	add    $0x11c,%esp
 807b51a:	5b                   	pop    %ebx
 807b51b:	5e                   	pop    %esi
 807b51c:	5f                   	pop    %edi
 807b51d:	5d                   	pop    %ebp
 807b51e:	c3                   	ret    
 807b64e:	65 33 1d 14 00 00 00 	xor    %gs:0x14,%ebx
 807b655:	75 40                	jne    807b697 <__libc_sigaction+0x157>
 807b657:	81 c4 2c 01 00 00    	add    $0x12c,%esp
 807b65d:	5b                   	pop    %ebx
 807b65e:	5e                   	pop    %esi
 807b65f:	5f                   	pop    %edi
 807b660:	5d                   	pop    %ebp
 807b661:	c3                   	ret    
 807b6b2:	83 f8 01             	cmp    $0x1,%eax
 807b6b5:	76 09                	jbe    807b6c0 <__sigaction+0x20>
 807b6b7:	e9 84 fe ff ff       	jmp    807b540 <__libc_sigaction>
 807b6bc:	8d 74 26 00          	lea    0x0(%esi,%eiz,1),%esi
 807b6c0:	c7 c0 e0 ff ff ff    	mov    $0xffffffe0,%eax
 807b6c6:	65 c7 00 16 00 00 00 	movl   $0x16,%gs:(%eax)
 807b6cd:	b8 ff ff ff ff       	mov    $0xffffffff,%eax
 807b6d2:	c3                   	ret    
 807b739:	8b bc 24 8c 00 00 00 	mov    0x8c(%esp),%edi
 807b740:	65 33 3d 14 00 00 00 	xor    %gs:0x14,%edi
 807b747:	75 3e                	jne    807b787 <__sigprocmask+0xa7>
 807b749:	81 c4 90 00 00 00    	add    $0x90,%esp
 807b74f:	5b                   	pop    %ebx
 807b750:	5e                   	pop    %esi
 807b751:	5f                   	pop    %edi
 807b752:	c3                   	ret    
 807ba94:	65 33 05 14 00 00 00 	xor    %gs:0x14,%eax
 807ba9b:	0f 85 b2 01 00 00    	jne    807bc53 <_quicksort+0x4c3>
 807baa1:	81 c4 4c 01 00 00    	add    $0x14c,%esp
 807baa7:	5b                   	pop    %ebx
 807baa8:	5e                   	pop    %esi
 807baa9:	5f                   	pop    %edi
 807baaa:	5d                   	pop    %ebp
 807baab:	c3                   	ret    
 807bddd:	65 33 0d 14 00 00 00 	xor    %gs:0x14,%ecx
 807bde4:	0f 85 04 02 00 00    	jne    807bfee <__add_to_environ+0x38e>
 807bdea:	8d 65 f4             	lea    -0xc(%ebp),%esp
 807bded:	5b                   	pop    %ebx
 807bdee:	5e                   	pop    %esi
 807bdef:	5f                   	pop    %edi
 807bdf0:	5d                   	pop    %ebp
 807bdf1:	c3                   	ret    
 807c035:	ff 74 24 1c          	pushl  0x1c(%esp)
 807c039:	56                   	push   %esi
 807c03a:	e8 21 fc ff ff       	call   807bc60 <__add_to_environ>
 807c03f:	83 c4 10             	add    $0x10,%esp
 807c042:	83 c4 04             	add    $0x4,%esp
 807c045:	5b                   	pop    %ebx
 807c046:	5e                   	pop    %esi
 807c047:	c3                   	ret    
 807c049:	8d b4 26 00 00 00 00 	lea    0x0(%esi,%eiz,1),%esi
 807c050:	c7 c0 e0 ff ff ff    	mov    $0xffffffe0,%eax
 807c056:	65 c7 00 16 00 00 00 	movl   $0x16,%gs:(%eax)
 807c05d:	83 c4 04             	add    $0x4,%esp
 807c060:	b8 ff ff ff ff       	mov    $0xffffffff,%eax
 807c065:	5b                   	pop    %ebx
 807c066:	5e                   	pop    %esi
 807c067:	c3                   	ret    
 807c13b:	e8 10 1d ff ff       	call   806de50 <__lll_unlock_wake_private>
 807c140:	31 c0                	xor    %eax,%eax
 807c142:	83 c4 1c             	add    $0x1c,%esp
 807c145:	5b                   	pop    %ebx
 807c146:	5e                   	pop    %esi
 807c147:	5f                   	pop    %edi
 807c148:	5d                   	pop    %ebp
 807c149:	c3                   	ret    
 807c1f2:	74 0b                	je     807c1ff <__clearenv+0x6f>
 807c1f4:	8d 83 3c 1a 00 00    	lea    0x1a3c(%ebx),%eax
 807c1fa:	e8 51 1c ff ff       	call   806de50 <__lll_unlock_wake_private>
 807c1ff:	83 c4 04             	add    $0x4,%esp
 807c202:	31 c0                	xor    %eax,%eax
 807c204:	5b                   	pop    %ebx
 807c205:	5e                   	pop    %esi
 807c206:	c3                   	ret    
 807c249:	75 15                	jne    807c260 <__libc_secure_getenv+0x30>
 807c24b:	83 ec 0c             	sub    $0xc,%esp
 807c24e:	ff 74 24 1c          	pushl  0x1c(%esp)
 807c252:	e8 c9 29 fd ff       	call   804ec20 <getenv>
 807c257:	83 c4 10             	add    $0x10,%esp
 807c25a:	83 c4 08             	add    $0x8,%esp
 807c25d:	5b                   	pop    %ebx
 807c25e:	c3                   	ret    
 807c25a:	83 c4 08             	add    $0x8,%esp
 807c25d:	5b                   	pop    %ebx
 807c25e:	c3                   	ret    
 807c25f:	90                   	nop
 807c260:	83 c4 08             	add    $0x8,%esp
 807c263:	31 c0                	xor    %eax,%eax
 807c265:	5b                   	pop    %ebx
 807c266:	c3                   	ret    
 807c288:	ff 74 24 2c          	pushl  0x2c(%esp)
 807c28c:	ff 74 24 2c          	pushl  0x2c(%esp)
 807c290:	ff 74 24 2c          	pushl  0x2c(%esp)
 807c294:	ff 74 24 2c          	pushl  0x2c(%esp)
 807c298:	e8 43 00 00 00       	call   807c2e0 <____strtol_l_internal>
 807c29d:	83 c4 28             	add    $0x28,%esp
 807c2a0:	5b                   	pop    %ebx
 807c2a1:	c3                   	ret    
 807c2c8:	6a 00                	push   $0x0
 807c2ca:	ff 74 24 2c          	pushl  0x2c(%esp)
 807c2ce:	ff 74 24 2c          	pushl  0x2c(%esp)
 807c2d2:	ff 74 24 2c          	pushl  0x2c(%esp)
 807c2d6:	e8 05 00 00 00       	call   807c2e0 <____strtol_l_internal>
 807c2db:	83 c4 28             	add    $0x28,%esp
 807c2de:	5b                   	pop    %ebx
 807c2df:	c3                   	ret    
 807c323:	65 c7 00 16 00 00 00 	movl   $0x16,%gs:(%eax)
 807c32a:	31 c0                	xor    %eax,%eax
 807c32c:	83 c4 3c             	add    $0x3c,%esp
 807c32f:	5b                   	pop    %ebx
 807c330:	5e                   	pop    %esi
 807c331:	5f                   	pop    %edi
 807c332:	5d                   	pop    %ebp
 807c333:	c3                   	ret    
 807c813:	ff 74 24 28          	pushl  0x28(%esp)
 807c817:	6a 00                	push   $0x0
 807c819:	ff 74 24 2c          	pushl  0x2c(%esp)
 807c81d:	ff 74 24 2c          	pushl  0x2c(%esp)
 807c821:	ff 74 24 2c          	pushl  0x2c(%esp)
 807c825:	e8 b6 fa ff ff       	call   807c2e0 <____strtol_l_internal>
 807c82a:	83 c4 2c             	add    $0x2c,%esp
 807c82d:	c3                   	ret    
 807c883:	eb dd                	jmp    807c862 <read_int+0x32>
 807c885:	8d 76 00             	lea    0x0(%esi),%esi
 807c888:	5b                   	pop    %ebx
 807c889:	89 c8                	mov    %ecx,%eax
 807c88b:	5e                   	pop    %esi
 807c88c:	5f                   	pop    %edi
 807c88d:	5d                   	pop    %ebp
 807c88e:	c3                   	ret    
 807c8ce:	76 10                	jbe    807c8e0 <group_number+0x50>
 807c8d0:	83 c4 2c             	add    $0x2c,%esp
 807c8d3:	89 f0                	mov    %esi,%eax
 807c8d5:	5b                   	pop    %ebx
 807c8d6:	5e                   	pop    %esi
 807c8d7:	5f                   	pop    %edi
 807c8d8:	5d                   	pop    %ebp
 807c8d9:	c3                   	ret    
 807c9c1:	83 c4 10             	add    $0x10,%esp
 807c9c4:	89 f0                	mov    %esi,%eax
 807c9c6:	83 c4 2c             	add    $0x2c,%esp
 807c9c9:	5b                   	pop    %ebx
 807c9ca:	5e                   	pop    %esi
 807c9cb:	5f                   	pop    %edi
 807c9cc:	5d                   	pop    %ebp
 807c9cd:	c3                   	ret    
 807caf5:	89 f8                	mov    %edi,%eax
 807caf7:	0f 85 63 01 00 00    	jne    807cc60 <_i18n_number_rewrite+0x280>
 807cafd:	81 c4 6c 04 00 00    	add    $0x46c,%esp
 807cb03:	5b                   	pop    %ebx
 807cb04:	5e                   	pop    %esi
 807cb05:	5f                   	pop    %edi
 807cb06:	5d                   	pop    %ebp
 807cb07:	c3                   	ret    
 807cd09:	89 4e 14             	mov    %ecx,0x14(%esi)
 807cd0c:	88 1a                	mov    %bl,(%edx)
 807cd0e:	83 c4 1c             	add    $0x1c,%esp
 807cd11:	5b                   	pop    %ebx
 807cd12:	5e                   	pop    %esi
 807cd13:	5f                   	pop    %edi
 807cd14:	5d                   	pop    %ebp
 807cd15:	c3                   	ret    
 807d75f:	89 f0                	mov    %esi,%eax
 807d761:	0f 85 f8 1c 00 00    	jne    807f45f <printf_positional+0x270f>
 807d767:	8d 65 f4             	lea    -0xc(%ebp),%esp
 807d76a:	5b                   	pop    %ebx
 807d76b:	5e                   	pop    %esi
 807d76c:	5f                   	pop    %edi
 807d76d:	5d                   	pop    %ebp
 807d76e:	c3                   	ret    
 807f5f8:	8b 85 90 fb ff ff    	mov    -0x470(%ebp),%eax
 807f5fe:	0f 85 c3 26 00 00    	jne    8081cc7 <_IO_vfprintf+0x2847>
 807f604:	8d 65 f4             	lea    -0xc(%ebp),%esp
 807f607:	5b                   	pop    %ebx
 807f608:	5e                   	pop    %esi
 807f609:	5f                   	pop    %edi
 807f60a:	5d                   	pop    %ebp
 807f60b:	c3                   	ret    
 8081fc8:	65 33 3d 14 00 00 00 	xor    %gs:0x14,%edi
 8081fcf:	75 51                	jne    8082022 <buffered_vfprintf+0x202>
 8081fd1:	81 c4 dc 20 00 00    	add    $0x20dc,%esp
 8081fd7:	5b                   	pop    %ebx
 8081fd8:	5e                   	pop    %esi
 8081fd9:	5f                   	pop    %edi
 8081fda:	5d                   	pop    %ebp
 8081fdb:	c3                   	ret    
 80820ae:	89 43 10             	mov    %eax,0x10(%ebx)
 80820b1:	75 ed                	jne    80820a0 <hack_digit+0x70>
 80820b3:	c7 43 10 01 00 00 00 	movl   $0x1,0x10(%ebx)
 80820ba:	89 f0                	mov    %esi,%eax
 80820bc:	5b                   	pop    %ebx
 80820bd:	5e                   	pop    %esi
 80820be:	5f                   	pop    %edi
 80820bf:	c3                   	ret    
 80820dc:	8d 7a 01             	lea    0x1(%edx),%edi
 80820df:	89 7b 10             	mov    %edi,0x10(%ebx)
 80820e2:	89 04 91             	mov    %eax,(%ecx,%edx,4)
 80820e5:	89 f0                	mov    %esi,%eax
 80820e7:	5b                   	pop    %ebx
 80820e8:	5e                   	pop    %esi
 80820e9:	5f                   	pop    %edi
 80820ea:	c3                   	ret    
 8082101:	e8 3a cf 01 00       	call   809f040 <__mpn_mul_1>
 8082106:	83 c4 10             	add    $0x10,%esp
 8082109:	89 03                	mov    %eax,(%ebx)
 808210b:	89 f0                	mov    %esi,%eax
 808210d:	5b                   	pop    %ebx
 808210e:	5e                   	pop    %esi
 808210f:	5f                   	pop    %edi
 8082110:	c3                   	ret    
 8082123:	85 d2                	test   %edx,%edx
 8082125:	89 48 08             	mov    %ecx,0x8(%eax)
 8082128:	0f 8e 15 ff ff ff    	jle    8082043 <hack_digit+0x13>
 808212e:	89 f0                	mov    %esi,%eax
 8082130:	5b                   	pop    %ebx
 8082131:	5e                   	pop    %esi
 8082132:	5f                   	pop    %edi
 8082133:	c3                   	ret    
 8082255:	89 f8                	mov    %edi,%eax
 8082257:	0f 85 63 01 00 00    	jne    80823c0 <_i18n_number_rewrite+0x280>
 808225d:	81 c4 6c 04 00 00    	add    $0x46c,%esp
 8082263:	5b                   	pop    %ebx
 8082264:	5e                   	pop    %esi
 8082265:	5f                   	pop    %edi
 8082266:	5d                   	pop    %ebp
 8082267:	c3                   	ret    
 80823f4:	74 12                	je     8082408 <__guess_grouping.part.0+0x38>
 80823f6:	0f be f1             	movsbl %cl,%esi
 80823f9:	39 f0                	cmp    %esi,%eax
 80823fb:	77 e3                	ja     80823e0 <__guess_grouping.part.0+0x10>
 80823fd:	89 d8                	mov    %ebx,%eax
 80823ff:	5b                   	pop    %ebx
 8082400:	5e                   	pop    %esi
 8082401:	c3                   	ret    
 8082408:	83 e8 01             	sub    $0x1,%eax
 808240b:	31 d2                	xor    %edx,%edx
 808240d:	f7 f6                	div    %esi
 808240f:	01 c3                	add    %eax,%ebx
 8082411:	89 d8                	mov    %ebx,%eax
 8082413:	5b                   	pop    %ebx
 8082414:	5e                   	pop    %esi
 8082415:	c3                   	ret    
 8082928:	89 f0                	mov    %esi,%eax
 808292a:	0f 85 d2 23 00 00    	jne    8084d02 <__printf_fp_l+0x28e2>
 8082930:	8d 65 f4             	lea    -0xc(%ebp),%esp
 8082933:	5b                   	pop    %ebx
 8082934:	5e                   	pop    %esi
 8082935:	5f                   	pop    %edi
 8082936:	5d                   	pop    %ebp
 8082937:	c3                   	ret    
 8084d7d:	c7 c0 d4 ff ff ff    	mov    $0xffffffd4,%eax
 8084d83:	ff 74 24 18          	pushl  0x18(%esp)
 8084d87:	ff 74 24 18          	pushl  0x18(%esp)
 8084d8b:	65 ff 30             	pushl  %gs:(%eax)
 8084d8e:	ff 74 24 1c          	pushl  0x1c(%esp)
 8084d92:	e8 89 d6 ff ff       	call   8082420 <__printf_fp_l>
 8084d97:	83 c4 1c             	add    $0x1c,%esp
 8084d9a:	c3                   	ret    
 8084dab:	83 e9 01             	sub    $0x1,%ecx
 8084dae:	80 f9 7d             	cmp    $0x7d,%cl
 8084db1:	77 0d                	ja     8084dc0 <__guess_grouping+0x20>
 8084db3:	e9 18 d6 ff ff       	jmp    80823d0 <__guess_grouping.part.0>
 8084db8:	90                   	nop
 8084db9:	8d b4 26 00 00 00 00 	lea    0x0(%esi,%eiz,1),%esi
 8084dc0:	31 c0                	xor    %eax,%eax
 8084dc2:	c3                   	ret    
 8084e48:	74 0b                	je     8084e55 <__register_printf_specifier+0x85>
 8084e4a:	8d 83 40 1a 00 00    	lea    0x1a40(%ebx),%eax
 8084e50:	e8 fb 8f fe ff       	call   806de50 <__lll_unlock_wake_private>
 8084e55:	83 c4 04             	add    $0x4,%esp
 8084e58:	89 d0                	mov    %edx,%eax
 8084e5a:	5b                   	pop    %ebx
 8084e5b:	5e                   	pop    %esi
 8084e5c:	c3                   	ret    
 808538e:	89 e8                	mov    %ebp,%eax
 8085390:	0f 85 00 16 00 00    	jne    8086996 <__printf_fphex+0x1ad6>
 8085396:	81 c4 8c 01 00 00    	add    $0x18c,%esp
 808539c:	5b                   	pop    %ebx
 808539d:	5e                   	pop    %esi
 808539e:	5f                   	pop    %edi
 808539f:	5d                   	pop    %ebp
 80853a0:	c3                   	ret    
 8086acb:	e8 80 73 fe ff       	call   806de50 <__lll_unlock_wake_private>
 8086ad0:	83 c4 0c             	add    $0xc,%esp
 8086ad3:	89 d0                	mov    %edx,%eax
 8086ad5:	5b                   	pop    %ebx
 8086ad6:	5e                   	pop    %esi
 8086ad7:	5f                   	pop    %edi
 8086ad8:	5d                   	pop    %ebp
 8086ad9:	c3                   	ret    
 8086aeb:	65 c7 00 16 00 00 00 	movl   $0x16,%gs:(%eax)
 8086af2:	83 c4 0c             	add    $0xc,%esp
 8086af5:	89 d0                	mov    %edx,%eax
 8086af7:	5b                   	pop    %ebx
 8086af8:	5e                   	pop    %esi
 8086af9:	5f                   	pop    %edi
 8086afa:	5d                   	pop    %ebp
 8086afb:	c3                   	ret    
 8086c03:	89 38                	mov    %edi,(%eax)
 8086c05:	31 c0                	xor    %eax,%eax
 8086c07:	83 c4 14             	add    $0x14,%esp
 8086c0a:	5b                   	pop    %ebx
 8086c0b:	5e                   	pop    %esi
 8086c0c:	5f                   	pop    %edi
 8086c0d:	5d                   	pop    %ebp
 8086c0e:	c3                   	ret    
 8086c35:	eb a0                	jmp    8086bd7 <__handle_registered_modifier_mb+0x97>
 8086c37:	83 c4 14             	add    $0x14,%esp
 8086c3a:	b8 01 00 00 00       	mov    $0x1,%eax
 8086c3f:	5b                   	pop    %ebx
 8086c40:	5e                   	pop    %esi
 8086c41:	5f                   	pop    %edi
 8086c42:	5d                   	pop    %ebp
 8086c43:	c3                   	ret    
 8086d03:	89 38                	mov    %edi,(%eax)
 8086d05:	31 c0                	xor    %eax,%eax
 8086d07:	83 c4 10             	add    $0x10,%esp
 8086d0a:	5b                   	pop    %ebx
 8086d0b:	5e                   	pop    %esi
 8086d0c:	5f                   	pop    %edi
 8086d0d:	5d                   	pop    %ebp
 8086d0e:	c3                   	ret    
 8086d39:	eb 9b                	jmp    8086cd6 <__handle_registered_modifier_wc+0x86>
 8086d3b:	83 c4 10             	add    $0x10,%esp
 8086d3e:	b8 01 00 00 00       	mov    $0x1,%eax
 8086d43:	5b                   	pop    %ebx
 8086d44:	5e                   	pop    %esi
 8086d45:	5f                   	pop    %edi
 8086d46:	5d                   	pop    %ebp
 8086d47:	c3                   	ret    
 8086dc5:	01 
 8086dc6:	74 0b                	je     8086dd3 <__register_printf_type+0x83>
 8086dc8:	8d 83 4c 1a 00 00    	lea    0x1a4c(%ebx),%eax
 8086dce:	e8 7d 70 fe ff       	call   806de50 <__lll_unlock_wake_private>
 8086dd3:	83 c4 08             	add    $0x8,%esp
 8086dd6:	89 d0                	mov    %edx,%eax
 8086dd8:	5b                   	pop    %ebx
 8086dd9:	c3                   	ret    
 8086e6c:	76 d0                	jbe    8086e3e <read_int+0x1e>
 8086e6e:	89 30                	mov    %esi,(%eax)
 8086e70:	89 d0                	mov    %edx,%eax
 8086e72:	5b                   	pop    %ebx
 8086e73:	5e                   	pop    %esi
 8086e74:	5f                   	pop    %edi
 8086e75:	5d                   	pop    %ebp
 8086e76:	c3                   	ret    
 8086ea8:	ba ff ff ff ff       	mov    $0xffffffff,%edx
 8086ead:	89 30                	mov    %esi,(%eax)
 8086eaf:	89 d0                	mov    %edx,%eax
 8086eb1:	5b                   	pop    %ebx
 8086eb2:	5e                   	pop    %esi
 8086eb3:	5f                   	pop    %edi
 8086eb4:	5d                   	pop    %ebp
 8086eb5:	c3                   	ret    
 8086ee6:	76 10                	jbe    8086ef8 <group_number+0x38>
 8086ee8:	83 c4 1c             	add    $0x1c,%esp
 8086eeb:	89 d0                	mov    %edx,%eax
 8086eed:	5b                   	pop    %ebx
 8086eee:	5e                   	pop    %esi
 8086eef:	5f                   	pop    %edi
 8086ef0:	5d                   	pop    %ebp
 8086ef1:	c3                   	ret    
 8086fb4:	8b 54 24 08          	mov    0x8(%esp),%edx
 8086fb8:	83 c4 1c             	add    $0x1c,%esp
 8086fbb:	5b                   	pop    %ebx
 8086fbc:	89 d0                	mov    %edx,%eax
 8086fbe:	5e                   	pop    %esi
 8086fbf:	5f                   	pop    %edi
 8086fc0:	5d                   	pop    %ebp
 8086fc1:	c3                   	ret    
 80870c6:	89 f0                	mov    %esi,%eax
 80870c8:	75 38                	jne    8087102 <_i18n_number_rewrite+0x132>
 80870ca:	81 c4 4c 04 00 00    	add    $0x44c,%esp
 80870d0:	5b                   	pop    %ebx
 80870d1:	5e                   	pop    %esi
 80870d2:	5f                   	pop    %edi
 80870d3:	5d                   	pop    %ebp
 80870d4:	c3                   	ret    
 80871bf:	89 18                	mov    %ebx,(%eax)
 80871c1:	89 d8                	mov    %ebx,%eax
 80871c3:	83 c4 1c             	add    $0x1c,%esp
 80871c6:	5b                   	pop    %ebx
 80871c7:	5e                   	pop    %esi
 80871c8:	5f                   	pop    %edi
 80871c9:	5d                   	pop    %ebp
 80871ca:	c3                   	ret    
 80871d8:	e8 d3 71 00 00       	call   808e3b0 <__woverflow>
 80871dd:	83 c4 10             	add    $0x10,%esp
 80871e0:	83 c4 1c             	add    $0x1c,%esp
 80871e3:	5b                   	pop    %ebx
 80871e4:	5e                   	pop    %esi
 80871e5:	5f                   	pop    %edi
 80871e6:	5d                   	pop    %ebp
 80871e7:	c3                   	ret    
 8087a0f:	89 f0                	mov    %esi,%eax
 8087a11:	0f 85 fb 1f 00 00    	jne    8089a12 <printf_positional+0x2802>
 8087a17:	8d 65 f4             	lea    -0xc(%ebp),%esp
 8087a1a:	5b                   	pop    %ebx
 8087a1b:	5e                   	pop    %esi
 8087a1c:	5f                   	pop    %edi
 8087a1d:	5d                   	pop    %ebp
 8087a1e:	c3                   	ret    
 8089bea:	8b 85 a0 fb ff ff    	mov    -0x460(%ebp),%eax
 8089bf0:	0f 85 fe 26 00 00    	jne    808c2f4 <_IO_vfwprintf+0x28a4>
 8089bf6:	8d 65 f4             	lea    -0xc(%ebp),%esp
 8089bf9:	5b                   	pop    %ebx
 8089bfa:	5e                   	pop    %esi
 8089bfb:	5f                   	pop    %edi
 8089bfc:	5d                   	pop    %ebp
 8089bfd:	c3                   	ret    
 808c5cd:	89 f8                	mov    %edi,%eax
 808c5cf:	75 48                	jne    808c619 <buffered_vfprintf+0x219>
 808c5d1:	81 c4 8c 81 00 00    	add    $0x818c,%esp
 808c5d7:	5b                   	pop    %ebx
 808c5d8:	5e                   	pop    %esi
 808c5d9:	5f                   	pop    %edi
 808c5da:	5d                   	pop    %ebp
 808c5db:	c3                   	ret    
 808c6a3:	eb dd                	jmp    808c682 <read_int+0x32>
 808c6a5:	8d 76 00             	lea    0x0(%esi),%esi
 808c6a8:	5b                   	pop    %ebx
 808c6a9:	89 c8                	mov    %ecx,%eax
 808c6ab:	5e                   	pop    %esi
 808c6ac:	5f                   	pop    %edi
 808c6ad:	5d                   	pop    %ebp
 808c6ae:	c3                   	ret    
 808c9b1:	89 46 18             	mov    %eax,0x18(%esi)
 808c9b4:	89 f8                	mov    %edi,%eax
 808c9b6:	83 c4 1c             	add    $0x1c,%esp
 808c9b9:	5b                   	pop    %ebx
 808c9ba:	5e                   	pop    %esi
 808c9bb:	5f                   	pop    %edi
 808c9bc:	5d                   	pop    %ebp
 808c9bd:	c3                   	ret    
 808ca26:	89 46 14             	mov    %eax,0x14(%esi)
 808ca29:	83 c4 1c             	add    $0x1c,%esp
 808ca2c:	5b                   	pop    %ebx
 808ca2d:	89 f8                	mov    %edi,%eax
 808ca2f:	5e                   	pop    %esi
 808ca30:	5f                   	pop    %edi
 808ca31:	5d                   	pop    %ebp
 808ca32:	c3                   	ret    
 808cccc:	76 d0                	jbe    808cc9e <read_int+0x1e>
 808ccce:	89 30                	mov    %esi,(%eax)
 808ccd0:	89 d0                	mov    %edx,%eax
 808ccd2:	5b                   	pop    %ebx
 808ccd3:	5e                   	pop    %esi
 808ccd4:	5f                   	pop    %edi
 808ccd5:	5d                   	pop    %ebp
 808ccd6:	c3                   	ret    
 808cd08:	ba ff ff ff ff       	mov    $0xffffffff,%edx
 808cd0d:	89 30                	mov    %esi,(%eax)
 808cd0f:	89 d0                	mov    %edx,%eax
 808cd11:	5b                   	pop    %ebx
 808cd12:	5e                   	pop    %esi
 808cd13:	5f                   	pop    %edi
 808cd14:	5d                   	pop    %ebp
 808cd15:	c3                   	ret    
 808d05f:	89 56 18             	mov    %edx,0x18(%esi)
 808d062:	89 56 14             	mov    %edx,0x14(%esi)
 808d065:	83 c4 1c             	add    $0x1c,%esp
 808d068:	5b                   	pop    %ebx
 808d069:	5e                   	pop    %esi
 808d06a:	5f                   	pop    %edi
 808d06b:	5d                   	pop    %ebp
 808d06c:	c3                   	ret    
 808d0b1:	89 46 18             	mov    %eax,0x18(%esi)
 808d0b4:	8b 44 24 08          	mov    0x8(%esp),%eax
 808d0b8:	83 c4 1c             	add    $0x1c,%esp
 808d0bb:	5b                   	pop    %ebx
 808d0bc:	5e                   	pop    %esi
 808d0bd:	5f                   	pop    %edi
 808d0be:	5d                   	pop    %ebp
 808d0bf:	c3                   	ret    
 808d3df:	65 33 0d 14 00 00 00 	xor    %gs:0x14,%ecx
 808d3e6:	0f 85 96 00 00 00    	jne    808d482 <_IO_file_doallocate+0x152>
 808d3ec:	83 c4 7c             	add    $0x7c,%esp
 808d3ef:	5b                   	pop    %ebx
 808d3f0:	5e                   	pop    %esi
 808d3f1:	5f                   	pop    %edi
 808d3f2:	5d                   	pop    %ebp
 808d3f3:	c3                   	ret    
 808d56b:	e8 e0 08 fe ff       	call   806de50 <__lll_unlock_wake_private>
 808d570:	8d 65 f4             	lea    -0xc(%ebp),%esp
 808d573:	89 c8                	mov    %ecx,%eax
 808d575:	5b                   	pop    %ebx
 808d576:	5e                   	pop    %esi
 808d577:	5f                   	pop    %edi
 808d578:	5d                   	pop    %ebp
 808d579:	c3                   	ret    
 808d629:	57                   	push   %edi
 808d62a:	e8 71 0a 00 00       	call   808e0a0 <_IO_wsetb>
 808d62f:	83 c4 10             	add    $0x10,%esp
 808d632:	b8 01 00 00 00       	mov    $0x1,%eax
 808d637:	5b                   	pop    %ebx
 808d638:	5e                   	pop    %esi
 808d639:	5f                   	pop    %edi
 808d63a:	c3                   	ret    
 808d64c:	83 c4 10             	add    $0x10,%esp
 808d64f:	eb a8                	jmp    808d5f9 <_IO_wfile_doallocate+0x19>
 808d651:	8d b4 26 00 00 00 00 	lea    0x0(%esi,%eiz,1),%esi
 808d658:	5b                   	pop    %ebx
 808d659:	b8 ff ff ff ff       	mov    $0xffffffff,%eax
 808d65e:	5e                   	pop    %esi
 808d65f:	5f                   	pop    %edi
 808d660:	c3                   	ret    
 808d6af:	c7 45 d8 ff ff ff ff 	movl   $0xffffffff,-0x28(%ebp)
 808d6b6:	8b 45 d8             	mov    -0x28(%ebp),%eax
 808d6b9:	8d 65 f4             	lea    -0xc(%ebp),%esp
 808d6bc:	5b                   	pop    %ebx
 808d6bd:	5e                   	pop    %esi
 808d6be:	5f                   	pop    %edi
 808d6bf:	5d                   	pop    %ebp
 808d6c0:	c3                   	ret    
 808d883:	e8 c8 05 fe ff       	call   806de50 <__lll_unlock_wake_private>
 808d888:	8b 45 d8             	mov    -0x28(%ebp),%eax
 808d88b:	8d 65 f4             	lea    -0xc(%ebp),%esp
 808d88e:	5b                   	pop    %ebx
 808d88f:	5e                   	pop    %esi
 808d890:	5f                   	pop    %edi
 808d891:	5d                   	pop    %ebp
 808d892:	c3                   	ret    
 808da41:	8b 44 24 34          	mov    0x34(%esp),%eax
 808da45:	2b 44 24 0c          	sub    0xc(%esp),%eax
 808da49:	83 c4 1c             	add    $0x1c,%esp
 808da4c:	5b                   	pop    %ebx
 808da4d:	5e                   	pop    %esi
 808da4e:	5f                   	pop    %edi
 808da4f:	5d                   	pop    %ebp
 808da50:	c3                   	ret    
 808da92:	8d 04 2e             	lea    (%esi,%ebp,1),%eax
 808da95:	89 57 04             	mov    %edx,0x4(%edi)
 808da98:	83 c4 1c             	add    $0x1c,%esp
 808da9b:	5b                   	pop    %ebx
 808da9c:	5e                   	pop    %esi
 808da9d:	5f                   	pop    %edi
 808da9e:	5d                   	pop    %ebp
 808da9f:	c3                   	ret    
 808db15:	ff 74 24 2c          	pushl  0x2c(%esp)
 808db19:	ff 74 24 2c          	pushl  0x2c(%esp)
 808db1d:	ff 74 24 2c          	pushl  0x2c(%esp)
 808db21:	ff 74 24 2c          	pushl  0x2c(%esp)
 808db25:	ff 74 24 2c          	pushl  0x2c(%esp)
 808db29:	e8 42 fe ff ff       	call   808d970 <_IO_getline_info>
 808db2e:	83 c4 2c             	add    $0x2c,%esp
 808db31:	c3                   	ret    
 808dc61:	89 f0                	mov    %esi,%eax
 808dc63:	75 1e                	jne    808dc83 <_IO_padn+0x143>
 808dc65:	83 c4 4c             	add    $0x4c,%esp
 808dc68:	5b                   	pop    %ebx
 808dc69:	5e                   	pop    %esi
 808dc6a:	5f                   	pop    %edi
 808dc6b:	5d                   	pop    %ebp
 808dc6c:	c3                   	ret    
 808ddb9:	89 f0                	mov    %esi,%eax
 808ddbb:	75 1e                	jne    808dddb <_IO_wpadn+0x14b>
 808ddbd:	83 c4 7c             	add    $0x7c,%esp
 808ddc0:	5b                   	pop    %ebx
 808ddc1:	5e                   	pop    %esi
 808ddc2:	5f                   	pop    %edi
 808ddc3:	5d                   	pop    %ebp
 808ddc4:	c3                   	ret    
 808de87:	75 f7                	jne    808de80 <save_for_wbackup.isra.0+0xa0>
 808de89:	31 c0                	xor    %eax,%eax
 808de8b:	83 c4 3c             	add    $0x3c,%esp
 808de8e:	5b                   	pop    %ebx
 808de8f:	5e                   	pop    %esi
 808de90:	5f                   	pop    %edi
 808de91:	5d                   	pop    %ebp
 808de92:	c3                   	ret    
 808e053:	89 50 28             	mov    %edx,0x28(%eax)
 808e056:	8b 50 20             	mov    0x20(%eax),%edx
 808e059:	89 48 04             	mov    %ecx,0x4(%eax)
 808e05c:	8b 48 08             	mov    0x8(%eax),%ecx
 808e05f:	89 10                	mov    %edx,(%eax)
 808e061:	89 50 08             	mov    %edx,0x8(%eax)
 808e064:	89 48 20             	mov    %ecx,0x20(%eax)
 808e067:	c3                   	ret    
 808e087:	89 48 28             	mov    %ecx,0x28(%eax)
 808e08a:	8b 48 08             	mov    0x8(%eax),%ecx
 808e08d:	89 50 04             	mov    %edx,0x4(%eax)
 808e090:	89 10                	mov    %edx,(%eax)
 808e092:	89 58 08             	mov    %ebx,0x8(%eax)
 808e095:	89 48 20             	mov    %ecx,0x20(%eax)
 808e098:	5b                   	pop    %ebx
 808e099:	c3                   	ret    
 808e0dc:	83 e0 f7             	and    $0xfffffff7,%eax
 808e0df:	85 c9                	test   %ecx,%ecx
 808e0e1:	0f 44 c2             	cmove  %edx,%eax
 808e0e4:	89 46 3c             	mov    %eax,0x3c(%esi)
 808e0e7:	83 c4 04             	add    $0x4,%esp
 808e0ea:	5b                   	pop    %ebx
 808e0eb:	5e                   	pop    %esi
 808e0ec:	c3                   	ret    
 808e149:	8b 44 24 34          	mov    0x34(%esp),%eax
 808e14d:	89 47 fc             	mov    %eax,-0x4(%edi)
 808e150:	83 c4 1c             	add    $0x1c,%esp
 808e153:	5b                   	pop    %ebx
 808e154:	5e                   	pop    %esi
 808e155:	5f                   	pop    %edi
 808e156:	5d                   	pop    %ebp
 808e157:	c3                   	ret    
 808e306:	83 c4 10             	add    $0x10,%esp
 808e309:	83 ec 0c             	sub    $0xc,%esp
 808e30c:	56                   	push   %esi
 808e30d:	e8 be 6f fc ff       	call   80552d0 <_IO_un_link>
 808e312:	83 c4 14             	add    $0x14,%esp
 808e315:	5b                   	pop    %ebx
 808e316:	5e                   	pop    %esi
 808e317:	c3                   	ret    
 808e381:	8b 02                	mov    (%edx),%eax
 808e383:	8d 48 04             	lea    0x4(%eax),%ecx
 808e386:	8b 00                	mov    (%eax),%eax
 808e388:	89 0a                	mov    %ecx,(%edx)
 808e38a:	83 c4 04             	add    $0x4,%esp
 808e38d:	5b                   	pop    %ebx
 808e38e:	5e                   	pop    %esi
 808e38f:	c3                   	ret    
 808e38d:	5b                   	pop    %ebx
 808e38e:	5e                   	pop    %esi
 808e38f:	c3                   	ret    
 808e390:	83 c4 04             	add    $0x4,%esp
 808e393:	b8 ff ff ff ff       	mov    $0xffffffff,%eax
 808e398:	5b                   	pop    %ebx
 808e399:	5e                   	pop    %esi
 808e39a:	c3                   	ret    
 808e4f1:	75 b6                	jne    808e4a9 <_IO_wdefault_xsputn+0x79>
 808e4f3:	8b 44 24 38          	mov    0x38(%esp),%eax
 808e4f7:	83 c4 1c             	add    $0x1c,%esp
 808e4fa:	5b                   	pop    %ebx
 808e4fb:	5e                   	pop    %esi
 808e4fc:	5f                   	pop    %edi
 808e4fd:	5d                   	pop    %ebp
 808e4fe:	c3                   	ret    
 808e4ff:	90                   	nop
 808e500:	83 c4 1c             	add    $0x1c,%esp
 808e503:	31 c0                	xor    %eax,%eax
 808e505:	5b                   	pop    %ebx
 808e506:	5e                   	pop    %esi
 808e507:	5f                   	pop    %edi
 808e508:	5d                   	pop    %ebp
 808e509:	c3                   	ret    
 808e524:	8b 5c 24 10          	mov    0x10(%esp),%ebx
 808e528:	8b 43 58             	mov    0x58(%ebx),%eax
 808e52b:	8b 50 18             	mov    0x18(%eax),%edx
 808e52e:	85 d2                	test   %edx,%edx
 808e530:	74 0e                	je     808e540 <_IO_wdoallocbuf+0x20>
 808e532:	83 c4 08             	add    $0x8,%esp
 808e535:	5b                   	pop    %ebx
 808e536:	c3                   	ret    
 808e56a:	52                   	push   %edx
 808e56b:	50                   	push   %eax
 808e56c:	53                   	push   %ebx
 808e56d:	e8 2e fb ff ff       	call   808e0a0 <_IO_wsetb>
 808e572:	83 c4 10             	add    $0x10,%esp
 808e575:	83 c4 08             	add    $0x8,%esp
 808e578:	5b                   	pop    %ebx
 808e579:	c3                   	ret    
 808e5a9:	50                   	push   %eax
 808e5aa:	ff 74 24 1c          	pushl  0x1c(%esp)
 808e5ae:	e8 ed fa ff ff       	call   808e0a0 <_IO_wsetb>
 808e5b3:	83 c4 10             	add    $0x10,%esp
 808e5b6:	b8 01 00 00 00       	mov    $0x1,%eax
 808e5bb:	83 c4 08             	add    $0x8,%esp
 808e5be:	5b                   	pop    %ebx
 808e5bf:	c3                   	ret    
 808e5b6:	b8 01 00 00 00       	mov    $0x1,%eax
 808e5bb:	83 c4 08             	add    $0x8,%esp
 808e5be:	5b                   	pop    %ebx
 808e5bf:	c3                   	ret    
 808e5c0:	83 c4 08             	add    $0x8,%esp
 808e5c3:	b8 ff ff ff ff       	mov    $0xffffffff,%eax
 808e5c8:	5b                   	pop    %ebx
 808e5c9:	c3                   	ret    
 808e61b:	89 50 14             	mov    %edx,0x14(%eax)
 808e61e:	89 50 0c             	mov    %edx,0xc(%eax)
 808e621:	89 0b                	mov    %ecx,(%ebx)
 808e623:	31 c0                	xor    %eax,%eax
 808e625:	83 c4 04             	add    $0x4,%esp
 808e628:	5b                   	pop    %ebx
 808e629:	5e                   	pop    %esi
 808e62a:	c3                   	ret    
 808e689:	83 c4 10             	add    $0x10,%esp
 808e68c:	c7 40 20 00 00 00 00 	movl   $0x0,0x20(%eax)
 808e693:	c7 40 28 00 00 00 00 	movl   $0x0,0x28(%eax)
 808e69a:	c7 40 24 00 00 00 00 	movl   $0x0,0x24(%eax)
 808e6a1:	5b                   	pop    %ebx
 808e6a2:	5e                   	pop    %esi
 808e6a3:	5f                   	pop    %edi
 808e6a4:	c3                   	ret    
 808e75c:	8d 74 26 00          	lea    0x0(%esi,%eiz,1),%esi
 808e760:	8d 4a 04             	lea    0x4(%edx),%ecx
 808e763:	89 08                	mov    %ecx,(%eax)
 808e765:	8b 02                	mov    (%edx),%eax
 808e767:	5b                   	pop    %ebx
 808e768:	5e                   	pop    %esi
 808e769:	5f                   	pop    %edi
 808e76a:	c3                   	ret    
 808e779:	83 c4 10             	add    $0x10,%esp
 808e77c:	83 f8 ff             	cmp    $0xffffffff,%eax
 808e77f:	0f 85 5a ff ff ff    	jne    808e6df <__wuflow+0x2f>
 808e785:	5b                   	pop    %ebx
 808e786:	b8 ff ff ff ff       	mov    $0xffffffff,%eax
 808e78b:	5e                   	pop    %esi
 808e78c:	5f                   	pop    %edi
 808e78d:	c3                   	ret    
 808e8a9:	ff e0                	jmp    *%eax
 808e8ab:	90                   	nop
 808e8ac:	8d 74 26 00          	lea    0x0(%esi,%eiz,1),%esi
 808e8b0:	5b                   	pop    %ebx
 808e8b1:	8b 02                	mov    (%edx),%eax
 808e8b3:	5e                   	pop    %esi
 808e8b4:	5f                   	pop    %edi
 808e8b5:	c3                   	ret    
 808e8c9:	83 c4 10             	add    $0x10,%esp
 808e8cc:	83 f8 ff             	cmp    $0xffffffff,%eax
 808e8cf:	0f 85 5a ff ff ff    	jne    808e82f <__wunderflow+0x2f>
 808e8d5:	5b                   	pop    %ebx
 808e8d6:	b8 ff ff ff ff       	mov    $0xffffffff,%eax
 808e8db:	5e                   	pop    %esi
 808e8dc:	5f                   	pop    %edi
 808e8dd:	c3                   	ret    
 808e9d5:	29 7c 24 38          	sub    %edi,0x38(%esp)
 808e9d9:	8b 44 24 38          	mov    0x38(%esp),%eax
 808e9dd:	83 c4 1c             	add    $0x1c,%esp
 808e9e0:	5b                   	pop    %ebx
 808e9e1:	5e                   	pop    %esi
 808e9e2:	5f                   	pop    %edi
 808e9e3:	5d                   	pop    %ebp
 808e9e4:	c3                   	ret    
 808ea59:	83 c4 10             	add    $0x10,%esp
 808ea5c:	83 f8 ff             	cmp    $0xffffffff,%eax
 808ea5f:	74 03                	je     808ea64 <_IO_sputbackwc+0x54>
 808ea61:	83 26 ef             	andl   $0xffffffef,(%esi)
 808ea64:	5b                   	pop    %ebx
 808ea65:	5e                   	pop    %esi
 808ea66:	5f                   	pop    %edi
 808ea67:	c3                   	ret    
 808eab3:	8b 42 fc             	mov    -0x4(%edx),%eax
 808eab6:	83 f8 ff             	cmp    $0xffffffff,%eax
 808eab9:	74 03                	je     808eabe <_IO_sungetwc+0x2e>
 808eabb:	83 23 ef             	andl   $0xffffffef,(%ebx)
 808eabe:	83 c4 04             	add    $0x4,%esp
 808eac1:	5b                   	pop    %ebx
 808eac2:	5e                   	pop    %esi
 808eac3:	c3                   	ret    
 808eb33:	83 3a 0a             	cmpl   $0xa,(%edx)
 808eb36:	74 10                	je     808eb48 <_IO_adjust_wcolumn+0x48>
 808eb38:	39 ca                	cmp    %ecx,%edx
 808eb3a:	75 f4                	jne    808eb30 <_IO_adjust_wcolumn+0x30>
 808eb3c:	03 44 24 0c          	add    0xc(%esp),%eax
 808eb40:	5b                   	pop    %ebx
 808eb41:	5e                   	pop    %esi
 808eb42:	c3                   	ret    
 808eb44:	8d 74 26 00          	lea    0x0(%esi,%eiz,1),%esi
 808eb48:	89 d8                	mov    %ebx,%eax
 808eb4a:	29 d0                	sub    %edx,%eax
 808eb4c:	c1 f8 02             	sar    $0x2,%eax
 808eb4f:	83 e8 01             	sub    $0x1,%eax
 808eb52:	5b                   	pop    %ebx
 808eb53:	5e                   	pop    %esi
 808eb54:	c3                   	ret    
 808eb87:	89 46 08             	mov    %eax,0x8(%esi)
 808eb8a:	8b 43 30             	mov    0x30(%ebx),%eax
 808eb8d:	89 06                	mov    %eax,(%esi)
 808eb8f:	89 73 30             	mov    %esi,0x30(%ebx)
 808eb92:	83 c4 04             	add    $0x4,%esp
 808eb95:	5b                   	pop    %ebx
 808eb96:	5e                   	pop    %esi
 808eb97:	c3                   	ret    
 808eba6:	89 46 08             	mov    %eax,0x8(%esi)
 808eba9:	8b 43 30             	mov    0x30(%ebx),%eax
 808ebac:	89 06                	mov    %eax,(%esi)
 808ebae:	89 73 30             	mov    %esi,0x30(%ebx)
 808ebb1:	83 c4 04             	add    $0x4,%esp
 808ebb4:	5b                   	pop    %ebx
 808ebb5:	5e                   	pop    %esi
 808ebb6:	c3                   	ret    
 808ebe4:	8b 13                	mov    (%ebx),%edx
 808ebe6:	75 10                	jne    808ebf8 <_IO_wmarker_delta+0x28>
 808ebe8:	2b 53 08             	sub    0x8(%ebx),%edx
 808ebeb:	c1 fa 02             	sar    $0x2,%edx
 808ebee:	8b 41 08             	mov    0x8(%ecx),%eax
 808ebf1:	5b                   	pop    %ebx
 808ebf2:	29 d0                	sub    %edx,%eax
 808ebf4:	c3                   	ret    
 808ebf4:	c3                   	ret    
 808ebf5:	8d 76 00             	lea    0x0(%esi),%esi
 808ebf8:	2b 53 04             	sub    0x4(%ebx),%edx
 808ebfb:	c1 fa 02             	sar    $0x2,%edx
 808ebfe:	eb ee                	jmp    808ebee <_IO_wmarker_delta+0x1e>
 808ec00:	b8 ff ff ff ff       	mov    $0xffffffff,%eax
 808ec05:	5b                   	pop    %ebx
 808ec06:	c3                   	ret    
 808ec55:	89 d7                	mov    %edx,%edi
 808ec57:	8d 14 9f             	lea    (%edi,%ebx,4),%edx
 808ec5a:	89 10                	mov    %edx,(%eax)
 808ec5c:	31 c0                	xor    %eax,%eax
 808ec5e:	5b                   	pop    %ebx
 808ec5f:	5e                   	pop    %esi
 808ec60:	5f                   	pop    %edi
 808ec61:	c3                   	ret    
 808ecd4:	8b 50 24             	mov    0x24(%eax),%edx
 808ecd7:	8b 42 34             	mov    0x34(%edx),%eax
 808ecda:	85 c0                	test   %eax,%eax
 808ecdc:	75 12                	jne    808ecf0 <do_encoding+0x20>
 808ecde:	8b 4a 24             	mov    0x24(%edx),%ecx
 808ece1:	3b 4a 28             	cmp    0x28(%edx),%ecx
 808ece4:	0f 44 c1             	cmove  %ecx,%eax
 808ece7:	c3                   	ret    
 808ecde:	8b 4a 24             	mov    0x24(%edx),%ecx
 808ece1:	3b 4a 28             	cmp    0x28(%edx),%ecx
 808ece4:	0f 44 c1             	cmove  %ecx,%eax
 808ece7:	c3                   	ret    
 808ece8:	90                   	nop
 808ece9:	8d b4 26 00 00 00 00 	lea    0x0(%esi,%eiz,1),%esi
 808ecf0:	b8 ff ff ff ff       	mov    $0xffffffff,%eax
 808ecf5:	c3                   	ret    
 808ecf0:	b8 ff ff ff ff       	mov    $0xffffffff,%eax
 808ecf5:	c3                   	ret    
 808ecf6:	8d 76 00             	lea    0x0(%esi),%esi
 808ecf9:	8d bc 27 00 00 00 00 	lea    0x0(%edi,%eiz,1),%edi

0808ed00 <do_always_noconv>:
 808ed00:	31 c0                	xor    %eax,%eax
 808ed02:	c3                   	ret    
 808ed03:	8d b6 00 00 00 00    	lea    0x0(%esi),%esi
 808ed09:	8d bc 27 00 00 00 00 	lea    0x0(%edi,%eiz,1),%edi

0808ed10 <do_max_length>:
 808ed10:	8b 44 24 04          	mov    0x4(%esp),%eax
 808ed14:	8b 40 24             	mov    0x24(%eax),%eax
 808ed17:	8b 40 28             	mov    0x28(%eax),%eax
 808ed1a:	c3                   	ret    
 808ede3:	65 33 15 14 00 00 00 	xor    %gs:0x14,%edx
 808edea:	75 1c                	jne    808ee08 <do_in+0xe8>
 808edec:	83 c4 2c             	add    $0x2c,%esp
 808edef:	5b                   	pop    %ebx
 808edf0:	5e                   	pop    %esi
 808edf1:	5f                   	pop    %edi
 808edf2:	5d                   	pop    %ebp
 808edf3:	c3                   	ret    
 808eeab:	65 33 0d 14 00 00 00 	xor    %gs:0x14,%ecx
 808eeb2:	75 24                	jne    808eed8 <do_unshift+0xc8>
 808eeb4:	83 c4 2c             	add    $0x2c,%esp
 808eeb7:	5b                   	pop    %ebx
 808eeb8:	5e                   	pop    %esi
 808eeb9:	5f                   	pop    %edi
 808eeba:	5d                   	pop    %ebp
 808eebb:	c3                   	ret    
 808efa3:	65 33 15 14 00 00 00 	xor    %gs:0x14,%edx
 808efaa:	75 1c                	jne    808efc8 <do_out+0xe8>
 808efac:	83 c4 2c             	add    $0x2c,%esp
 808efaf:	5b                   	pop    %ebx
 808efb0:	5e                   	pop    %esi
 808efb1:	5f                   	pop    %edi
 808efb2:	5d                   	pop    %ebp
 808efb3:	c3                   	ret    
 808f06b:	65 33 1d 14 00 00 00 	xor    %gs:0x14,%ebx
 808f072:	75 08                	jne    808f07c <do_length+0xac>
 808f074:	8d 65 f4             	lea    -0xc(%ebp),%esp
 808f077:	5b                   	pop    %ebx
 808f078:	5e                   	pop    %esi
 808f079:	5f                   	pop    %edi
 808f07a:	5d                   	pop    %ebp
 808f07b:	c3                   	ret    
 808f0c9:	65 33 3d 14 00 00 00 	xor    %gs:0x14,%edi
 808f0d0:	0f 85 34 01 00 00    	jne    808f20a <_IO_fwide+0x17a>
 808f0d6:	83 c4 3c             	add    $0x3c,%esp
 808f0d9:	5b                   	pop    %ebx
 808f0da:	5e                   	pop    %esi
 808f0db:	5f                   	pop    %edi
 808f0dc:	5d                   	pop    %ebp
 808f0dd:	c3                   	ret    
 808f296:	89 7e 04             	mov    %edi,0x4(%esi)
 808f299:	b8 01 00 00 00       	mov    $0x1,%eax
 808f29e:	83 c4 1c             	add    $0x1c,%esp
 808f2a1:	5b                   	pop    %ebx
 808f2a2:	5e                   	pop    %esi
 808f2a3:	5f                   	pop    %edi
 808f2a4:	5d                   	pop    %ebp
 808f2a5:	c3                   	ret    
 808f383:	89 7e 04             	mov    %edi,0x4(%esi)
 808f386:	b8 01 00 00 00       	mov    $0x1,%eax
 808f38b:	83 c4 0c             	add    $0xc,%esp
 808f38e:	5b                   	pop    %ebx
 808f38f:	5e                   	pop    %esi
 808f390:	5f                   	pop    %edi
 808f391:	5d                   	pop    %ebp
 808f392:	c3                   	ret    
 808f3c6:	65 c7 00 0c 00 00 00 	movl   $0xc,%gs:(%eax)
 808f3cd:	83 c4 0c             	add    $0xc,%esp
 808f3d0:	31 c0                	xor    %eax,%eax
 808f3d2:	5b                   	pop    %ebx
 808f3d3:	5e                   	pop    %esi
 808f3d4:	5f                   	pop    %edi
 808f3d5:	5d                   	pop    %ebp
 808f3d6:	c3                   	ret    
 808f3e0:	89 2e                	mov    %ebp,(%esi)
 808f3e2:	c7 46 04 00 04 00 00 	movl   $0x400,0x4(%esi)
 808f3e9:	83 c4 0c             	add    $0xc,%esp
 808f3ec:	5b                   	pop    %ebx
 808f3ed:	5e                   	pop    %esi
 808f3ee:	5f                   	pop    %edi
 808f3ef:	5d                   	pop    %ebp
 808f3f0:	c3                   	ret    
 808f43b:	56                   	push   %esi
 808f43c:	50                   	push   %eax
 808f43d:	e8 ce ad fd ff       	call   806a210 <memcpy>
 808f442:	83 c4 10             	add    $0x10,%esp
 808f445:	5b                   	pop    %ebx
 808f446:	5e                   	pop    %esi
 808f447:	5f                   	pop    %edi
 808f448:	c3                   	ret    
 808f4a9:	65 33 0d 14 00 00 00 	xor    %gs:0x14,%ecx
 808f4b0:	0f 85 26 01 00 00    	jne    808f5dc <__strerror_r+0x18c>
 808f4b6:	83 c4 3c             	add    $0x3c,%esp
 808f4b9:	5b                   	pop    %ebx
 808f4ba:	5e                   	pop    %esi
 808f4bb:	5f                   	pop    %edi
 808f4bc:	5d                   	pop    %ebp
 808f4bd:	c3                   	ret    
 808f5fb:	53                   	push   %ebx
 808f5fc:	c7 c3 00 a9 0d 08    	mov    $0x80da900,%ebx
 808f602:	8d 8a 70 80 fb ff    	lea    -0x47f90(%edx),%ecx
 808f608:	8d 82 60 87 fb ff    	lea    -0x478a0(%edx),%eax
 808f60e:	f6 43 17 04          	testb  $0x4,0x17(%ebx)
 808f612:	5b                   	pop    %ebx
 808f613:	0f 45 c1             	cmovne %ecx,%eax
 808f616:	c3                   	ret    
 808f6b5:	89 07                	mov    %eax,(%edi)
 808f6b7:	83 c4 0c             	add    $0xc,%esp
 808f6ba:	89 f0                	mov    %esi,%eax
 808f6bc:	5b                   	pop    %ebx
 808f6bd:	5e                   	pop    %esi
 808f6be:	5f                   	pop    %edi
 808f6bf:	5d                   	pop    %ebp
 808f6c0:	c3                   	ret    
 808f6d2:	83 c4 0c             	add    $0xc,%esp
 808f6d5:	31 f6                	xor    %esi,%esi
 808f6d7:	5b                   	pop    %ebx
 808f6d8:	89 f0                	mov    %esi,%eax
 808f6da:	5e                   	pop    %esi
 808f6db:	5f                   	pop    %edi
 808f6dc:	5d                   	pop    %ebp
 808f6dd:	c3                   	ret    
 808f9bd:	65 33 3d 14 00 00 00 	xor    %gs:0x14,%edi
 808f9c4:	0f 85 9e 01 00 00    	jne    808fb68 <two_way_long_needle+0x448>
 808f9ca:	81 c4 4c 04 00 00    	add    $0x44c,%esp
 808f9d0:	5b                   	pop    %ebx
 808f9d1:	5e                   	pop    %esi
 808f9d2:	5f                   	pop    %edi
 808f9d3:	5d                   	pop    %ebp
 808f9d4:	c3                   	ret    
 808fcc1:	65 33 1d 14 00 00 00 	xor    %gs:0x14,%ebx
 808fcc8:	0f 85 f1 00 00 00    	jne    808fdbf <__memmem+0x24f>
 808fcce:	81 c4 3c 01 00 00    	add    $0x13c,%esp
 808fcd4:	5b                   	pop    %ebx
 808fcd5:	5e                   	pop    %esi
 808fcd6:	5f                   	pop    %edi
 808fcd7:	5d                   	pop    %ebp
 808fcd8:	c3                   	ret    
 808fe05:	c7 00 00 00 00 00    	movl   $0x0,(%eax)
 808fe0b:	31 c0                	xor    %eax,%eax
 808fe0d:	83 c4 0c             	add    $0xc,%esp
 808fe10:	5b                   	pop    %ebx
 808fe11:	5e                   	pop    %esi
 808fe12:	5f                   	pop    %edi
 808fe13:	5d                   	pop    %ebp
 808fe14:	c3                   	ret    
 808fe8e:	89 38                	mov    %edi,(%eax)
 808fe90:	83 c4 0c             	add    $0xc,%esp
 808fe93:	31 c0                	xor    %eax,%eax
 808fe95:	5b                   	pop    %ebx
 808fe96:	5e                   	pop    %esi
 808fe97:	5f                   	pop    %edi
 808fe98:	5d                   	pop    %ebp
 808fe99:	c3                   	ret    
 808ff5c:	01 28                	add    %ebp,(%eax)
 808ff5e:	31 c0                	xor    %eax,%eax
 808ff60:	83 c4 0c             	add    $0xc,%esp
 808ff63:	5b                   	pop    %ebx
 808ff64:	5e                   	pop    %esi
 808ff65:	5f                   	pop    %edi
 808ff66:	5d                   	pop    %ebp
 808ff67:	c3                   	ret    
 80900c9:	5e                   	pop    %esi
 80900ca:	e9 d1 01 00 00       	jmp    80902a0 <__strrchr_sse2+0x320>
 80900cf:	90                   	nop
 80900d0:	5b                   	pop    %ebx
 80900d1:	5e                   	pop    %esi
 80900d2:	31 c0                	xor    %eax,%eax
 80900d4:	5f                   	pop    %edi
 80900d5:	c3                   	ret    
 80902ad:	0f 85 ad 00 00 00    	jne    8090360 <__strrchr_sse2+0x3e0>
 80902b3:	a8 04                	test   $0x4,%al
 80902b5:	0f 85 95 00 00 00    	jne    8090350 <__strrchr_sse2+0x3d0>
 80902bb:	a8 02                	test   $0x2,%al
 80902bd:	0f 85 7d 00 00 00    	jne    8090340 <__strrchr_sse2+0x3c0>
 80902c3:	8d 47 f0             	lea    -0x10(%edi),%eax
 80902c6:	5f                   	pop    %edi
 80902c7:	c3                   	ret    
 80902d2:	0f 85 b8 00 00 00    	jne    8090390 <__strrchr_sse2+0x410>
 80902d8:	a8 40                	test   $0x40,%al
 80902da:	0f 85 a0 00 00 00    	jne    8090380 <__strrchr_sse2+0x400>
 80902e0:	a8 20                	test   $0x20,%al
 80902e2:	0f 85 88 00 00 00    	jne    8090370 <__strrchr_sse2+0x3f0>
 80902e8:	8d 47 f4             	lea    -0xc(%edi),%eax
 80902eb:	5f                   	pop    %edi
 80902ec:	c3                   	ret    
 80902fa:	0f 85 c0 00 00 00    	jne    80903c0 <__strrchr_sse2+0x440>
 8090300:	f6 c4 04             	test   $0x4,%ah
 8090303:	0f 85 a7 00 00 00    	jne    80903b0 <__strrchr_sse2+0x430>
 8090309:	f6 c4 02             	test   $0x2,%ah
 809030c:	0f 85 8e 00 00 00    	jne    80903a0 <__strrchr_sse2+0x420>
 8090312:	8d 47 f8             	lea    -0x8(%edi),%eax
 8090315:	5f                   	pop    %edi
 8090316:	c3                   	ret    
 8090323:	0f 85 c7 00 00 00    	jne    80903f0 <__strrchr_sse2+0x470>
 8090329:	f6 c4 40             	test   $0x40,%ah
 809032c:	0f 85 ae 00 00 00    	jne    80903e0 <__strrchr_sse2+0x460>
 8090332:	f6 c4 20             	test   $0x20,%ah
 8090335:	0f 85 95 00 00 00    	jne    80903d0 <__strrchr_sse2+0x450>
 809033b:	8d 47 fc             	lea    -0x4(%edi),%eax
 809033e:	5f                   	pop    %edi
 809033f:	c3                   	ret    
 8090332:	f6 c4 20             	test   $0x20,%ah
 8090335:	0f 85 95 00 00 00    	jne    80903d0 <__strrchr_sse2+0x450>
 809033b:	8d 47 fc             	lea    -0x4(%edi),%eax
 809033e:	5f                   	pop    %edi
 809033f:	c3                   	ret    
 8090340:	8d 47 f1             	lea    -0xf(%edi),%eax
 8090343:	5f                   	pop    %edi
 8090344:	c3                   	ret    
 8090340:	8d 47 f1             	lea    -0xf(%edi),%eax
 8090343:	5f                   	pop    %edi
 8090344:	c3                   	ret    
 8090345:	8d 74 26 00          	lea    0x0(%esi,%eiz,1),%esi
 8090349:	8d bc 27 00 00 00 00 	lea    0x0(%edi,%eiz,1),%edi
 8090350:	8d 47 f2             	lea    -0xe(%edi),%eax
 8090353:	5f                   	pop    %edi
 8090354:	c3                   	ret    
 8090350:	8d 47 f2             	lea    -0xe(%edi),%eax
 8090353:	5f                   	pop    %edi
 8090354:	c3                   	ret    
 8090355:	8d 74 26 00          	lea    0x0(%esi,%eiz,1),%esi
 8090359:	8d bc 27 00 00 00 00 	lea    0x0(%edi,%eiz,1),%edi
 8090360:	8d 47 f3             	lea    -0xd(%edi),%eax
 8090363:	5f                   	pop    %edi
 8090364:	c3                   	ret    
 8090360:	8d 47 f3             	lea    -0xd(%edi),%eax
 8090363:	5f                   	pop    %edi
 8090364:	c3                   	ret    
 8090365:	8d 74 26 00          	lea    0x0(%esi,%eiz,1),%esi
 8090369:	8d bc 27 00 00 00 00 	lea    0x0(%edi,%eiz,1),%edi
 8090370:	8d 47 f5             	lea    -0xb(%edi),%eax
 8090373:	5f                   	pop    %edi
 8090374:	c3                   	ret    
 8090370:	8d 47 f5             	lea    -0xb(%edi),%eax
 8090373:	5f                   	pop    %edi
 8090374:	c3                   	ret    
 8090375:	8d 74 26 00          	lea    0x0(%esi,%eiz,1),%esi
 8090379:	8d bc 27 00 00 00 00 	lea    0x0(%edi,%eiz,1),%edi
 8090380:	8d 47 f6             	lea    -0xa(%edi),%eax
 8090383:	5f                   	pop    %edi
 8090384:	c3                   	ret    
 8090380:	8d 47 f6             	lea    -0xa(%edi),%eax
 8090383:	5f                   	pop    %edi
 8090384:	c3                   	ret    
 8090385:	8d 74 26 00          	lea    0x0(%esi,%eiz,1),%esi
 8090389:	8d bc 27 00 00 00 00 	lea    0x0(%edi,%eiz,1),%edi
 8090390:	8d 47 f7             	lea    -0x9(%edi),%eax
 8090393:	5f                   	pop    %edi
 8090394:	c3                   	ret    
 8090390:	8d 47 f7             	lea    -0x9(%edi),%eax
 8090393:	5f                   	pop    %edi
 8090394:	c3                   	ret    
 8090395:	8d 74 26 00          	lea    0x0(%esi,%eiz,1),%esi
 8090399:	8d bc 27 00 00 00 00 	lea    0x0(%edi,%eiz,1),%edi
 80903a0:	8d 47 f9             	lea    -0x7(%edi),%eax
 80903a3:	5f                   	pop    %edi
 80903a4:	c3                   	ret    
 80903a0:	8d 47 f9             	lea    -0x7(%edi),%eax
 80903a3:	5f                   	pop    %edi
 80903a4:	c3                   	ret    
 80903a5:	8d 74 26 00          	lea    0x0(%esi,%eiz,1),%esi
 80903a9:	8d bc 27 00 00 00 00 	lea    0x0(%edi,%eiz,1),%edi
 80903b0:	8d 47 fa             	lea    -0x6(%edi),%eax
 80903b3:	5f                   	pop    %edi
 80903b4:	c3                   	ret    
 80903b0:	8d 47 fa             	lea    -0x6(%edi),%eax
 80903b3:	5f                   	pop    %edi
 80903b4:	c3                   	ret    
 80903b5:	8d 74 26 00          	lea    0x0(%esi,%eiz,1),%esi
 80903b9:	8d bc 27 00 00 00 00 	lea    0x0(%edi,%eiz,1),%edi
 80903c0:	8d 47 fb             	lea    -0x5(%edi),%eax
 80903c3:	5f                   	pop    %edi
 80903c4:	c3                   	ret    
 80903c0:	8d 47 fb             	lea    -0x5(%edi),%eax
 80903c3:	5f                   	pop    %edi
 80903c4:	c3                   	ret    
 80903c5:	8d 74 26 00          	lea    0x0(%esi,%eiz,1),%esi
 80903c9:	8d bc 27 00 00 00 00 	lea    0x0(%edi,%eiz,1),%edi
 80903d0:	8d 47 fd             	lea    -0x3(%edi),%eax
 80903d3:	5f                   	pop    %edi
 80903d4:	c3                   	ret    
 80903d0:	8d 47 fd             	lea    -0x3(%edi),%eax
 80903d3:	5f                   	pop    %edi
 80903d4:	c3                   	ret    
 80903d5:	8d 74 26 00          	lea    0x0(%esi,%eiz,1),%esi
 80903d9:	8d bc 27 00 00 00 00 	lea    0x0(%edi,%eiz,1),%edi
 80903e0:	8d 47 fe             	lea    -0x2(%edi),%eax
 80903e3:	5f                   	pop    %edi
 80903e4:	c3                   	ret    
 80903e0:	8d 47 fe             	lea    -0x2(%edi),%eax
 80903e3:	5f                   	pop    %edi
 80903e4:	c3                   	ret    
 80903e5:	8d 74 26 00          	lea    0x0(%esi,%eiz,1),%esi
 80903e9:	8d bc 27 00 00 00 00 	lea    0x0(%edi,%eiz,1),%edi
 80903f0:	8d 47 ff             	lea    -0x1(%edi),%eax
 80903f3:	5f                   	pop    %edi
 80903f4:	c3                   	ret    
 80903f0:	8d 47 ff             	lea    -0x1(%edi),%eax
 80903f3:	5f                   	pop    %edi
 80903f4:	c3                   	ret    
 80903f5:	8d 74 26 00          	lea    0x0(%esi,%eiz,1),%esi
 80903f9:	8d bc 27 00 00 00 00 	lea    0x0(%edi,%eiz,1),%edi
 8090400:	31 c0                	xor    %eax,%eax
 8090402:	5f                   	pop    %edi
 8090403:	c3                   	ret    
 809042b:	0f 85 cf 00 00 00    	jne    8090500 <__strrchr_sse2+0x580>
 8090431:	f6 c1 04             	test   $0x4,%cl
 8090434:	0f 85 d6 00 00 00    	jne    8090510 <__strrchr_sse2+0x590>
 809043a:	83 e0 0f             	and    $0xf,%eax
 809043d:	0f 85 5d fe ff ff    	jne    80902a0 <__strrchr_sse2+0x320>
 8090443:	31 c0                	xor    %eax,%eax
 8090445:	5f                   	pop    %edi
 8090446:	c3                   	ret    
 809045c:	0f 85 ce 00 00 00    	jne    8090530 <__strrchr_sse2+0x5b0>
 8090462:	f6 c1 40             	test   $0x40,%cl
 8090465:	0f 85 d5 00 00 00    	jne    8090540 <__strrchr_sse2+0x5c0>
 809046b:	25 ff 00 00 00       	and    $0xff,%eax
 8090470:	0f 85 2a fe ff ff    	jne    80902a0 <__strrchr_sse2+0x320>
 8090476:	31 c0                	xor    %eax,%eax
 8090478:	5f                   	pop    %edi
 8090479:	c3                   	ret    
 8090493:	0f 85 c7 00 00 00    	jne    8090560 <__strrchr_sse2+0x5e0>
 8090499:	f6 c5 04             	test   $0x4,%ch
 809049c:	0f 85 ce 00 00 00    	jne    8090570 <__strrchr_sse2+0x5f0>
 80904a2:	25 ff 0f 00 00       	and    $0xfff,%eax
 80904a7:	0f 85 f3 fd ff ff    	jne    80902a0 <__strrchr_sse2+0x320>
 80904ad:	31 c0                	xor    %eax,%eax
 80904af:	5f                   	pop    %edi
 80904b0:	c3                   	ret    
 80904cc:	0f 85 be 00 00 00    	jne    8090590 <__strrchr_sse2+0x610>
 80904d2:	f6 c5 40             	test   $0x40,%ch
 80904d5:	0f 85 c5 00 00 00    	jne    80905a0 <__strrchr_sse2+0x620>
 80904db:	25 ff ff 00 00       	and    $0xffff,%eax
 80904e0:	0f 85 ba fd ff ff    	jne    80902a0 <__strrchr_sse2+0x320>
 80904e6:	31 c0                	xor    %eax,%eax
 80904e8:	5f                   	pop    %edi
 80904e9:	c3                   	ret    
 80904e8:	5f                   	pop    %edi
 80904e9:	c3                   	ret    
 80904ea:	8d b6 00 00 00 00    	lea    0x0(%esi),%esi
 80904f0:	83 e0 01             	and    $0x1,%eax
 80904f3:	0f 85 a7 fd ff ff    	jne    80902a0 <__strrchr_sse2+0x320>
 80904f9:	31 c0                	xor    %eax,%eax
 80904fb:	5f                   	pop    %edi
 80904fc:	c3                   	ret    
 80904fb:	5f                   	pop    %edi
 80904fc:	c3                   	ret    
 80904fd:	8d 76 00             	lea    0x0(%esi),%esi
 8090500:	83 e0 03             	and    $0x3,%eax
 8090503:	0f 85 97 fd ff ff    	jne    80902a0 <__strrchr_sse2+0x320>
 8090509:	31 c0                	xor    %eax,%eax
 809050b:	5f                   	pop    %edi
 809050c:	c3                   	ret    
 809050b:	5f                   	pop    %edi
 809050c:	c3                   	ret    
 809050d:	8d 76 00             	lea    0x0(%esi),%esi
 8090510:	83 e0 07             	and    $0x7,%eax
 8090513:	0f 85 87 fd ff ff    	jne    80902a0 <__strrchr_sse2+0x320>
 8090519:	31 c0                	xor    %eax,%eax
 809051b:	5f                   	pop    %edi
 809051c:	c3                   	ret    
 809051b:	5f                   	pop    %edi
 809051c:	c3                   	ret    
 809051d:	8d 76 00             	lea    0x0(%esi),%esi
 8090520:	83 e0 1f             	and    $0x1f,%eax
 8090523:	0f 85 77 fd ff ff    	jne    80902a0 <__strrchr_sse2+0x320>
 8090529:	31 c0                	xor    %eax,%eax
 809052b:	5f                   	pop    %edi
 809052c:	c3                   	ret    
 809052b:	5f                   	pop    %edi
 809052c:	c3                   	ret    
 809052d:	8d 76 00             	lea    0x0(%esi),%esi
 8090530:	83 e0 3f             	and    $0x3f,%eax
 8090533:	0f 85 67 fd ff ff    	jne    80902a0 <__strrchr_sse2+0x320>
 8090539:	31 c0                	xor    %eax,%eax
 809053b:	5f                   	pop    %edi
 809053c:	c3                   	ret    
 809053b:	5f                   	pop    %edi
 809053c:	c3                   	ret    
 809053d:	8d 76 00             	lea    0x0(%esi),%esi
 8090540:	83 e0 7f             	and    $0x7f,%eax
 8090543:	0f 85 57 fd ff ff    	jne    80902a0 <__strrchr_sse2+0x320>
 8090549:	31 c0                	xor    %eax,%eax
 809054b:	5f                   	pop    %edi
 809054c:	c3                   	ret    
 809054b:	5f                   	pop    %edi
 809054c:	c3                   	ret    
 809054d:	8d 76 00             	lea    0x0(%esi),%esi
 8090550:	25 ff 01 00 00       	and    $0x1ff,%eax
 8090555:	0f 85 45 fd ff ff    	jne    80902a0 <__strrchr_sse2+0x320>
 809055b:	31 c0                	xor    %eax,%eax
 809055d:	5f                   	pop    %edi
 809055e:	c3                   	ret    
 809055d:	5f                   	pop    %edi
 809055e:	c3                   	ret    
 809055f:	90                   	nop
 8090560:	25 ff 03 00 00       	and    $0x3ff,%eax
 8090565:	0f 85 35 fd ff ff    	jne    80902a0 <__strrchr_sse2+0x320>
 809056b:	31 c0                	xor    %eax,%eax
 809056d:	5f                   	pop    %edi
 809056e:	c3                   	ret    
 809056d:	5f                   	pop    %edi
 809056e:	c3                   	ret    
 809056f:	90                   	nop
 8090570:	25 ff 07 00 00       	and    $0x7ff,%eax
 8090575:	0f 85 25 fd ff ff    	jne    80902a0 <__strrchr_sse2+0x320>
 809057b:	31 c0                	xor    %eax,%eax
 809057d:	5f                   	pop    %edi
 809057e:	c3                   	ret    
 809057d:	5f                   	pop    %edi
 809057e:	c3                   	ret    
 809057f:	90                   	nop
 8090580:	25 ff 1f 00 00       	and    $0x1fff,%eax
 8090585:	0f 85 15 fd ff ff    	jne    80902a0 <__strrchr_sse2+0x320>
 809058b:	31 c0                	xor    %eax,%eax
 809058d:	5f                   	pop    %edi
 809058e:	c3                   	ret    
 809058d:	5f                   	pop    %edi
 809058e:	c3                   	ret    
 809058f:	90                   	nop
 8090590:	25 ff 3f 00 00       	and    $0x3fff,%eax
 8090595:	0f 85 05 fd ff ff    	jne    80902a0 <__strrchr_sse2+0x320>
 809059b:	31 c0                	xor    %eax,%eax
 809059d:	5f                   	pop    %edi
 809059e:	c3                   	ret    
 809059d:	5f                   	pop    %edi
 809059e:	c3                   	ret    
 809059f:	90                   	nop
 80905a0:	25 ff 7f 00 00       	and    $0x7fff,%eax
 80905a5:	0f 85 f5 fc ff ff    	jne    80902a0 <__strrchr_sse2+0x320>
 80905ab:	31 c0                	xor    %eax,%eax
 80905ad:	5f                   	pop    %edi
 80905ae:	c3                   	ret    
 8090618:	d3 e2                	shl    %cl,%edx
 809061a:	83 ea 01             	sub    $0x1,%edx
 809061d:	21 d0                	and    %edx,%eax
 809061f:	0f 84 5b 01 00 00    	je     8090780 <__strrchr_sse2_bsf+0x1d0>
 8090625:	0f bd c0             	bsr    %eax,%eax
 8090628:	01 f8                	add    %edi,%eax
 809062a:	5f                   	pop    %edi
 809062b:	c3                   	ret    
 809069a:	d3 e2                	shl    %cl,%edx
 809069c:	83 ea 01             	sub    $0x1,%edx
 809069f:	21 d0                	and    %edx,%eax
 80906a1:	0f 84 d9 00 00 00    	je     8090780 <__strrchr_sse2_bsf+0x1d0>
 80906a7:	0f bd c0             	bsr    %eax,%eax
 80906aa:	01 f8                	add    %edi,%eax
 80906ac:	5f                   	pop    %edi
 80906ad:	c3                   	ret    
 8090732:	74 5c                	je     8090790 <__strrchr_sse2_bsf+0x1e0>
 8090734:	0f bd c3             	bsr    %ebx,%eax
 8090737:	01 f0                	add    %esi,%eax
 8090739:	5b                   	pop    %ebx
 809073a:	5e                   	pop    %esi
 809073b:	83 e8 10             	sub    $0x10,%eax
 809073e:	5f                   	pop    %edi
 809073f:	c3                   	ret    
 809076f:	74 bf                	je     8090730 <__strrchr_sse2_bsf+0x180>
 8090771:	5b                   	pop    %ebx
 8090772:	5e                   	pop    %esi
 8090773:	0f bd c0             	bsr    %eax,%eax
 8090776:	01 f8                	add    %edi,%eax
 8090778:	83 e8 10             	sub    $0x10,%eax
 809077b:	5f                   	pop    %edi
 809077c:	c3                   	ret    
 8090776:	01 f8                	add    %edi,%eax
 8090778:	83 e8 10             	sub    $0x10,%eax
 809077b:	5f                   	pop    %edi
 809077c:	c3                   	ret    
 809077d:	8d 76 00             	lea    0x0(%esi),%esi
 8090780:	31 c0                	xor    %eax,%eax
 8090782:	5f                   	pop    %edi
 8090783:	c3                   	ret    
 8090783:	c3                   	ret    
 8090784:	8d b6 00 00 00 00    	lea    0x0(%esi),%esi
 809078a:	8d bf 00 00 00 00    	lea    0x0(%edi),%edi
 8090790:	5b                   	pop    %ebx
 8090791:	5e                   	pop    %esi
 8090792:	5f                   	pop    %edi
 8090793:	31 c0                	xor    %eax,%eax
 8090795:	c3                   	ret    
 809099f:	0f 85 0b 01 00 00    	jne    8090ab0 <__memchr_sse2+0x310>
 80909a5:	a8 02                	test   $0x2,%al
 80909a7:	0f 85 13 01 00 00    	jne    8090ac0 <__memchr_sse2+0x320>
 80909ad:	a8 04                	test   $0x4,%al
 80909af:	0f 85 1b 01 00 00    	jne    8090ad0 <__memchr_sse2+0x330>
 80909b5:	8d 47 03             	lea    0x3(%edi),%eax
 80909b8:	5f                   	pop    %edi
 80909b9:	c3                   	ret    
 80909c2:	0f 85 18 01 00 00    	jne    8090ae0 <__memchr_sse2+0x340>
 80909c8:	a8 20                	test   $0x20,%al
 80909ca:	0f 85 20 01 00 00    	jne    8090af0 <__memchr_sse2+0x350>
 80909d0:	a8 40                	test   $0x40,%al
 80909d2:	0f 85 28 01 00 00    	jne    8090b00 <__memchr_sse2+0x360>
 80909d8:	8d 47 07             	lea    0x7(%edi),%eax
 80909db:	5f                   	pop    %edi
 80909dc:	c3                   	ret    
 80909ea:	0f 85 20 01 00 00    	jne    8090b10 <__memchr_sse2+0x370>
 80909f0:	f6 c4 02             	test   $0x2,%ah
 80909f3:	0f 85 27 01 00 00    	jne    8090b20 <__memchr_sse2+0x380>
 80909f9:	f6 c4 04             	test   $0x4,%ah
 80909fc:	0f 85 2e 01 00 00    	jne    8090b30 <__memchr_sse2+0x390>
 8090a02:	8d 47 0b             	lea    0xb(%edi),%eax
 8090a05:	5f                   	pop    %edi
 8090a06:	c3                   	ret    
 8090a13:	0f 85 27 01 00 00    	jne    8090b40 <__memchr_sse2+0x3a0>
 8090a19:	f6 c4 20             	test   $0x20,%ah
 8090a1c:	0f 85 2e 01 00 00    	jne    8090b50 <__memchr_sse2+0x3b0>
 8090a22:	f6 c4 40             	test   $0x40,%ah
 8090a25:	0f 85 35 01 00 00    	jne    8090b60 <__memchr_sse2+0x3c0>
 8090a2b:	8d 47 0f             	lea    0xf(%edi),%eax
 8090a2e:	5f                   	pop    %edi
 8090a2f:	c3                   	ret    
 8090a94:	66 0f 74 4f 30       	pcmpeqb 0x30(%edi),%xmm1
 8090a99:	8d 49 10             	lea    0x10(%ecx),%ecx
 8090a9c:	66 0f d7 c1          	pmovmskb %xmm1,%eax
 8090aa0:	85 c0                	test   %eax,%eax
 8090aa2:	0f 85 c8 00 00 00    	jne    8090b70 <__memchr_sse2+0x3d0>
 8090aa8:	31 c0                	xor    %eax,%eax
 8090aaa:	5f                   	pop    %edi
 8090aab:	c3                   	ret    
 8090aa2:	0f 85 c8 00 00 00    	jne    8090b70 <__memchr_sse2+0x3d0>
 8090aa8:	31 c0                	xor    %eax,%eax
 8090aaa:	5f                   	pop    %edi
 8090aab:	c3                   	ret    
 8090aac:	8d 74 26 00          	lea    0x0(%esi,%eiz,1),%esi
 8090ab0:	89 f8                	mov    %edi,%eax
 8090ab2:	5f                   	pop    %edi
 8090ab3:	c3                   	ret    
 8090ab0:	89 f8                	mov    %edi,%eax
 8090ab2:	5f                   	pop    %edi
 8090ab3:	c3                   	ret    
 8090ab4:	8d b6 00 00 00 00    	lea    0x0(%esi),%esi
 8090aba:	8d bf 00 00 00 00    	lea    0x0(%edi),%edi
 8090ac0:	8d 47 01             	lea    0x1(%edi),%eax
 8090ac3:	5f                   	pop    %edi
 8090ac4:	c3                   	ret    
 8090ac0:	8d 47 01             	lea    0x1(%edi),%eax
 8090ac3:	5f                   	pop    %edi
 8090ac4:	c3                   	ret    
 8090ac5:	8d 74 26 00          	lea    0x0(%esi,%eiz,1),%esi
 8090ac9:	8d bc 27 00 00 00 00 	lea    0x0(%edi,%eiz,1),%edi
 8090ad0:	8d 47 02             	lea    0x2(%edi),%eax
 8090ad3:	5f                   	pop    %edi
 8090ad4:	c3                   	ret    
 8090ad0:	8d 47 02             	lea    0x2(%edi),%eax
 8090ad3:	5f                   	pop    %edi
 8090ad4:	c3                   	ret    
 8090ad5:	8d 74 26 00          	lea    0x0(%esi,%eiz,1),%esi
 8090ad9:	8d bc 27 00 00 00 00 	lea    0x0(%edi,%eiz,1),%edi
 8090ae0:	8d 47 04             	lea    0x4(%edi),%eax
 8090ae3:	5f                   	pop    %edi
 8090ae4:	c3                   	ret    
 8090ae0:	8d 47 04             	lea    0x4(%edi),%eax
 8090ae3:	5f                   	pop    %edi
 8090ae4:	c3                   	ret    
 8090ae5:	8d 74 26 00          	lea    0x0(%esi,%eiz,1),%esi
 8090ae9:	8d bc 27 00 00 00 00 	lea    0x0(%edi,%eiz,1),%edi
 8090af0:	8d 47 05             	lea    0x5(%edi),%eax
 8090af3:	5f                   	pop    %edi
 8090af4:	c3                   	ret    
 8090af0:	8d 47 05             	lea    0x5(%edi),%eax
 8090af3:	5f                   	pop    %edi
 8090af4:	c3                   	ret    
 8090af5:	8d 74 26 00          	lea    0x0(%esi,%eiz,1),%esi
 8090af9:	8d bc 27 00 00 00 00 	lea    0x0(%edi,%eiz,1),%edi
 8090b00:	8d 47 06             	lea    0x6(%edi),%eax
 8090b03:	5f                   	pop    %edi
 8090b04:	c3                   	ret    
 8090b00:	8d 47 06             	lea    0x6(%edi),%eax
 8090b03:	5f                   	pop    %edi
 8090b04:	c3                   	ret    
 8090b05:	8d 74 26 00          	lea    0x0(%esi,%eiz,1),%esi
 8090b09:	8d bc 27 00 00 00 00 	lea    0x0(%edi,%eiz,1),%edi
 8090b10:	8d 47 08             	lea    0x8(%edi),%eax
 8090b13:	5f                   	pop    %edi
 8090b14:	c3                   	ret    
 8090b10:	8d 47 08             	lea    0x8(%edi),%eax
 8090b13:	5f                   	pop    %edi
 8090b14:	c3                   	ret    
 8090b15:	8d 74 26 00          	lea    0x0(%esi,%eiz,1),%esi
 8090b19:	8d bc 27 00 00 00 00 	lea    0x0(%edi,%eiz,1),%edi
 8090b20:	8d 47 09             	lea    0x9(%edi),%eax
 8090b23:	5f                   	pop    %edi
 8090b24:	c3                   	ret    
 8090b20:	8d 47 09             	lea    0x9(%edi),%eax
 8090b23:	5f                   	pop    %edi
 8090b24:	c3                   	ret    
 8090b25:	8d 74 26 00          	lea    0x0(%esi,%eiz,1),%esi
 8090b29:	8d bc 27 00 00 00 00 	lea    0x0(%edi,%eiz,1),%edi
 8090b30:	8d 47 0a             	lea    0xa(%edi),%eax
 8090b33:	5f                   	pop    %edi
 8090b34:	c3                   	ret    
 8090b30:	8d 47 0a             	lea    0xa(%edi),%eax
 8090b33:	5f                   	pop    %edi
 8090b34:	c3                   	ret    
 8090b35:	8d 74 26 00          	lea    0x0(%esi,%eiz,1),%esi
 8090b39:	8d bc 27 00 00 00 00 	lea    0x0(%edi,%eiz,1),%edi
 8090b40:	8d 47 0c             	lea    0xc(%edi),%eax
 8090b43:	5f                   	pop    %edi
 8090b44:	c3                   	ret    
 8090b40:	8d 47 0c             	lea    0xc(%edi),%eax
 8090b43:	5f                   	pop    %edi
 8090b44:	c3                   	ret    
 8090b45:	8d 74 26 00          	lea    0x0(%esi,%eiz,1),%esi
 8090b49:	8d bc 27 00 00 00 00 	lea    0x0(%edi,%eiz,1),%edi
 8090b50:	8d 47 0d             	lea    0xd(%edi),%eax
 8090b53:	5f                   	pop    %edi
 8090b54:	c3                   	ret    
 8090b50:	8d 47 0d             	lea    0xd(%edi),%eax
 8090b53:	5f                   	pop    %edi
 8090b54:	c3                   	ret    
 8090b55:	8d 74 26 00          	lea    0x0(%esi,%eiz,1),%esi
 8090b59:	8d bc 27 00 00 00 00 	lea    0x0(%edi,%eiz,1),%edi
 8090b60:	8d 47 0e             	lea    0xe(%edi),%eax
 8090b63:	5f                   	pop    %edi
 8090b64:	c3                   	ret    
 8090b89:	0f 85 c1 00 00 00    	jne    8090c50 <__memchr_sse2+0x4b0>
 8090b8f:	a8 04                	test   $0x4,%al
 8090b91:	0f 85 c9 00 00 00    	jne    8090c60 <__memchr_sse2+0x4c0>
 8090b97:	83 ea 04             	sub    $0x4,%edx
 8090b9a:	0f 82 60 01 00 00    	jb     8090d00 <__memchr_sse2+0x560>
 8090ba0:	8d 47 03             	lea    0x3(%edi),%eax
 8090ba3:	5f                   	pop    %edi
 8090ba4:	c3                   	ret    
 8090bba:	0f 85 c0 00 00 00    	jne    8090c80 <__memchr_sse2+0x4e0>
 8090bc0:	a8 40                	test   $0x40,%al
 8090bc2:	0f 85 c8 00 00 00    	jne    8090c90 <__memchr_sse2+0x4f0>
 8090bc8:	83 ea 08             	sub    $0x8,%edx
 8090bcb:	0f 82 2f 01 00 00    	jb     8090d00 <__memchr_sse2+0x560>
 8090bd1:	8d 47 07             	lea    0x7(%edi),%eax
 8090bd4:	5f                   	pop    %edi
 8090bd5:	c3                   	ret    
 8090bf3:	0f 85 b7 00 00 00    	jne    8090cb0 <__memchr_sse2+0x510>
 8090bf9:	f6 c4 04             	test   $0x4,%ah
 8090bfc:	0f 85 be 00 00 00    	jne    8090cc0 <__memchr_sse2+0x520>
 8090c02:	83 ea 0c             	sub    $0xc,%edx
 8090c05:	0f 82 f5 00 00 00    	jb     8090d00 <__memchr_sse2+0x560>
 8090c0b:	8d 47 0b             	lea    0xb(%edi),%eax
 8090c0e:	5f                   	pop    %edi
 8090c0f:	c3                   	ret    
 8090c1c:	0f 85 be 00 00 00    	jne    8090ce0 <__memchr_sse2+0x540>
 8090c22:	f6 c4 40             	test   $0x40,%ah
 8090c25:	0f 85 c5 00 00 00    	jne    8090cf0 <__memchr_sse2+0x550>
 8090c2b:	83 ea 10             	sub    $0x10,%edx
 8090c2e:	0f 82 cc 00 00 00    	jb     8090d00 <__memchr_sse2+0x560>
 8090c34:	8d 47 0f             	lea    0xf(%edi),%eax
 8090c37:	5f                   	pop    %edi
 8090c38:	c3                   	ret    
 8090c2e:	0f 82 cc 00 00 00    	jb     8090d00 <__memchr_sse2+0x560>
 8090c34:	8d 47 0f             	lea    0xf(%edi),%eax
 8090c37:	5f                   	pop    %edi
 8090c38:	c3                   	ret    
 8090c39:	8d b4 26 00 00 00 00 	lea    0x0(%esi,%eiz,1),%esi
 8090c40:	89 f8                	mov    %edi,%eax
 8090c42:	5f                   	pop    %edi
 8090c43:	c3                   	ret    
 8090c43:	c3                   	ret    
 8090c44:	8d b6 00 00 00 00    	lea    0x0(%esi),%esi
 8090c4a:	8d bf 00 00 00 00    	lea    0x0(%edi),%edi
 8090c50:	83 ea 02             	sub    $0x2,%edx
 8090c53:	0f 82 a7 00 00 00    	jb     8090d00 <__memchr_sse2+0x560>
 8090c59:	8d 47 01             	lea    0x1(%edi),%eax
 8090c5c:	5f                   	pop    %edi
 8090c5d:	c3                   	ret    
 8090c5c:	5f                   	pop    %edi
 8090c5d:	c3                   	ret    
 8090c5e:	66 90                	xchg   %ax,%ax
 8090c60:	83 ea 03             	sub    $0x3,%edx
 8090c63:	0f 82 97 00 00 00    	jb     8090d00 <__memchr_sse2+0x560>
 8090c69:	8d 47 02             	lea    0x2(%edi),%eax
 8090c6c:	5f                   	pop    %edi
 8090c6d:	c3                   	ret    
 8090c6c:	5f                   	pop    %edi
 8090c6d:	c3                   	ret    
 8090c6e:	66 90                	xchg   %ax,%ax
 8090c70:	83 ea 05             	sub    $0x5,%edx
 8090c73:	0f 82 87 00 00 00    	jb     8090d00 <__memchr_sse2+0x560>
 8090c79:	8d 47 04             	lea    0x4(%edi),%eax
 8090c7c:	5f                   	pop    %edi
 8090c7d:	c3                   	ret    
 8090c7c:	5f                   	pop    %edi
 8090c7d:	c3                   	ret    
 8090c7e:	66 90                	xchg   %ax,%ax
 8090c80:	83 ea 06             	sub    $0x6,%edx
 8090c83:	72 7b                	jb     8090d00 <__memchr_sse2+0x560>
 8090c85:	8d 47 05             	lea    0x5(%edi),%eax
 8090c88:	5f                   	pop    %edi
 8090c89:	c3                   	ret    
 8090c88:	5f                   	pop    %edi
 8090c89:	c3                   	ret    
 8090c8a:	8d b6 00 00 00 00    	lea    0x0(%esi),%esi
 8090c90:	83 ea 07             	sub    $0x7,%edx
 8090c93:	72 6b                	jb     8090d00 <__memchr_sse2+0x560>
 8090c95:	8d 47 06             	lea    0x6(%edi),%eax
 8090c98:	5f                   	pop    %edi
 8090c99:	c3                   	ret    
 8090c98:	5f                   	pop    %edi
 8090c99:	c3                   	ret    
 8090c9a:	8d b6 00 00 00 00    	lea    0x0(%esi),%esi
 8090ca0:	83 ea 09             	sub    $0x9,%edx
 8090ca3:	72 5b                	jb     8090d00 <__memchr_sse2+0x560>
 8090ca5:	8d 47 08             	lea    0x8(%edi),%eax
 8090ca8:	5f                   	pop    %edi
 8090ca9:	c3                   	ret    
 8090ca8:	5f                   	pop    %edi
 8090ca9:	c3                   	ret    
 8090caa:	8d b6 00 00 00 00    	lea    0x0(%esi),%esi
 8090cb0:	83 ea 0a             	sub    $0xa,%edx
 8090cb3:	72 4b                	jb     8090d00 <__memchr_sse2+0x560>
 8090cb5:	8d 47 09             	lea    0x9(%edi),%eax
 8090cb8:	5f                   	pop    %edi
 8090cb9:	c3                   	ret    
 8090cb8:	5f                   	pop    %edi
 8090cb9:	c3                   	ret    
 8090cba:	8d b6 00 00 00 00    	lea    0x0(%esi),%esi
 8090cc0:	83 ea 0b             	sub    $0xb,%edx
 8090cc3:	72 3b                	jb     8090d00 <__memchr_sse2+0x560>
 8090cc5:	8d 47 0a             	lea    0xa(%edi),%eax
 8090cc8:	5f                   	pop    %edi
 8090cc9:	c3                   	ret    
 8090cc8:	5f                   	pop    %edi
 8090cc9:	c3                   	ret    
 8090cca:	8d b6 00 00 00 00    	lea    0x0(%esi),%esi
 8090cd0:	83 ea 0d             	sub    $0xd,%edx
 8090cd3:	72 2b                	jb     8090d00 <__memchr_sse2+0x560>
 8090cd5:	8d 47 0c             	lea    0xc(%edi),%eax
 8090cd8:	5f                   	pop    %edi
 8090cd9:	c3                   	ret    
 8090cd8:	5f                   	pop    %edi
 8090cd9:	c3                   	ret    
 8090cda:	8d b6 00 00 00 00    	lea    0x0(%esi),%esi
 8090ce0:	83 ea 0e             	sub    $0xe,%edx
 8090ce3:	72 1b                	jb     8090d00 <__memchr_sse2+0x560>
 8090ce5:	8d 47 0d             	lea    0xd(%edi),%eax
 8090ce8:	5f                   	pop    %edi
 8090ce9:	c3                   	ret    
 8090ce8:	5f                   	pop    %edi
 8090ce9:	c3                   	ret    
 8090cea:	8d b6 00 00 00 00    	lea    0x0(%esi),%esi
 8090cf0:	83 ea 0f             	sub    $0xf,%edx
 8090cf3:	72 0b                	jb     8090d00 <__memchr_sse2+0x560>
 8090cf5:	8d 47 0e             	lea    0xe(%edi),%eax
 8090cf8:	5f                   	pop    %edi
 8090cf9:	c3                   	ret    
 8090cf3:	72 0b                	jb     8090d00 <__memchr_sse2+0x560>
 8090cf5:	8d 47 0e             	lea    0xe(%edi),%eax
 8090cf8:	5f                   	pop    %edi
 8090cf9:	c3                   	ret    
 8090cfa:	8d b6 00 00 00 00    	lea    0x0(%esi),%esi
 8090d00:	31 c0                	xor    %eax,%eax
 8090d02:	5f                   	pop    %edi
 8090d03:	c3                   	ret    
 8090d41:	66 0f d7 c8          	pmovmskb %xmm0,%ecx
 8090d45:	85 c9                	test   %ecx,%ecx
 8090d47:	74 17                	je     8090d60 <__memchr_sse2_bsf+0x50>
 8090d49:	0f bc c9             	bsf    %ecx,%ecx
 8090d4c:	29 ca                	sub    %ecx,%edx
 8090d4e:	76 30                	jbe    8090d80 <__memchr_sse2_bsf+0x70>
 8090d50:	01 c8                	add    %ecx,%eax
 8090d52:	c3                   	ret    
 8090d69:	83 e0 0f             	and    $0xf,%eax
 8090d6c:	83 e7 f0             	and    $0xfffffff0,%edi
 8090d6f:	01 c2                	add    %eax,%edx
 8090d71:	eb 6d                	jmp    8090de0 <__memchr_sse2_bsf+0xd0>
 8090d73:	8d b6 00 00 00 00    	lea    0x0(%esi),%esi
 8090d79:	8d bc 27 00 00 00 00 	lea    0x0(%edi,%eiz,1),%edi
 8090d80:	31 c0                	xor    %eax,%eax
 8090d82:	c3                   	ret    
 8090da9:	74 15                	je     8090dc0 <__memchr_sse2_bsf+0xb0>
 8090dab:	0f bc c0             	bsf    %eax,%eax
 8090dae:	29 c2                	sub    %eax,%edx
 8090db0:	0f 86 aa 02 00 00    	jbe    8091060 <__memchr_sse2_bsf+0x350>
 8090db6:	01 f8                	add    %edi,%eax
 8090db8:	01 c8                	add    %ecx,%eax
 8090dba:	5f                   	pop    %edi
 8090dbb:	c3                   	ret    
 8090f1c:	66 0f d7 c3          	pmovmskb %xmm3,%eax
 8090f20:	85 c0                	test   %eax,%eax
 8090f22:	0f 85 e8 00 00 00    	jne    8091010 <__memchr_sse2_bsf+0x300>
 8090f28:	66 0f d7 c1          	pmovmskb %xmm1,%eax
 8090f2c:	0f bc c0             	bsf    %eax,%eax
 8090f2f:	8d 44 07 30          	lea    0x30(%edi,%eax,1),%eax
 8090f33:	5f                   	pop    %edi
 8090f34:	c3                   	ret    
 8090f89:	0f 86 d1 00 00 00    	jbe    8091060 <__memchr_sse2_bsf+0x350>
 8090f8f:	66 0f 74 4f 30       	pcmpeqb 0x30(%edi),%xmm1
 8090f94:	66 0f d7 c1          	pmovmskb %xmm1,%eax
 8090f98:	85 c0                	test   %eax,%eax
 8090f9a:	0f 85 b0 00 00 00    	jne    8091050 <__memchr_sse2_bsf+0x340>
 8090fa0:	31 c0                	xor    %eax,%eax
 8090fa2:	5f                   	pop    %edi
 8090fa3:	c3                   	ret    
 8090fc3:	0f 86 97 00 00 00    	jbe    8091060 <__memchr_sse2_bsf+0x350>
 8090fc9:	66 0f 74 4f 10       	pcmpeqb 0x10(%edi),%xmm1
 8090fce:	66 0f d7 c1          	pmovmskb %xmm1,%eax
 8090fd2:	85 c0                	test   %eax,%eax
 8090fd4:	75 5a                	jne    8091030 <__memchr_sse2_bsf+0x320>
 8090fd6:	31 c0                	xor    %eax,%eax
 8090fd8:	5f                   	pop    %edi
 8090fd9:	c3                   	ret    
 8090fd6:	31 c0                	xor    %eax,%eax
 8090fd8:	5f                   	pop    %edi
 8090fd9:	c3                   	ret    
 8090fda:	8d b6 00 00 00 00    	lea    0x0(%esi),%esi
 8090fe0:	0f bc c0             	bsf    %eax,%eax
 8090fe3:	8d 44 38 f0          	lea    -0x10(%eax,%edi,1),%eax
 8090fe7:	5f                   	pop    %edi
 8090fe8:	c3                   	ret    
 8090fe3:	8d 44 38 f0          	lea    -0x10(%eax,%edi,1),%eax
 8090fe7:	5f                   	pop    %edi
 8090fe8:	c3                   	ret    
 8090fe9:	8d b4 26 00 00 00 00 	lea    0x0(%esi,%eiz,1),%esi
 8090ff0:	0f bc c0             	bsf    %eax,%eax
 8090ff3:	01 f8                	add    %edi,%eax
 8090ff5:	5f                   	pop    %edi
 8090ff6:	c3                   	ret    
 8090ff5:	5f                   	pop    %edi
 8090ff6:	c3                   	ret    
 8090ff7:	89 f6                	mov    %esi,%esi
 8090ff9:	8d bc 27 00 00 00 00 	lea    0x0(%edi,%eiz,1),%edi
 8091000:	0f bc c0             	bsf    %eax,%eax
 8091003:	8d 44 38 10          	lea    0x10(%eax,%edi,1),%eax
 8091007:	5f                   	pop    %edi
 8091008:	c3                   	ret    
 8091003:	8d 44 38 10          	lea    0x10(%eax,%edi,1),%eax
 8091007:	5f                   	pop    %edi
 8091008:	c3                   	ret    
 8091009:	8d b4 26 00 00 00 00 	lea    0x0(%esi,%eiz,1),%esi
 8091010:	0f bc c0             	bsf    %eax,%eax
 8091013:	8d 44 38 20          	lea    0x20(%eax,%edi,1),%eax
 8091017:	5f                   	pop    %edi
 8091018:	c3                   	ret    
 8091018:	c3                   	ret    
 8091019:	8d b4 26 00 00 00 00 	lea    0x0(%esi,%eiz,1),%esi
 8091020:	0f bc c0             	bsf    %eax,%eax
 8091023:	29 c2                	sub    %eax,%edx
 8091025:	76 39                	jbe    8091060 <__memchr_sse2_bsf+0x350>
 8091027:	01 f8                	add    %edi,%eax
 8091029:	5f                   	pop    %edi
 809102a:	c3                   	ret    
 809102c:	8d 74 26 00          	lea    0x0(%esi,%eiz,1),%esi
 8091030:	83 ea 10             	sub    $0x10,%edx
 8091033:	0f bc c0             	bsf    %eax,%eax
 8091036:	29 c2                	sub    %eax,%edx
 8091038:	76 26                	jbe    8091060 <__memchr_sse2_bsf+0x350>
 809103a:	8d 44 07 10          	lea    0x10(%edi,%eax,1),%eax
 809103e:	5f                   	pop    %edi
 809103f:	c3                   	ret    
 809103f:	c3                   	ret    
 8091040:	83 ea 20             	sub    $0x20,%edx
 8091043:	0f bc c0             	bsf    %eax,%eax
 8091046:	29 c2                	sub    %eax,%edx
 8091048:	76 16                	jbe    8091060 <__memchr_sse2_bsf+0x350>
 809104a:	8d 44 07 20          	lea    0x20(%edi,%eax,1),%eax
 809104e:	5f                   	pop    %edi
 809104f:	c3                   	ret    
 809104f:	c3                   	ret    
 8091050:	83 ea 30             	sub    $0x30,%edx
 8091053:	0f bc c0             	bsf    %eax,%eax
 8091056:	29 c2                	sub    %eax,%edx
 8091058:	76 06                	jbe    8091060 <__memchr_sse2_bsf+0x350>
 809105a:	8d 44 07 30          	lea    0x30(%edi,%eax,1),%eax
 809105e:	5f                   	pop    %edi
 809105f:	c3                   	ret    
 8091056:	29 c2                	sub    %eax,%edx
 8091058:	76 06                	jbe    8091060 <__memchr_sse2_bsf+0x350>
 809105a:	8d 44 07 30          	lea    0x30(%edi,%eax,1),%eax
 809105e:	5f                   	pop    %edi
 809105f:	c3                   	ret    
 8091060:	31 c0                	xor    %eax,%eax
 8091062:	5f                   	pop    %edi
 8091063:	c3                   	ret    
 809133d:	0f 85 8b 00 00 00    	jne    80913ce <__strnlen_sse2+0x35e>
 8091343:	f6 c2 02             	test   $0x2,%dl
 8091346:	0f 85 c4 03 00 00    	jne    8091710 <__strnlen_sse2+0x6a0>
 809134c:	f6 c2 04             	test   $0x4,%dl
 809134f:	0f 85 c0 03 00 00    	jne    8091715 <__strnlen_sse2+0x6a5>
 8091355:	83 c0 03             	add    $0x3,%eax
 8091358:	5f                   	pop    %edi
 8091359:	c3                   	ret    
 8091363:	0f 85 b6 03 00 00    	jne    809171f <__strnlen_sse2+0x6af>
 8091369:	f6 c2 20             	test   $0x20,%dl
 809136c:	0f 85 b2 03 00 00    	jne    8091724 <__strnlen_sse2+0x6b4>
 8091372:	f6 c2 40             	test   $0x40,%dl
 8091375:	0f 85 ae 03 00 00    	jne    8091729 <__strnlen_sse2+0x6b9>
 809137b:	83 c0 07             	add    $0x7,%eax
 809137e:	5f                   	pop    %edi
 809137f:	c3                   	ret    
 809138a:	0f 85 a3 03 00 00    	jne    8091733 <__strnlen_sse2+0x6c3>
 8091390:	f6 c6 02             	test   $0x2,%dh
 8091393:	0f 85 9f 03 00 00    	jne    8091738 <__strnlen_sse2+0x6c8>
 8091399:	f6 c6 04             	test   $0x4,%dh
 809139c:	0f 85 9b 03 00 00    	jne    809173d <__strnlen_sse2+0x6cd>
 80913a2:	83 c0 0b             	add    $0xb,%eax
 80913a5:	5f                   	pop    %edi
 80913a6:	c3                   	ret    
 80913b3:	0f 85 8e 03 00 00    	jne    8091747 <__strnlen_sse2+0x6d7>
 80913b9:	f6 c6 20             	test   $0x20,%dh
 80913bc:	0f 85 8a 03 00 00    	jne    809174c <__strnlen_sse2+0x6dc>
 80913c2:	f6 c6 40             	test   $0x40,%dh
 80913c5:	0f 85 86 03 00 00    	jne    8091751 <__strnlen_sse2+0x6e1>
 80913cb:	83 c0 0f             	add    $0xf,%eax
 80913ce:	5f                   	pop    %edi
 80913cf:	c3                   	ret    
 8091423:	66 0f 74 08          	pcmpeqb (%eax),%xmm1
 8091427:	66 0f d7 d1          	pmovmskb %xmm1,%edx
 809142b:	8d 40 10             	lea    0x10(%eax),%eax
 809142e:	85 d2                	test   %edx,%edx
 8091430:	75 0e                	jne    8091440 <__strnlen_sse2+0x3d0>
 8091432:	8b 44 24 0c          	mov    0xc(%esp),%eax
 8091436:	5f                   	pop    %edi
 8091437:	c3                   	ret    
 8091459:	0f 85 b1 00 00 00    	jne    8091510 <__strnlen_sse2+0x4a0>
 809145f:	f6 c2 04             	test   $0x4,%dl
 8091462:	0f 85 b8 00 00 00    	jne    8091520 <__strnlen_sse2+0x4b0>
 8091468:	83 ef 04             	sub    $0x4,%edi
 809146b:	0f 82 4f 01 00 00    	jb     80915c0 <__strnlen_sse2+0x550>
 8091471:	8d 40 03             	lea    0x3(%eax),%eax
 8091474:	5f                   	pop    %edi
 8091475:	c3                   	ret    
 809148c:	0f 85 ae 00 00 00    	jne    8091540 <__strnlen_sse2+0x4d0>
 8091492:	f6 c2 40             	test   $0x40,%dl
 8091495:	0f 85 b5 00 00 00    	jne    8091550 <__strnlen_sse2+0x4e0>
 809149b:	83 ef 08             	sub    $0x8,%edi
 809149e:	0f 82 1c 01 00 00    	jb     80915c0 <__strnlen_sse2+0x550>
 80914a4:	8d 40 07             	lea    0x7(%eax),%eax
 80914a7:	5f                   	pop    %edi
 80914a8:	c3                   	ret    
 80914c3:	0f 85 a7 00 00 00    	jne    8091570 <__strnlen_sse2+0x500>
 80914c9:	f6 c6 04             	test   $0x4,%dh
 80914cc:	0f 85 ae 00 00 00    	jne    8091580 <__strnlen_sse2+0x510>
 80914d2:	83 ef 0c             	sub    $0xc,%edi
 80914d5:	0f 82 e5 00 00 00    	jb     80915c0 <__strnlen_sse2+0x550>
 80914db:	8d 40 0b             	lea    0xb(%eax),%eax
 80914de:	5f                   	pop    %edi
 80914df:	c3                   	ret    
 80914ec:	0f 85 ae 00 00 00    	jne    80915a0 <__strnlen_sse2+0x530>
 80914f2:	f6 c6 40             	test   $0x40,%dh
 80914f5:	0f 85 b5 00 00 00    	jne    80915b0 <__strnlen_sse2+0x540>
 80914fb:	83 ef 10             	sub    $0x10,%edi
 80914fe:	0f 82 bc 00 00 00    	jb     80915c0 <__strnlen_sse2+0x550>
 8091504:	8d 40 0f             	lea    0xf(%eax),%eax
 8091507:	5f                   	pop    %edi
 8091508:	c3                   	ret    
 8091507:	5f                   	pop    %edi
 8091508:	c3                   	ret    
 8091509:	8d b4 26 00 00 00 00 	lea    0x0(%esi,%eiz,1),%esi
 8091510:	83 ef 02             	sub    $0x2,%edi
 8091513:	0f 82 a7 00 00 00    	jb     80915c0 <__strnlen_sse2+0x550>
 8091519:	8d 40 01             	lea    0x1(%eax),%eax
 809151c:	5f                   	pop    %edi
 809151d:	c3                   	ret    
 809151c:	5f                   	pop    %edi
 809151d:	c3                   	ret    
 809151e:	66 90                	xchg   %ax,%ax
 8091520:	83 ef 03             	sub    $0x3,%edi
 8091523:	0f 82 97 00 00 00    	jb     80915c0 <__strnlen_sse2+0x550>
 8091529:	8d 40 02             	lea    0x2(%eax),%eax
 809152c:	5f                   	pop    %edi
 809152d:	c3                   	ret    
 809152c:	5f                   	pop    %edi
 809152d:	c3                   	ret    
 809152e:	66 90                	xchg   %ax,%ax
 8091530:	83 ef 05             	sub    $0x5,%edi
 8091533:	0f 82 87 00 00 00    	jb     80915c0 <__strnlen_sse2+0x550>
 8091539:	8d 40 04             	lea    0x4(%eax),%eax
 809153c:	5f                   	pop    %edi
 809153d:	c3                   	ret    
 809153c:	5f                   	pop    %edi
 809153d:	c3                   	ret    
 809153e:	66 90                	xchg   %ax,%ax
 8091540:	83 ef 06             	sub    $0x6,%edi
 8091543:	72 7b                	jb     80915c0 <__strnlen_sse2+0x550>
 8091545:	8d 40 05             	lea    0x5(%eax),%eax
 8091548:	5f                   	pop    %edi
 8091549:	c3                   	ret    
 8091548:	5f                   	pop    %edi
 8091549:	c3                   	ret    
 809154a:	8d b6 00 00 00 00    	lea    0x0(%esi),%esi
 8091550:	83 ef 07             	sub    $0x7,%edi
 8091553:	72 6b                	jb     80915c0 <__strnlen_sse2+0x550>
 8091555:	8d 40 06             	lea    0x6(%eax),%eax
 8091558:	5f                   	pop    %edi
 8091559:	c3                   	ret    
 8091558:	5f                   	pop    %edi
 8091559:	c3                   	ret    
 809155a:	8d b6 00 00 00 00    	lea    0x0(%esi),%esi
 8091560:	83 ef 09             	sub    $0x9,%edi
 8091563:	72 5b                	jb     80915c0 <__strnlen_sse2+0x550>
 8091565:	8d 40 08             	lea    0x8(%eax),%eax
 8091568:	5f                   	pop    %edi
 8091569:	c3                   	ret    
 8091568:	5f                   	pop    %edi
 8091569:	c3                   	ret    
 809156a:	8d b6 00 00 00 00    	lea    0x0(%esi),%esi
 8091570:	83 ef 0a             	sub    $0xa,%edi
 8091573:	72 4b                	jb     80915c0 <__strnlen_sse2+0x550>
 8091575:	8d 40 09             	lea    0x9(%eax),%eax
 8091578:	5f                   	pop    %edi
 8091579:	c3                   	ret    
 8091578:	5f                   	pop    %edi
 8091579:	c3                   	ret    
 809157a:	8d b6 00 00 00 00    	lea    0x0(%esi),%esi
 8091580:	83 ef 0b             	sub    $0xb,%edi
 8091583:	72 3b                	jb     80915c0 <__strnlen_sse2+0x550>
 8091585:	8d 40 0a             	lea    0xa(%eax),%eax
 8091588:	5f                   	pop    %edi
 8091589:	c3                   	ret    
 8091588:	5f                   	pop    %edi
 8091589:	c3                   	ret    
 809158a:	8d b6 00 00 00 00    	lea    0x0(%esi),%esi
 8091590:	83 ef 0d             	sub    $0xd,%edi
 8091593:	72 2b                	jb     80915c0 <__strnlen_sse2+0x550>
 8091595:	8d 40 0c             	lea    0xc(%eax),%eax
 8091598:	5f                   	pop    %edi
 8091599:	c3                   	ret    
 8091598:	5f                   	pop    %edi
 8091599:	c3                   	ret    
 809159a:	8d b6 00 00 00 00    	lea    0x0(%esi),%esi
 80915a0:	83 ef 0e             	sub    $0xe,%edi
 80915a3:	72 1b                	jb     80915c0 <__strnlen_sse2+0x550>
 80915a5:	8d 40 0d             	lea    0xd(%eax),%eax
 80915a8:	5f                   	pop    %edi
 80915a9:	c3                   	ret    
 80915a8:	5f                   	pop    %edi
 80915a9:	c3                   	ret    
 80915aa:	8d b6 00 00 00 00    	lea    0x0(%esi),%esi
 80915b0:	83 ef 0f             	sub    $0xf,%edi
 80915b3:	72 0b                	jb     80915c0 <__strnlen_sse2+0x550>
 80915b5:	8d 40 0e             	lea    0xe(%eax),%eax
 80915b8:	5f                   	pop    %edi
 80915b9:	c3                   	ret    
 80915b3:	72 0b                	jb     80915c0 <__strnlen_sse2+0x550>
 80915b5:	8d 40 0e             	lea    0xe(%eax),%eax
 80915b8:	5f                   	pop    %edi
 80915b9:	c3                   	ret    
 80915ba:	8d b6 00 00 00 00    	lea    0x0(%esi),%esi
 80915c0:	8b 44 24 0c          	mov    0xc(%esp),%eax
 80915c4:	5f                   	pop    %edi
 80915c5:	c3                   	ret    
 8091604:	0f 84 0b 01 00 00    	je     8091715 <__strnlen_sse2+0x6a5>
 809160a:	83 ff 03             	cmp    $0x3,%edi
 809160d:	0f 84 07 01 00 00    	je     809171a <__strnlen_sse2+0x6aa>
 8091613:	80 7a 03 00          	cmpb   $0x0,0x3(%edx)
 8091617:	0f 84 fd 00 00 00    	je     809171a <__strnlen_sse2+0x6aa>
 809161d:	b8 04 00 00 00       	mov    $0x4,%eax
 8091622:	5f                   	pop    %edi
 8091623:	c3                   	ret    
 809165d:	0f 84 c6 00 00 00    	je     8091729 <__strnlen_sse2+0x6b9>
 8091663:	83 ff 03             	cmp    $0x3,%edi
 8091666:	0f 84 c2 00 00 00    	je     809172e <__strnlen_sse2+0x6be>
 809166c:	80 7a 07 00          	cmpb   $0x0,0x7(%edx)
 8091670:	0f 84 b8 00 00 00    	je     809172e <__strnlen_sse2+0x6be>
 8091676:	b8 08 00 00 00       	mov    $0x8,%eax
 809167b:	5f                   	pop    %edi
 809167c:	c3                   	ret    
 80916ad:	0f 84 8a 00 00 00    	je     809173d <__strnlen_sse2+0x6cd>
 80916b3:	83 ff 03             	cmp    $0x3,%edi
 80916b6:	0f 84 86 00 00 00    	je     8091742 <__strnlen_sse2+0x6d2>
 80916bc:	80 7a 0b 00          	cmpb   $0x0,0xb(%edx)
 80916c0:	0f 84 7c 00 00 00    	je     8091742 <__strnlen_sse2+0x6d2>
 80916c6:	b8 0c 00 00 00       	mov    $0xc,%eax
 80916cb:	5f                   	pop    %edi
 80916cc:	c3                   	ret    
 80916ed:	74 62                	je     8091751 <__strnlen_sse2+0x6e1>
 80916ef:	83 ff 03             	cmp    $0x3,%edi
 80916f2:	74 62                	je     8091756 <__strnlen_sse2+0x6e6>
 80916f4:	80 7a 0f 00          	cmpb   $0x0,0xf(%edx)
 80916f8:	74 5c                	je     8091756 <__strnlen_sse2+0x6e6>
 80916fa:	b8 10 00 00 00       	mov    $0x10,%eax
 80916ff:	5f                   	pop    %edi
 8091700:	c3                   	ret    
 809170b:	90                   	nop
 809170c:	90                   	nop
 809170d:	90                   	nop
 809170e:	90                   	nop
 809170f:	90                   	nop
 8091710:	83 c0 01             	add    $0x1,%eax
 8091713:	5f                   	pop    %edi
 8091714:	c3                   	ret    
 809170e:	90                   	nop
 809170f:	90                   	nop
 8091710:	83 c0 01             	add    $0x1,%eax
 8091713:	5f                   	pop    %edi
 8091714:	c3                   	ret    
 8091715:	83 c0 02             	add    $0x2,%eax
 8091718:	5f                   	pop    %edi
 8091719:	c3                   	ret    
 8091713:	5f                   	pop    %edi
 8091714:	c3                   	ret    
 8091715:	83 c0 02             	add    $0x2,%eax
 8091718:	5f                   	pop    %edi
 8091719:	c3                   	ret    
 809171a:	83 c0 03             	add    $0x3,%eax
 809171d:	5f                   	pop    %edi
 809171e:	c3                   	ret    
 8091718:	5f                   	pop    %edi
 8091719:	c3                   	ret    
 809171a:	83 c0 03             	add    $0x3,%eax
 809171d:	5f                   	pop    %edi
 809171e:	c3                   	ret    
 809171f:	83 c0 04             	add    $0x4,%eax
 8091722:	5f                   	pop    %edi
 8091723:	c3                   	ret    
 809171d:	5f                   	pop    %edi
 809171e:	c3                   	ret    
 809171f:	83 c0 04             	add    $0x4,%eax
 8091722:	5f                   	pop    %edi
 8091723:	c3                   	ret    
 8091724:	83 c0 05             	add    $0x5,%eax
 8091727:	5f                   	pop    %edi
 8091728:	c3                   	ret    
 8091722:	5f                   	pop    %edi
 8091723:	c3                   	ret    
 8091724:	83 c0 05             	add    $0x5,%eax
 8091727:	5f                   	pop    %edi
 8091728:	c3                   	ret    
 8091729:	83 c0 06             	add    $0x6,%eax
 809172c:	5f                   	pop    %edi
 809172d:	c3                   	ret    
 8091727:	5f                   	pop    %edi
 8091728:	c3                   	ret    
 8091729:	83 c0 06             	add    $0x6,%eax
 809172c:	5f                   	pop    %edi
 809172d:	c3                   	ret    
 809172e:	83 c0 07             	add    $0x7,%eax
 8091731:	5f                   	pop    %edi
 8091732:	c3                   	ret    
 809172c:	5f                   	pop    %edi
 809172d:	c3                   	ret    
 809172e:	83 c0 07             	add    $0x7,%eax
 8091731:	5f                   	pop    %edi
 8091732:	c3                   	ret    
 8091733:	83 c0 08             	add    $0x8,%eax
 8091736:	5f                   	pop    %edi
 8091737:	c3                   	ret    
 8091731:	5f                   	pop    %edi
 8091732:	c3                   	ret    
 8091733:	83 c0 08             	add    $0x8,%eax
 8091736:	5f                   	pop    %edi
 8091737:	c3                   	ret    
 8091738:	83 c0 09             	add    $0x9,%eax
 809173b:	5f                   	pop    %edi
 809173c:	c3                   	ret    
 8091736:	5f                   	pop    %edi
 8091737:	c3                   	ret    
 8091738:	83 c0 09             	add    $0x9,%eax
 809173b:	5f                   	pop    %edi
 809173c:	c3                   	ret    
 809173d:	83 c0 0a             	add    $0xa,%eax
 8091740:	5f                   	pop    %edi
 8091741:	c3                   	ret    
 809173b:	5f                   	pop    %edi
 809173c:	c3                   	ret    
 809173d:	83 c0 0a             	add    $0xa,%eax
 8091740:	5f                   	pop    %edi
 8091741:	c3                   	ret    
 8091742:	83 c0 0b             	add    $0xb,%eax
 8091745:	5f                   	pop    %edi
 8091746:	c3                   	ret    
 8091740:	5f                   	pop    %edi
 8091741:	c3                   	ret    
 8091742:	83 c0 0b             	add    $0xb,%eax
 8091745:	5f                   	pop    %edi
 8091746:	c3                   	ret    
 8091747:	83 c0 0c             	add    $0xc,%eax
 809174a:	5f                   	pop    %edi
 809174b:	c3                   	ret    
 8091745:	5f                   	pop    %edi
 8091746:	c3                   	ret    
 8091747:	83 c0 0c             	add    $0xc,%eax
 809174a:	5f                   	pop    %edi
 809174b:	c3                   	ret    
 809174c:	83 c0 0d             	add    $0xd,%eax
 809174f:	5f                   	pop    %edi
 8091750:	c3                   	ret    
 809174a:	5f                   	pop    %edi
 809174b:	c3                   	ret    
 809174c:	83 c0 0d             	add    $0xd,%eax
 809174f:	5f                   	pop    %edi
 8091750:	c3                   	ret    
 8091751:	83 c0 0e             	add    $0xe,%eax
 8091754:	5f                   	pop    %edi
 8091755:	c3                   	ret    
 809174f:	5f                   	pop    %edi
 8091750:	c3                   	ret    
 8091751:	83 c0 0e             	add    $0xe,%eax
 8091754:	5f                   	pop    %edi
 8091755:	c3                   	ret    
 8091756:	83 c0 0f             	add    $0xf,%eax
 8091759:	5f                   	pop    %edi
 809175a:	c3                   	ret    
 80917d2:	eb cc                	jmp    80917a0 <__strnlen_ia32+0x40>
 80917d4:	8d 74 26 00          	lea    0x0(%esi,%eiz,1),%esi
 80917d8:	39 d0                	cmp    %edx,%eax
 80917da:	0f 47 c2             	cmova  %edx,%eax
 80917dd:	29 d8                	sub    %ebx,%eax
 80917df:	5b                   	pop    %ebx
 80917e0:	5e                   	pop    %esi
 80917e1:	c3                   	ret    
 80917e1:	c3                   	ret    
 80917e2:	8d b6 00 00 00 00    	lea    0x0(%esi),%esi
 80917e8:	39 d0                	cmp    %edx,%eax
 80917ea:	0f 47 c2             	cmova  %edx,%eax
 80917ed:	29 d8                	sub    %ebx,%eax
 80917ef:	5b                   	pop    %ebx
 80917f0:	5e                   	pop    %esi
 80917f1:	c3                   	ret    
 809187b:	2b 04 b3             	sub    (%ebx,%esi,4),%eax
 809187e:	89 c6                	mov    %eax,%esi
 8091880:	74 de                	je     8091860 <__GI___strcasecmp+0x30>
 8091882:	89 f0                	mov    %esi,%eax
 8091884:	5b                   	pop    %ebx
 8091885:	5e                   	pop    %esi
 8091886:	5f                   	pop    %edi
 8091887:	c3                   	ret    
 8091a1c:	74 0a                	je     8091a28 <__memchr_ia32+0x198>
 8091a1e:	40                   	inc    %eax
 8091a1f:	f7 c1 00 00 ff 00    	test   $0xff0000,%ecx
 8091a25:	74 01                	je     8091a28 <__memchr_ia32+0x198>
 8091a27:	40                   	inc    %eax
 8091a28:	5f                   	pop    %edi
 8091a29:	5e                   	pop    %esi
 8091a2a:	c3                   	ret    
 8091bdb:	84 d2                	test   %dl,%dl
 8091bdd:	74 07                	je     8091be6 <__strrchr_ia32+0x1b6>
 8091bdf:	38 ce                	cmp    %cl,%dh
 8091be1:	75 03                	jne    8091be6 <__strrchr_ia32+0x1b6>
 8091be3:	8d 46 03             	lea    0x3(%esi),%eax
 8091be6:	5e                   	pop    %esi
 8091be7:	5f                   	pop    %edi
 8091be8:	c3                   	ret    
 8091bfb:	53                   	push   %ebx
 8091bfc:	c7 c3 00 a9 0d 08    	mov    $0x80da900,%ebx
 8091c02:	8d 8a 10 94 fb ff    	lea    -0x46bf0(%edx),%ecx
 8091c08:	8d 82 10 96 fb ff    	lea    -0x469f0(%edx),%eax
 8091c0e:	f6 43 17 04          	testb  $0x4,0x17(%ebx)
 8091c12:	5b                   	pop    %ebx
 8091c13:	0f 45 c1             	cmovne %ecx,%eax
 8091c16:	c3                   	ret    
 8091c33:	c1 e0 02             	shl    $0x2,%eax
 8091c36:	50                   	push   %eax
 8091c37:	ff 74 24 1c          	pushl  0x1c(%esp)
 8091c3b:	ff 74 24 1c          	pushl  0x1c(%esp)
 8091c3f:	e8 cc 85 fd ff       	call   806a210 <memcpy>
 8091c44:	83 c4 18             	add    $0x18,%esp
 8091c47:	5b                   	pop    %ebx
 8091c48:	c3                   	ret    
 8091c63:	c1 e0 02             	shl    $0x2,%eax
 8091c66:	50                   	push   %eax
 8091c67:	ff 74 24 1c          	pushl  0x1c(%esp)
 8091c6b:	ff 74 24 1c          	pushl  0x1c(%esp)
 8091c6f:	e8 1c 86 fd ff       	call   806a290 <memmove>
 8091c74:	83 c4 18             	add    $0x18,%esp
 8091c77:	5b                   	pop    %ebx
 8091c78:	c3                   	ret    
 8091cd9:	89 4a 04             	mov    %ecx,0x4(%edx)
 8091cdc:	75 03                	jne    8091ce1 <__wmemset+0x61>
 8091cde:	89 4a 08             	mov    %ecx,0x8(%edx)
 8091ce1:	5b                   	pop    %ebx
 8091ce2:	5e                   	pop    %esi
 8091ce3:	5f                   	pop    %edi
 8091ce4:	5d                   	pop    %ebp
 8091ce5:	c3                   	ret    
 8091d96:	65 33 0d 14 00 00 00 	xor    %gs:0x14,%ecx
 8091d9d:	0f 85 f6 00 00 00    	jne    8091e99 <__btowc+0x199>
 8091da3:	83 c4 4c             	add    $0x4c,%esp
 8091da6:	5b                   	pop    %ebx
 8091da7:	5e                   	pop    %esi
 8091da8:	5f                   	pop    %edi
 8091da9:	5d                   	pop    %ebp
 8091daa:	c3                   	ret    
 8091f7b:	65 33 0d 14 00 00 00 	xor    %gs:0x14,%ecx
 8091f82:	0f 85 cb 00 00 00    	jne    8092053 <__wcrtomb+0x1b3>
 8091f88:	83 c4 4c             	add    $0x4c,%esp
 8091f8b:	5b                   	pop    %ebx
 8091f8c:	5e                   	pop    %esi
 8091f8d:	5f                   	pop    %edi
 8091f8e:	5d                   	pop    %ebp
 8091f8f:	c3                   	ret    
 80921a7:	89 f8                	mov    %edi,%eax
 80921a9:	0f 85 52 01 00 00    	jne    8092301 <__wcsrtombs+0x2a1>
 80921af:	81 c4 6c 01 00 00    	add    $0x16c,%esp
 80921b5:	5b                   	pop    %ebx
 80921b6:	5e                   	pop    %esi
 80921b7:	5f                   	pop    %edi
 80921b8:	5d                   	pop    %ebp
 80921b9:	c3                   	ret    
 80923c0:	83 f9 02             	cmp    $0x2,%ecx
 80923c3:	74 07                	je     80923cc <__wcsnlen+0x6c>
 80923c5:	8b 04 93             	mov    (%ebx,%edx,4),%eax
 80923c8:	85 c0                	test   %eax,%eax
 80923ca:	75 c4                	jne    8092390 <__wcsnlen+0x30>
 80923cc:	89 d0                	mov    %edx,%eax
 80923ce:	5b                   	pop    %ebx
 80923cf:	c3                   	ret    
 80923c8:	85 c0                	test   %eax,%eax
 80923ca:	75 c4                	jne    8092390 <__wcsnlen+0x30>
 80923cc:	89 d0                	mov    %edx,%eax
 80923ce:	5b                   	pop    %ebx
 80923cf:	c3                   	ret    
 80923d0:	31 c0                	xor    %eax,%eax
 80923d2:	5b                   	pop    %ebx
 80923d3:	c3                   	ret    
 80923ce:	5b                   	pop    %ebx
 80923cf:	c3                   	ret    
 80923d0:	31 c0                	xor    %eax,%eax
 80923d2:	5b                   	pop    %ebx
 80923d3:	c3                   	ret    
 80923d4:	b8 01 00 00 00       	mov    $0x1,%eax
 80923d9:	5b                   	pop    %ebx
 80923da:	c3                   	ret    
 80923d2:	5b                   	pop    %ebx
 80923d3:	c3                   	ret    
 80923d4:	b8 01 00 00 00       	mov    $0x1,%eax
 80923d9:	5b                   	pop    %ebx
 80923da:	c3                   	ret    
 80923db:	b8 02 00 00 00       	mov    $0x2,%eax
 80923e0:	5b                   	pop    %ebx
 80923e1:	c3                   	ret    
 8092540:	29 c8                	sub    %ecx,%eax
 8092542:	c1 e8 02             	shr    $0x2,%eax
 8092545:	84 d2                	test   %dl,%dl
 8092547:	74 17                	je     8092560 <__wcslen_sse2+0x150>
 8092549:	88 d1                	mov    %dl,%cl
 809254b:	80 e1 0f             	and    $0xf,%cl
 809254e:	74 20                	je     8092570 <__wcslen_sse2+0x160>
 8092550:	c3                   	ret    
 809255d:	90                   	nop
 809255e:	90                   	nop
 809255f:	90                   	nop
 8092560:	88 f5                	mov    %dh,%ch
 8092562:	80 e5 0f             	and    $0xf,%ch
 8092565:	74 19                	je     8092580 <__wcslen_sse2+0x170>
 8092567:	83 c0 02             	add    $0x2,%eax
 809256a:	c3                   	ret    
 8092562:	80 e5 0f             	and    $0xf,%ch
 8092565:	74 19                	je     8092580 <__wcslen_sse2+0x170>
 8092567:	83 c0 02             	add    $0x2,%eax
 809256a:	c3                   	ret    
 809256b:	90                   	nop
 809256c:	8d 74 26 00          	lea    0x0(%esi,%eiz,1),%esi
 8092570:	83 c0 01             	add    $0x1,%eax
 8092573:	c3                   	ret    
 809256b:	90                   	nop
 809256c:	8d 74 26 00          	lea    0x0(%esi,%eiz,1),%esi
 8092570:	83 c0 01             	add    $0x1,%eax
 8092573:	c3                   	ret    
 8092574:	8d b6 00 00 00 00    	lea    0x0(%esi),%esi
 809257a:	8d bf 00 00 00 00    	lea    0x0(%edi),%edi
 8092580:	83 c0 03             	add    $0x3,%eax
 8092583:	c3                   	ret    
 8092574:	8d b6 00 00 00 00    	lea    0x0(%esi),%esi
 809257a:	8d bf 00 00 00 00    	lea    0x0(%edi),%edi
 8092580:	83 c0 03             	add    $0x3,%eax
 8092583:	c3                   	ret    
 8092584:	8d b6 00 00 00 00    	lea    0x0(%esi),%esi
 809258a:	8d bf 00 00 00 00    	lea    0x0(%edi),%edi
 8092590:	31 c0                	xor    %eax,%eax
 8092592:	c3                   	ret    
 8092584:	8d b6 00 00 00 00    	lea    0x0(%esi),%esi
 809258a:	8d bf 00 00 00 00    	lea    0x0(%edi),%edi
 8092590:	31 c0                	xor    %eax,%eax
 8092592:	c3                   	ret    
 8092593:	8d b6 00 00 00 00    	lea    0x0(%esi),%esi
 8092599:	8d bc 27 00 00 00 00 	lea    0x0(%edi,%eiz,1),%edi
 80925a0:	b8 01 00 00 00       	mov    $0x1,%eax
 80925a5:	c3                   	ret    
 8092593:	8d b6 00 00 00 00    	lea    0x0(%esi),%esi
 8092599:	8d bc 27 00 00 00 00 	lea    0x0(%edi,%eiz,1),%edi
 80925a0:	b8 01 00 00 00       	mov    $0x1,%eax
 80925a5:	c3                   	ret    
 80925a6:	8d 76 00             	lea    0x0(%esi),%esi
 80925a9:	8d bc 27 00 00 00 00 	lea    0x0(%edi,%eiz,1),%edi
 80925b0:	b8 02 00 00 00       	mov    $0x2,%eax
 80925b5:	c3                   	ret    
 80925a6:	8d 76 00             	lea    0x0(%esi),%esi
 80925a9:	8d bc 27 00 00 00 00 	lea    0x0(%edi,%eiz,1),%edi
 80925b0:	b8 02 00 00 00       	mov    $0x2,%eax
 80925b5:	c3                   	ret    
 80925b6:	8d 76 00             	lea    0x0(%esi),%esi
 80925b9:	8d bc 27 00 00 00 00 	lea    0x0(%edi,%eiz,1),%edi
 80925c0:	b8 03 00 00 00       	mov    $0x3,%eax
 80925c5:	c3                   	ret    
 80925b6:	8d 76 00             	lea    0x0(%esi),%esi
 80925b9:	8d bc 27 00 00 00 00 	lea    0x0(%edi,%eiz,1),%edi
 80925c0:	b8 03 00 00 00       	mov    $0x3,%eax
 80925c5:	c3                   	ret    
 80925c6:	8d 76 00             	lea    0x0(%esi),%esi
 80925c9:	8d bc 27 00 00 00 00 	lea    0x0(%edi,%eiz,1),%edi
 80925d0:	b8 04 00 00 00       	mov    $0x4,%eax
 80925d5:	c3                   	ret    
 80925c6:	8d 76 00             	lea    0x0(%esi),%esi
 80925c9:	8d bc 27 00 00 00 00 	lea    0x0(%edi,%eiz,1),%edi
 80925d0:	b8 04 00 00 00       	mov    $0x4,%eax
 80925d5:	c3                   	ret    
 80925d6:	8d 76 00             	lea    0x0(%esi),%esi
 80925d9:	8d bc 27 00 00 00 00 	lea    0x0(%edi,%eiz,1),%edi
 80925e0:	b8 05 00 00 00       	mov    $0x5,%eax
 80925e5:	c3                   	ret    
 80925d6:	8d 76 00             	lea    0x0(%esi),%esi
 80925d9:	8d bc 27 00 00 00 00 	lea    0x0(%edi,%eiz,1),%edi
 80925e0:	b8 05 00 00 00       	mov    $0x5,%eax
 80925e5:	c3                   	ret    
 80925e6:	8d 76 00             	lea    0x0(%esi),%esi
 80925e9:	8d bc 27 00 00 00 00 	lea    0x0(%edi,%eiz,1),%edi
 80925f0:	b8 06 00 00 00       	mov    $0x6,%eax
 80925f5:	c3                   	ret    
 80925e6:	8d 76 00             	lea    0x0(%esi),%esi
 80925e9:	8d bc 27 00 00 00 00 	lea    0x0(%edi,%eiz,1),%edi
 80925f0:	b8 06 00 00 00       	mov    $0x6,%eax
 80925f5:	c3                   	ret    
 80925f6:	8d 76 00             	lea    0x0(%esi),%esi
 80925f9:	8d bc 27 00 00 00 00 	lea    0x0(%edi,%eiz,1),%edi
 8092600:	b8 07 00 00 00       	mov    $0x7,%eax
 8092605:	c3                   	ret    
 809264d:	74 19                	je     8092668 <__wcslen_ia32+0x58>
 809264f:	89 c2                	mov    %eax,%edx
 8092651:	8b 5c 91 0c          	mov    0xc(%ecx,%edx,4),%ebx
 8092655:	8d 42 03             	lea    0x3(%edx),%eax
 8092658:	85 db                	test   %ebx,%ebx
 809265a:	75 d4                	jne    8092630 <__wcslen_ia32+0x20>
 809265c:	5b                   	pop    %ebx
 809265d:	c3                   	ret    
 8092658:	85 db                	test   %ebx,%ebx
 809265a:	75 d4                	jne    8092630 <__wcslen_ia32+0x20>
 809265c:	5b                   	pop    %ebx
 809265d:	c3                   	ret    
 809265e:	66 90                	xchg   %ax,%ax
 8092660:	89 d8                	mov    %ebx,%eax
 8092662:	5b                   	pop    %ebx
 8092663:	c3                   	ret    
 809265e:	66 90                	xchg   %ax,%ax
 8092660:	89 d8                	mov    %ebx,%eax
 8092662:	5b                   	pop    %ebx
 8092663:	c3                   	ret    
 8092664:	8d 74 26 00          	lea    0x0(%esi,%eiz,1),%esi
 8092668:	89 d0                	mov    %edx,%eax
 809266a:	5b                   	pop    %ebx
 809266b:	c3                   	ret    
 8092663:	c3                   	ret    
 8092664:	8d 74 26 00          	lea    0x0(%esi,%eiz,1),%esi
 8092668:	89 d0                	mov    %edx,%eax
 809266a:	5b                   	pop    %ebx
 809266b:	c3                   	ret    
 809266c:	31 c0                	xor    %eax,%eax
 809266e:	5b                   	pop    %ebx
 809266f:	c3                   	ret    
 809266a:	5b                   	pop    %ebx
 809266b:	c3                   	ret    
 809266c:	31 c0                	xor    %eax,%eax
 809266e:	5b                   	pop    %ebx
 809266f:	c3                   	ret    
 8092670:	b8 01 00 00 00       	mov    $0x1,%eax
 8092675:	5b                   	pop    %ebx
 8092676:	c3                   	ret    
 809266e:	5b                   	pop    %ebx
 809266f:	c3                   	ret    
 8092670:	b8 01 00 00 00       	mov    $0x1,%eax
 8092675:	5b                   	pop    %ebx
 8092676:	c3                   	ret    
 8092677:	b8 02 00 00 00       	mov    $0x2,%eax
 809267c:	5b                   	pop    %ebx
 809267d:	c3                   	ret    

08092680 <time>:
 8092680:	53                   	push   %ebx
 8092681:	b8 0d 00 00 00       	mov    $0xd,%eax
 8092686:	8b 5c 24 08          	mov    0x8(%esp),%ebx
 809268a:	65 ff 15 10 00 00 00 	call   *%gs:0x10
 8092691:	5b                   	pop    %ebx
 8092692:	c3                   	ret    
 809272c:	c7 46 18 00 00 00 00 	movl   $0x0,0x18(%esi)
 8092733:	83 c4 0c             	add    $0xc,%esp
 8092736:	89 f0                	mov    %esi,%eax
 8092738:	5b                   	pop    %ebx
 8092739:	5e                   	pop    %esi
 809273a:	5f                   	pop    %edi
 809273b:	5d                   	pop    %ebp
 809273c:	c3                   	ret    
 80927f8:	8b 54 24 6c          	mov    0x6c(%esp),%edx
 80927fc:	65 33 15 14 00 00 00 	xor    %gs:0x14,%edx
 8092803:	75 2f                	jne    8092834 <opendir_tail+0x94>
 8092805:	83 c4 70             	add    $0x70,%esp
 8092808:	5b                   	pop    %ebx
 8092809:	5e                   	pop    %esi
 809280a:	5f                   	pop    %edi
 809280b:	c3                   	ret    
 809286f:	e9 2c ff ff ff       	jmp    80927a0 <opendir_tail>
 8092874:	8d 74 26 00          	lea    0x0(%esi,%eiz,1),%esi
 8092878:	c7 c0 e0 ff ff ff    	mov    $0xffffffe0,%eax
 809287e:	65 c7 00 02 00 00 00 	movl   $0x2,%gs:(%eax)
 8092885:	83 c4 08             	add    $0x8,%esp
 8092888:	31 c0                	xor    %eax,%eax
 809288a:	5b                   	pop    %ebx
 809288b:	c3                   	ret    
 80928ba:	e9 e1 fe ff ff       	jmp    80927a0 <opendir_tail>
 80928bf:	90                   	nop
 80928c0:	c7 c0 e0 ff ff ff    	mov    $0xffffffe0,%eax
 80928c6:	65 c7 00 02 00 00 00 	movl   $0x2,%gs:(%eax)
 80928cd:	83 c4 08             	add    $0x8,%esp
 80928d0:	31 c0                	xor    %eax,%eax
 80928d2:	5b                   	pop    %ebx
 80928d3:	c3                   	ret    
 80928fe:	e8 dd 9e fc ff       	call   805c7e0 <__free>
 8092903:	89 34 24             	mov    %esi,(%esp)
 8092906:	e8 55 98 fd ff       	call   806c160 <__close_nocancel>
 809290b:	83 c4 10             	add    $0x10,%esp
 809290e:	83 c4 04             	add    $0x4,%esp
 8092911:	5b                   	pop    %ebx
 8092912:	5e                   	pop    %esi
 8092913:	c3                   	ret    
 80929e3:	e8 68 b4 fd ff       	call   806de50 <__lll_unlock_wake_private>
 80929e8:	83 c4 0c             	add    $0xc,%esp
 80929eb:	89 d0                	mov    %edx,%eax
 80929ed:	5b                   	pop    %ebx
 80929ee:	5e                   	pop    %esi
 80929ef:	5f                   	pop    %edi
 80929f0:	5d                   	pop    %ebp
 80929f1:	c3                   	ret    
 8092a65:	f0 83 6e 04 01       	lock subl $0x1,0x4(%esi)
 8092a6a:	74 08                	je     8092a74 <__rewinddir+0x74>
 8092a6c:	8d 46 04             	lea    0x4(%esi),%eax
 8092a6f:	e8 dc b3 fd ff       	call   806de50 <__lll_unlock_wake_private>
 8092a74:	83 c4 14             	add    $0x14,%esp
 8092a77:	5b                   	pop    %ebx
 8092a78:	5e                   	pop    %esi
 8092a79:	c3                   	ret    
 8092b13:	72 bb                	jb     8092ad0 <__getdents+0x50>
 8092b15:	8b 44 24 0c          	mov    0xc(%esp),%eax
 8092b19:	83 c4 1c             	add    $0x1c,%esp
 8092b1c:	5b                   	pop    %ebx
 8092b1d:	5e                   	pop    %esi
 8092b1e:	5f                   	pop    %edi
 8092b1f:	5d                   	pop    %ebp
 8092b20:	c3                   	ret    
 8092bf3:	e8 58 b2 fd ff       	call   806de50 <__lll_unlock_wake_private>
 8092bf8:	83 c4 0c             	add    $0xc,%esp
 8092bfb:	89 d0                	mov    %edx,%eax
 8092bfd:	5b                   	pop    %ebx
 8092bfe:	5e                   	pop    %esi
 8092bff:	5f                   	pop    %edi
 8092c00:	5d                   	pop    %ebp
 8092c01:	c3                   	ret    
 8092c82:	8b 4c 24 6c          	mov    0x6c(%esp),%ecx
 8092c86:	65 33 0d 14 00 00 00 	xor    %gs:0x14,%ecx
 8092c8d:	75 3a                	jne    8092cc9 <__fdopendir+0xb9>
 8092c8f:	83 c4 70             	add    $0x70,%esp
 8092c92:	5b                   	pop    %ebx
 8092c93:	5e                   	pop    %esi
 8092c94:	5f                   	pop    %edi
 8092c95:	c3                   	ret    
 8092cd0:	89 da                	mov    %ebx,%edx
 8092cd2:	8b 5c 24 04          	mov    0x4(%esp),%ebx
 8092cd6:	b8 7a 00 00 00       	mov    $0x7a,%eax
 8092cdb:	65 ff 15 10 00 00 00 	call   *%gs:0x10
 8092ce2:	89 d3                	mov    %edx,%ebx
 8092ce4:	3d 01 f0 ff ff       	cmp    $0xfffff001,%eax
 8092ce9:	0f 83 91 d6 fd ff    	jae    8070380 <__syscall_error>
 8092cef:	c3                   	ret    
 8092ce4:	3d 01 f0 ff ff       	cmp    $0xfffff001,%eax
 8092ce9:	0f 83 91 d6 fd ff    	jae    8070380 <__syscall_error>
 8092cef:	c3                   	ret    

08092cf0 <__getuid>:
 8092cf0:	b8 c7 00 00 00       	mov    $0xc7,%eax
 8092cf5:	65 ff 15 10 00 00 00 	call   *%gs:0x10
 8092cfc:	c3                   	ret    
 8092cfc:	c3                   	ret    
 8092cfd:	66 90                	xchg   %ax,%ax
 8092cff:	90                   	nop

08092d00 <__geteuid>:
 8092d00:	b8 c9 00 00 00       	mov    $0xc9,%eax
 8092d05:	65 ff 15 10 00 00 00 	call   *%gs:0x10
 8092d0c:	c3                   	ret    
 8092d0c:	c3                   	ret    
 8092d0d:	66 90                	xchg   %ax,%ax
 8092d0f:	90                   	nop

08092d10 <__getgid>:
 8092d10:	b8 c8 00 00 00       	mov    $0xc8,%eax
 8092d15:	65 ff 15 10 00 00 00 	call   *%gs:0x10
 8092d1c:	c3                   	ret    
 8092d1c:	c3                   	ret    
 8092d1d:	66 90                	xchg   %ax,%ax
 8092d1f:	90                   	nop

08092d20 <__getegid>:
 8092d20:	b8 ca 00 00 00       	mov    $0xca,%eax
 8092d25:	65 ff 15 10 00 00 00 	call   *%gs:0x10
 8092d2c:	c3                   	ret    
 8092d31:	b8 c4 00 00 00       	mov    $0xc4,%eax
 8092d36:	8b 4c 24 10          	mov    0x10(%esp),%ecx
 8092d3a:	8b 5c 24 0c          	mov    0xc(%esp),%ebx
 8092d3e:	65 ff 15 10 00 00 00 	call   *%gs:0x10
 8092d45:	3d 00 f0 ff ff       	cmp    $0xfffff000,%eax
 8092d4a:	77 04                	ja     8092d50 <___lxstat64+0x20>
 8092d4c:	5b                   	pop    %ebx
 8092d4d:	c3                   	ret    
 8092d99:	5e                   	pop    %esi
 8092d9a:	b8 ea ff ff ff       	mov    $0xffffffea,%eax
 8092d9f:	e9 dc d5 fd ff       	jmp    8070380 <__syscall_error>
 8092da4:	8d 74 26 00          	lea    0x0(%esi,%eiz,1),%esi
 8092da8:	31 c0                	xor    %eax,%eax
 8092daa:	5b                   	pop    %ebx
 8092dab:	5e                   	pop    %esi
 8092dac:	c3                   	ret    
 8092de6:	65 ff 15 10 00 00 00 	call   *%gs:0x10
 8092ded:	3d 00 f0 ff ff       	cmp    $0xfffff000,%eax
 8092df2:	77 64                	ja     8092e58 <__libc_openat+0xa8>
 8092df4:	83 c4 10             	add    $0x10,%esp
 8092df7:	5b                   	pop    %ebx
 8092df8:	5e                   	pop    %esi
 8092df9:	5f                   	pop    %edi
 8092dfa:	c3                   	ret    
 8092e42:	e8 a9 b0 fd ff       	call   806def0 <__libc_disable_asynccancel>
 8092e47:	83 c4 10             	add    $0x10,%esp
 8092e4a:	8b 44 24 0c          	mov    0xc(%esp),%eax
 8092e4e:	83 c4 10             	add    $0x10,%esp
 8092e51:	5b                   	pop    %ebx
 8092e52:	5e                   	pop    %esi
 8092e53:	5f                   	pop    %edi
 8092e54:	c3                   	ret    
 8092e97:	8b 5c 24 10          	mov    0x10(%esp),%ebx
 8092e9b:	65 ff 15 10 00 00 00 	call   *%gs:0x10
 8092ea2:	3d 00 f0 ff ff       	cmp    $0xfffff000,%eax
 8092ea7:	77 17                	ja     8092ec0 <__openat_nocancel+0x50>
 8092ea9:	83 c4 04             	add    $0x4,%esp
 8092eac:	5b                   	pop    %ebx
 8092ead:	5e                   	pop    %esi
 8092eae:	c3                   	ret    
 8092eb4:	eb d8                	jmp    8092e8e <__openat_nocancel+0x1e>
 8092eb6:	8d 76 00             	lea    0x0(%esi),%esi
 8092eb9:	8d bc 27 00 00 00 00 	lea    0x0(%edi,%eiz,1),%edi
 8092ec0:	e8 bb d4 fd ff       	call   8070380 <__syscall_error>
 8092ec5:	83 c4 04             	add    $0x4,%esp
 8092ec8:	5b                   	pop    %ebx
 8092ec9:	5e                   	pop    %esi
 8092eca:	c3                   	ret    
 8092f0d:	65 ff 15 10 00 00 00 	call   *%gs:0x10
 8092f14:	3d 00 f0 ff ff       	cmp    $0xfffff000,%eax
 8092f19:	77 5d                	ja     8092f78 <__libc_openat64+0xa8>
 8092f1b:	83 c4 10             	add    $0x10,%esp
 8092f1e:	5b                   	pop    %ebx
 8092f1f:	5e                   	pop    %esi
 8092f20:	5f                   	pop    %edi
 8092f21:	c3                   	ret    
 8092f62:	e8 89 af fd ff       	call   806def0 <__libc_disable_asynccancel>
 8092f67:	83 c4 10             	add    $0x10,%esp
 8092f6a:	8b 44 24 0c          	mov    0xc(%esp),%eax
 8092f6e:	83 c4 10             	add    $0x10,%esp
 8092f71:	5b                   	pop    %ebx
 8092f72:	5e                   	pop    %esi
 8092f73:	5f                   	pop    %edi
 8092f74:	c3                   	ret    
 8092fbc:	b8 27 01 00 00       	mov    $0x127,%eax
 8092fc1:	65 ff 15 10 00 00 00 	call   *%gs:0x10
 8092fc8:	3d 00 f0 ff ff       	cmp    $0xfffff000,%eax
 8092fcd:	77 11                	ja     8092fe0 <__openat64_nocancel+0x50>
 8092fcf:	83 c4 04             	add    $0x4,%esp
 8092fd2:	5b                   	pop    %ebx
 8092fd3:	5e                   	pop    %esi
 8092fd4:	c3                   	ret    
 8092fd8:	8b 74 24 1c          	mov    0x1c(%esp),%esi
 8092fdc:	eb d1                	jmp    8092faf <__openat64_nocancel+0x1f>
 8092fde:	66 90                	xchg   %ax,%ax
 8092fe0:	e8 9b d3 fd ff       	call   8070380 <__syscall_error>
 8092fe5:	83 c4 04             	add    $0x4,%esp
 8092fe8:	5b                   	pop    %ebx
 8092fe9:	5e                   	pop    %esi
 8092fea:	c3                   	ret    
 8093063:	65 33 1d 14 00 00 00 	xor    %gs:0x14,%ebx
 809306a:	75 28                	jne    8093094 <__libc_lseek+0xa4>
 809306c:	83 c4 2c             	add    $0x2c,%esp
 809306f:	5b                   	pop    %ebx
 8093070:	5e                   	pop    %esi
 8093071:	5f                   	pop    %edi
 8093072:	5d                   	pop    %ebp
 8093073:	c3                   	ret    
 80930ce:	0f 94 c0             	sete   %al
 80930d1:	8b 54 24 3c          	mov    0x3c(%esp),%edx
 80930d5:	65 33 15 14 00 00 00 	xor    %gs:0x14,%edx
 80930dc:	75 08                	jne    80930e6 <__isatty+0x46>
 80930de:	83 c4 48             	add    $0x48,%esp
 80930e1:	0f b6 c0             	movzbl %al,%eax
 80930e4:	5b                   	pop    %ebx
 80930e5:	c3                   	ret    
 809319f:	88 4e 23             	mov    %cl,0x23(%esi)
 80931a2:	8b 5c 24 2c          	mov    0x2c(%esp),%ebx
 80931a6:	65 33 1d 14 00 00 00 	xor    %gs:0x14,%ebx
 80931ad:	75 13                	jne    80931c2 <__tcgetattr+0xd2>
 80931af:	83 c4 34             	add    $0x34,%esp
 80931b2:	5b                   	pop    %ebx
 80931b3:	5e                   	pop    %esi
 80931b4:	c3                   	ret    
 80931df:	81 c2 21 5e 04 00    	add    $0x45e21,%edx
 80931e5:	cd 80                	int    $0x80
 80931e7:	39 c3                	cmp    %eax,%ebx
 80931e9:	89 82 60 1a 00 00    	mov    %eax,0x1a60(%edx)
 80931ef:	77 07                	ja     80931f8 <__brk+0x28>
 80931f1:	31 c0                	xor    %eax,%eax
 80931f3:	5b                   	pop    %ebx
 80931f4:	c3                   	ret    
 8093276:	03 70 6c             	add    0x6c(%eax),%esi
 8093279:	8b 44 b0 24          	mov    0x24(%eax,%esi,4),%eax
 809327d:	83 c4 1c             	add    $0x1c,%esp
 8093280:	5b                   	pop    %ebx
 8093281:	5e                   	pop    %esi
 8093282:	5f                   	pop    %edi
 8093283:	5d                   	pop    %ebp
 8093284:	c3                   	ret    
 8093285:	8d 76 00             	lea    0x0(%esi),%esi
 8093288:	83 c4 1c             	add    $0x1c,%esp
 809328b:	31 c0                	xor    %eax,%eax
 809328d:	5b                   	pop    %ebx
 809328e:	5e                   	pop    %esi
 809328f:	5f                   	pop    %edi
 8093290:	5d                   	pop    %ebp
 8093291:	c3                   	ret    
 80932d5:	74 0b                	je     80932e2 <__towctrans+0x42>
 80932d7:	8b 5a 10             	mov    0x10(%edx),%ebx
 80932da:	21 c3                	and    %eax,%ebx
 80932dc:	8d 14 9a             	lea    (%edx,%ebx,4),%edx
 80932df:	03 04 0a             	add    (%edx,%ecx,1),%eax
 80932e2:	5b                   	pop    %ebx
 80932e3:	5e                   	pop    %esi
 80932e4:	c3                   	ret    
 80934a7:	65 33 3d 14 00 00 00 	xor    %gs:0x14,%edi
 80934ae:	75 3a                	jne    80934ea <__readonly_area+0x1fa>
 80934b0:	83 c4 4c             	add    $0x4c,%esp
 80934b3:	5b                   	pop    %ebx
 80934b4:	5e                   	pop    %esi
 80934b5:	5f                   	pop    %edi
 80934b6:	5d                   	pop    %ebp
 80934b7:	c3                   	ret    
 8093528:	31 f6                	xor    %esi,%esi
 809352a:	83 c4 1c             	add    $0x1c,%esp
 809352d:	89 f0                	mov    %esi,%eax
 809352f:	5b                   	pop    %ebx
 8093530:	5e                   	pop    %esi
 8093531:	5f                   	pop    %edi
 8093532:	5d                   	pop    %ebp
 8093533:	c3                   	ret    
 8093586:	8d 72 02             	lea    0x2(%edx),%esi
 8093589:	83 c4 1c             	add    $0x1c,%esp
 809358c:	5b                   	pop    %ebx
 809358d:	89 f0                	mov    %esi,%eax
 809358f:	5e                   	pop    %esi
 8093590:	5f                   	pop    %edi
 8093591:	5d                   	pop    %ebp
 8093592:	c3                   	ret    
 809366e:	66 90                	xchg   %ax,%ax
 8093670:	31 c0                	xor    %eax,%eax
 8093672:	8d 65 f4             	lea    -0xc(%ebp),%esp
 8093675:	5b                   	pop    %ebx
 8093676:	5e                   	pop    %esi
 8093677:	5f                   	pop    %edi
 8093678:	5d                   	pop    %ebp
 8093679:	c3                   	ret    
 8093757:	85 c0                	test   %eax,%eax
 8093759:	75 e5                	jne    8093740 <add_name_to_object.isra.5+0x20>
 809375b:	83 c4 1c             	add    $0x1c,%esp
 809375e:	5b                   	pop    %ebx
 809375f:	5e                   	pop    %esi
 8093760:	5f                   	pop    %edi
 8093761:	5d                   	pop    %ebp
 8093762:	c3                   	ret    
 80937ab:	c7 45 08 00 00 00 00 	movl   $0x0,0x8(%ebp)
 80937b2:	89 6e 04             	mov    %ebp,0x4(%esi)
 80937b5:	83 c4 1c             	add    $0x1c,%esp
 80937b8:	5b                   	pop    %ebx
 80937b9:	5e                   	pop    %esi
 80937ba:	5f                   	pop    %edi
 80937bb:	5d                   	pop    %ebp
 80937bc:	c3                   	ret    
 80939d5:	83 c4 10             	add    $0x10,%esp
 80939d8:	8b 45 dc             	mov    -0x24(%ebp),%eax
 80939db:	8d 65 f4             	lea    -0xc(%ebp),%esp
 80939de:	5b                   	pop    %ebx
 80939df:	5e                   	pop    %esi
 80939e0:	5f                   	pop    %edi
 80939e1:	5d                   	pop    %ebp
 80939e2:	c3                   	ret    
 809406c:	83 c4 10             	add    $0x10,%esp
 809406f:	8d 65 f4             	lea    -0xc(%ebp),%esp
 8094072:	89 d0                	mov    %edx,%eax
 8094074:	5b                   	pop    %ebx
 8094075:	5e                   	pop    %esi
 8094076:	5f                   	pop    %edi
 8094077:	5d                   	pop    %ebp
 8094078:	c3                   	ret    
 809412d:	8d 65 f4             	lea    -0xc(%ebp),%esp
 8094130:	ba ff ff ff ff       	mov    $0xffffffff,%edx
 8094135:	89 d0                	mov    %edx,%eax
 8094137:	5b                   	pop    %ebx
 8094138:	5e                   	pop    %esi
 8094139:	5f                   	pop    %edi
 809413a:	5d                   	pop    %ebp
 809413b:	c3                   	ret    
 809458c:	83 c4 10             	add    $0x10,%esp
 809458f:	8d 65 f4             	lea    -0xc(%ebp),%esp
 8094592:	89 f8                	mov    %edi,%eax
 8094594:	5b                   	pop    %ebx
 8094595:	5e                   	pop    %esi
 8094596:	5f                   	pop    %edi
 8094597:	5d                   	pop    %ebp
 8094598:	c3                   	ret    
 8094f44:	83 c4 10             	add    $0x10,%esp
 8094f47:	8d 65 f4             	lea    -0xc(%ebp),%esp
 8094f4a:	89 f8                	mov    %edi,%eax
 8094f4c:	5b                   	pop    %ebx
 8094f4d:	5e                   	pop    %esi
 8094f4e:	5f                   	pop    %edi
 8094f4f:	5d                   	pop    %ebp
 8094f50:	c3                   	ret    
 8095489:	85 c9                	test   %ecx,%ecx
 809548b:	75 b2                	jne    809543f <add_path.isra.4.constprop.10+0x3f>
 809548d:	83 c4 1c             	add    $0x1c,%esp
 8095490:	5b                   	pop    %ebx
 8095491:	5e                   	pop    %esi
 8095492:	5f                   	pop    %edi
 8095493:	5d                   	pop    %ebp
 8095494:	c3                   	ret    
 80954e4:	75 0a                	jne    80954f0 <_dl_dst_count+0x30>
 80954e6:	83 c4 1c             	add    $0x1c,%esp
 80954e9:	89 f0                	mov    %esi,%eax
 80954eb:	5b                   	pop    %ebx
 80954ec:	5e                   	pop    %esi
 80954ed:	5f                   	pop    %edi
 80954ee:	5d                   	pop    %ebp
 80954ef:	c3                   	ret    
 8095545:	75 b9                	jne    8095500 <_dl_dst_count+0x40>
 8095547:	83 c4 1c             	add    $0x1c,%esp
 809554a:	89 f0                	mov    %esi,%eax
 809554c:	5b                   	pop    %ebx
 809554d:	5e                   	pop    %esi
 809554e:	5f                   	pop    %edi
 809554f:	5d                   	pop    %ebp
 8095550:	c3                   	ret    
 8095622:	c6 07 00             	movb   $0x0,(%edi)
 8095625:	8b 44 24 38          	mov    0x38(%esp),%eax
 8095629:	83 c4 1c             	add    $0x1c,%esp
 809562c:	5b                   	pop    %ebx
 809562d:	5e                   	pop    %esi
 809562e:	5f                   	pop    %edi
 809562f:	5d                   	pop    %ebp
 8095630:	c3                   	ret    
 80956aa:	c6 00 00             	movb   $0x0,(%eax)
 80956ad:	8b 44 24 38          	mov    0x38(%esp),%eax
 80956b1:	83 c4 1c             	add    $0x1c,%esp
 80956b4:	5b                   	pop    %ebx
 80956b5:	5e                   	pop    %esi
 80956b6:	5f                   	pop    %edi
 80956b7:	5d                   	pop    %ebp
 80956b8:	c3                   	ret    
 8095737:	e8 c4 83 fc ff       	call   805db00 <__strdup>
 809573c:	83 c4 10             	add    $0x10,%esp
 809573f:	83 c4 1c             	add    $0x1c,%esp
 8095742:	5b                   	pop    %ebx
 8095743:	5e                   	pop    %esi
 8095744:	5f                   	pop    %edi
 8095745:	5d                   	pop    %ebp
 8095746:	c3                   	ret    
 8095ab4:	8b 4c 24 04          	mov    0x4(%esp),%ecx
 8095ab8:	c7 04 88 00 00 00 00 	movl   $0x0,(%eax,%ecx,4)
 8095abf:	83 c4 3c             	add    $0x3c,%esp
 8095ac2:	5b                   	pop    %ebx
 8095ac3:	5e                   	pop    %esi
 8095ac4:	5f                   	pop    %edi
 8095ac5:	5d                   	pop    %ebp
 8095ac6:	c3                   	ret    
 8095b49:	c7 02 ff ff ff ff    	movl   $0xffffffff,(%edx)
 8095b4f:	31 c0                	xor    %eax,%eax
 8095b51:	83 c4 1c             	add    $0x1c,%esp
 8095b54:	5b                   	pop    %ebx
 8095b55:	5e                   	pop    %esi
 8095b56:	5f                   	pop    %edi
 8095b57:	5d                   	pop    %ebp
 8095b58:	c3                   	ret    
 8095bf7:	c7 46 04 01 00 00 00 	movl   $0x1,0x4(%esi)
 8095bfe:	83 c4 1c             	add    $0x1c,%esp
 8095c01:	5b                   	pop    %ebx
 8095c02:	b8 01 00 00 00       	mov    $0x1,%eax
 8095c07:	5e                   	pop    %esi
 8095c08:	5f                   	pop    %edi
 8095c09:	5d                   	pop    %ebp
 8095c0a:	c3                   	ret    
 8095e99:	c7 83 c8 ff ff ff ff 	movl   $0xffffffff,-0x38(%ebx)
 8095ea0:	ff ff ff 
 8095ea3:	8d 65 f4             	lea    -0xc(%ebp),%esp
 8095ea6:	5b                   	pop    %ebx
 8095ea7:	5e                   	pop    %esi
 8095ea8:	5f                   	pop    %edi
 8095ea9:	5d                   	pop    %ebp
 8095eaa:	c3                   	ret    
 8095f50:	c7 83 cc ff ff ff 00 	movl   $0x0,-0x34(%ebx)
 8095f57:	00 00 00 
 8095f5a:	8d 65 f4             	lea    -0xc(%ebp),%esp
 8095f5d:	5b                   	pop    %ebx
 8095f5e:	5e                   	pop    %esi
 8095f5f:	5f                   	pop    %edi
 8095f60:	5d                   	pop    %ebp
 8095f61:	c3                   	ret    
 8096070:	80 8f 95 01 00 00 01 	orb    $0x1,0x195(%edi)
 8096077:	81 c4 3c 02 00 00    	add    $0x23c,%esp
 809607d:	89 f8                	mov    %edi,%eax
 809607f:	5b                   	pop    %ebx
 8096080:	5e                   	pop    %esi
 8096081:	5f                   	pop    %edi
 8096082:	5d                   	pop    %ebp
 8096083:	c3                   	ret    
 8096172:	89 c7                	mov    %eax,%edi
 8096174:	81 c4 3c 02 00 00    	add    $0x23c,%esp
 809617a:	89 f8                	mov    %edi,%eax
 809617c:	5b                   	pop    %ebx
 809617d:	5e                   	pop    %esi
 809617e:	5f                   	pop    %edi
 809617f:	5d                   	pop    %ebp
 8096180:	c3                   	ret    
 80969be:	8d 04 c5 08 00 00 00 	lea    0x8(,%eax,8),%eax
 80969c5:	01 06                	add    %eax,(%esi)
 80969c7:	83 c4 2c             	add    $0x2c,%esp
 80969ca:	5b                   	pop    %ebx
 80969cb:	5e                   	pop    %esi
 80969cc:	5f                   	pop    %edi
 80969cd:	5d                   	pop    %ebp
 80969ce:	c3                   	ret    
 8096c01:	78 50                	js     8096c53 <check_match+0x113>
 8096c03:	83 c4 1c             	add    $0x1c,%esp
 8096c06:	89 f0                	mov    %esi,%eax
 8096c08:	5b                   	pop    %ebx
 8096c09:	5e                   	pop    %esi
 8096c0a:	5f                   	pop    %edi
 8096c0b:	5d                   	pop    %ebp
 8096c0c:	c3                   	ret    
 8096c51:	89 30                	mov    %esi,(%eax)
 8096c53:	83 c4 1c             	add    $0x1c,%esp
 8096c56:	31 c0                	xor    %eax,%eax
 8096c58:	5b                   	pop    %ebx
 8096c59:	5e                   	pop    %esi
 8096c5a:	5f                   	pop    %edi
 8096c5b:	5d                   	pop    %ebp
 8096c5c:	c3                   	ret    
 8097018:	31 f6                	xor    %esi,%esi
 809701a:	83 c4 5c             	add    $0x5c,%esp
 809701d:	89 f0                	mov    %esi,%eax
 809701f:	5b                   	pop    %ebx
 8097020:	5e                   	pop    %esi
 8097021:	5f                   	pop    %edi
 8097022:	5d                   	pop    %ebp
 8097023:	c3                   	ret    
 8097227:	89 68 04             	mov    %ebp,0x4(%eax)
 809722a:	83 c4 5c             	add    $0x5c,%esp
 809722d:	5b                   	pop    %ebx
 809722e:	89 f0                	mov    %esi,%eax
 8097230:	5e                   	pop    %esi
 8097231:	5f                   	pop    %edi
 8097232:	5d                   	pop    %ebp
 8097233:	c3                   	ret    
 8097906:	89 06                	mov    %eax,(%esi)
 8097908:	83 c4 5c             	add    $0x5c,%esp
 809790b:	89 f8                	mov    %edi,%eax
 809790d:	5b                   	pop    %ebx
 809790e:	5e                   	pop    %esi
 809790f:	5f                   	pop    %edi
 8097910:	5d                   	pop    %ebp
 8097911:	c3                   	ret    
 80983bb:	8d 14 8a             	lea    (%edx,%ecx,4),%edx
 80983be:	89 90 8c 01 00 00    	mov    %edx,0x18c(%eax)
 80983c4:	83 c4 0c             	add    $0xc,%esp
 80983c7:	5b                   	pop    %ebx
 80983c8:	5e                   	pop    %esi
 80983c9:	5f                   	pop    %edi
 80983ca:	5d                   	pop    %ebp
 80983cb:	c3                   	ret    
 80984ab:	83 ec 0c             	sub    $0xc,%esp
 80984ae:	ff b3 f4 ff ff ff    	pushl  -0xc(%ebx)
 80984b4:	e8 47 7b f6 f7       	call   0 <_nl_current_LC_CTYPE>
 80984b9:	83 c4 10             	add    $0x10,%esp
 80984bc:	5b                   	pop    %ebx
 80984bd:	5e                   	pop    %esi
 80984be:	5f                   	pop    %edi
 80984bf:	c3                   	ret    
 80986c8:	89 96 a8 01 00 00    	mov    %edx,0x1a8(%esi)
 80986ce:	83 c4 2c             	add    $0x2c,%esp
 80986d1:	89 f0                	mov    %esi,%eax
 80986d3:	5b                   	pop    %ebx
 80986d4:	5e                   	pop    %esi
 80986d5:	5f                   	pop    %edi
 80986d6:	5d                   	pop    %ebp
 80986d7:	c3                   	ret    
 809889e:	83 c4 10             	add    $0x10,%esp
 80988a1:	31 c0                	xor    %eax,%eax
 80988a3:	83 c4 1c             	add    $0x1c,%esp
 80988a6:	5b                   	pop    %ebx
 80988a7:	5e                   	pop    %esi
 80988a8:	5f                   	pop    %edi
 80988a9:	5d                   	pop    %ebp
 80988aa:	c3                   	ret    
 80988b0:	80 8b 95 01 00 00 04 	orb    $0x4,0x195(%ebx)
 80988b7:	83 c4 1c             	add    $0x1c,%esp
 80988ba:	31 c0                	xor    %eax,%eax
 80988bc:	5b                   	pop    %ebx
 80988bd:	5e                   	pop    %esi
 80988be:	5f                   	pop    %edi
 80988bf:	5d                   	pop    %ebp
 80988c0:	c3                   	ret    
 80988f1:	e8 0a ff ff ff       	call   8098800 <_dl_try_allocate_static_tls>
 80988f6:	83 c4 10             	add    $0x10,%esp
 80988f9:	85 c0                	test   %eax,%eax
 80988fb:	75 06                	jne    8098903 <_dl_allocate_static_tls+0x33>
 80988fd:	83 c4 04             	add    $0x4,%esp
 8098900:	5b                   	pop    %ebx
 8098901:	5e                   	pop    %esi
 8098902:	c3                   	ret    
 809895f:	56                   	push   %esi
 8098960:	6a 00                	push   $0x0
 8098962:	50                   	push   %eax
 8098963:	e8 b0 f8 fa ff       	call   8048218 <.plt+0x48>
 8098968:	83 c4 14             	add    $0x14,%esp
 809896b:	5b                   	pop    %ebx
 809896c:	5e                   	pop    %esi
 809896d:	c3                   	ret    
 80989af:	e8 7c 42 fd ff       	call   806cc30 <__mprotect>
 80989b4:	83 c4 10             	add    $0x10,%esp
 80989b7:	85 c0                	test   %eax,%eax
 80989b9:	78 06                	js     80989c1 <_dl_protect_relro+0x51>
 80989bb:	83 c4 04             	add    $0x4,%esp
 80989be:	5b                   	pop    %ebx
 80989bf:	5e                   	pop    %esi
 80989c0:	c3                   	ret    
 8098d71:	e8 fa fb ff ff       	call   8098970 <_dl_protect_relro>
 8098d76:	83 c4 10             	add    $0x10,%esp
 8098d79:	8d 65 f4             	lea    -0xc(%ebp),%esp
 8098d7c:	5b                   	pop    %ebx
 8098d7d:	5e                   	pop    %esi
 8098d7e:	5f                   	pop    %edi
 8098d7f:	5d                   	pop    %ebp
 8098d80:	c3                   	ret    
 809aefa:	c7 00 01 00 00 00    	movl   $0x1,(%eax)
 809af00:	8b 45 cc             	mov    -0x34(%ebp),%eax
 809af03:	8d 65 f4             	lea    -0xc(%ebp),%esp
 809af06:	5b                   	pop    %ebx
 809af07:	5e                   	pop    %esi
 809af08:	5f                   	pop    %edi
 809af09:	5d                   	pop    %ebp
 809af0a:	c3                   	ret    
 809b2d9:	89 06                	mov    %eax,(%esi)
 809b2db:	8b 45 cc             	mov    -0x34(%ebp),%eax
 809b2de:	8d 65 f4             	lea    -0xc(%ebp),%esp
 809b2e1:	5b                   	pop    %ebx
 809b2e2:	5e                   	pop    %esi
 809b2e3:	5f                   	pop    %edi
 809b2e4:	5d                   	pop    %ebp
 809b2e5:	c3                   	ret    
 809b4e2:	89 fa                	mov    %edi,%edx
 809b4e4:	65 ff 15 10 00 00 00 	call   *%gs:0x10
 809b4eb:	8d 65 f4             	lea    -0xc(%ebp),%esp
 809b4ee:	5b                   	pop    %ebx
 809b4ef:	5e                   	pop    %esi
 809b4f0:	5f                   	pop    %edi
 809b4f1:	5d                   	pop    %ebp
 809b4f2:	c3                   	ret    
 809b88b:	e8 50 08 fd ff       	call   806c0e0 <__close>
 809b890:	83 c4 10             	add    $0x10,%esp
 809b893:	83 c4 60             	add    $0x60,%esp
 809b896:	89 f8                	mov    %edi,%eax
 809b898:	5b                   	pop    %ebx
 809b899:	5e                   	pop    %esi
 809b89a:	5f                   	pop    %edi
 809b89b:	c3                   	ret    
 809b8d7:	83 ec 0c             	sub    $0xc,%esp
 809b8da:	52                   	push   %edx
 809b8db:	8b 4c 24 20          	mov    0x20(%esp),%ecx
 809b8df:	ba 01 00 00 00       	mov    $0x1,%edx
 809b8e4:	8b 00                	mov    (%eax),%eax
 809b8e6:	e8 e5 fa ff ff       	call   809b3d0 <_dl_debug_vdprintf>
 809b8eb:	83 c4 1c             	add    $0x1c,%esp
 809b8ee:	c3                   	ret    
 809b907:	83 ec 0c             	sub    $0xc,%esp
 809b90a:	52                   	push   %edx
 809b90b:	8b 4c 24 20          	mov    0x20(%esp),%ecx
 809b90f:	ba ff ff ff ff       	mov    $0xffffffff,%edx
 809b914:	8b 00                	mov    (%eax),%eax
 809b916:	e8 b5 fa ff ff       	call   809b3d0 <_dl_debug_vdprintf>
 809b91b:	83 c4 1c             	add    $0x1c,%esp
 809b91e:	c3                   	ret    
 809b925:	8d 44 24 18          	lea    0x18(%esp),%eax
 809b929:	83 ec 0c             	sub    $0xc,%esp
 809b92c:	50                   	push   %eax
 809b92d:	8b 4c 24 24          	mov    0x24(%esp),%ecx
 809b931:	8b 44 24 20          	mov    0x20(%esp),%eax
 809b935:	e8 96 fa ff ff       	call   809b3d0 <_dl_debug_vdprintf>
 809b93a:	83 c4 1c             	add    $0x1c,%esp
 809b93d:	c3                   	ret    
 809b973:	75 12                	jne    809b987 <_dl_name_match_p+0x47>
 809b975:	8d 76 00             	lea    0x0(%esi),%esi
 809b978:	31 d2                	xor    %edx,%edx
 809b97a:	5b                   	pop    %ebx
 809b97b:	89 d0                	mov    %edx,%eax
 809b97d:	5e                   	pop    %esi
 809b97e:	5f                   	pop    %edi
 809b97f:	c3                   	ret    
 809b995:	85 c0                	test   %eax,%eax
 809b997:	75 e7                	jne    809b980 <_dl_name_match_p+0x40>
 809b999:	ba 01 00 00 00       	mov    $0x1,%edx
 809b99e:	5b                   	pop    %ebx
 809b99f:	89 d0                	mov    %edx,%eax
 809b9a1:	5e                   	pop    %esi
 809b9a2:	5f                   	pop    %edi
 809b9a3:	c3                   	ret    
 809b9fd:	72 11                	jb     809ba10 <_dl_higher_prime_number+0x60>
 809b9ff:	89 c3                	mov    %eax,%ebx
 809ba01:	39 d9                	cmp    %ebx,%ecx
 809ba03:	75 e3                	jne    809b9e8 <_dl_higher_prime_number+0x38>
 809ba05:	8b 01                	mov    (%ecx),%eax
 809ba07:	5b                   	pop    %ebx
 809ba08:	5e                   	pop    %esi
 809ba09:	c3                   	ret    
 809ba94:	83 c4 2c             	add    $0x2c,%esp
 809ba97:	89 f0                	mov    %esi,%eax
 809ba99:	89 fa                	mov    %edi,%edx
 809ba9b:	5b                   	pop    %ebx
 809ba9c:	5e                   	pop    %esi
 809ba9d:	5f                   	pop    %edi
 809ba9e:	5d                   	pop    %ebp
 809ba9f:	c3                   	ret    
 809bbc1:	89 f0                	mov    %esi,%eax
 809bbc3:	f7 df                	neg    %edi
 809bbc5:	5b                   	pop    %ebx
 809bbc6:	89 fa                	mov    %edi,%edx
 809bbc8:	5e                   	pop    %esi
 809bbc9:	5f                   	pop    %edi
 809bbca:	5d                   	pop    %ebp
 809bbcb:	c3                   	ret    
 809be99:	e8 82 fa ff ff       	call   809b920 <_dl_dprintf>
 809be9e:	83 c4 20             	add    $0x20,%esp
 809bea1:	8d 65 f4             	lea    -0xc(%ebp),%esp
 809bea4:	5b                   	pop    %ebx
 809bea5:	5e                   	pop    %esi
 809bea6:	5f                   	pop    %edi
 809bea7:	5d                   	pop    %ebp
 809bea8:	c3                   	ret    
 809c60c:	74 01                	je     809c60f <_dl_mcount+0x1bf>
 809c60e:	f0 ff 46 08          	lock incl 0x8(%esi)
 809c612:	83 c4 24             	add    $0x24,%esp
 809c615:	5b                   	pop    %ebx
 809c616:	5e                   	pop    %esi
 809c617:	5f                   	pop    %edi
 809c618:	5d                   	pop    %ebp
 809c619:	c3                   	ret    
 809c6b0:	8d 50 08             	lea    0x8(%eax),%edx
 809c6b3:	89 30                	mov    %esi,(%eax)
 809c6b5:	89 f8                	mov    %edi,%eax
 809c6b7:	89 57 04             	mov    %edx,0x4(%edi)
 809c6ba:	5b                   	pop    %ebx
 809c6bb:	5e                   	pop    %esi
 809c6bc:	5f                   	pop    %edi
 809c6bd:	c3                   	ret    
 809c6f5:	8d 45 01             	lea    0x1(%ebp),%eax
 809c6f8:	89 01                	mov    %eax,(%ecx)
 809c6fa:	83 c4 1c             	add    $0x1c,%esp
 809c6fd:	5b                   	pop    %ebx
 809c6fe:	5e                   	pop    %esi
 809c6ff:	5f                   	pop    %edi
 809c700:	5d                   	pop    %ebp
 809c701:	c3                   	ret    
 809c7e0:	e8 43 cb fa ff       	call   8049328 <__x86.get_pc_thunk.ax>
 809c7e5:	05 1b c8 03 00       	add    $0x3c81b,%eax
 809c7ea:	c7 c2 e4 ae 0d 08    	mov    $0x80daee4,%edx
 809c7f0:	80 3a 00             	cmpb   $0x0,(%edx)
 809c7f3:	75 0b                	jne    809c800 <_dl_count_modids+0x20>
 809c7f5:	c7 c0 c8 ac 0d 08    	mov    $0x80dacc8,%eax
 809c7fb:	8b 00                	mov    (%eax),%eax
 809c7fd:	c3                   	ret    
 809c82a:	83 c2 01             	add    $0x1,%edx
 809c82d:	39 da                	cmp    %ebx,%edx
 809c82f:	75 ef                	jne    809c820 <_dl_count_modids+0x40>
 809c831:	8b 49 04             	mov    0x4(%ecx),%ecx
 809c834:	85 c9                	test   %ecx,%ecx
 809c836:	75 d8                	jne    809c810 <_dl_count_modids+0x30>
 809c838:	5b                   	pop    %ebx
 809c839:	c3                   	ret    
 809c850:	c7 c0 c4 ac 0d 08    	mov    $0x80dacc4,%eax
 809c856:	8b 0a                	mov    (%edx),%ecx
 809c858:	8b 54 24 04          	mov    0x4(%esp),%edx
 809c85c:	89 0a                	mov    %ecx,(%edx)
 809c85e:	8b 10                	mov    (%eax),%edx
 809c860:	8b 44 24 08          	mov    0x8(%esp),%eax
 809c864:	89 10                	mov    %edx,(%eax)
 809c866:	c3                   	ret    
 809c8eb:	85 c0                	test   %eax,%eax
 809c8ed:	74 11                	je     809c900 <_dl_allocate_tls_storage+0x90>
 809c8ef:	83 c4 1c             	add    $0x1c,%esp
 809c8f2:	5b                   	pop    %ebx
 809c8f3:	5e                   	pop    %esi
 809c8f4:	5f                   	pop    %edi
 809c8f5:	5d                   	pop    %ebp
 809c8f6:	c3                   	ret    
 809c90d:	83 c4 10             	add    $0x10,%esp
 809c910:	8b 44 24 0c          	mov    0xc(%esp),%eax
 809c914:	83 c4 1c             	add    $0x1c,%esp
 809c917:	5b                   	pop    %ebx
 809c918:	5e                   	pop    %esi
 809c919:	5f                   	pop    %edi
 809c91a:	5d                   	pop    %ebp
 809c91b:	c3                   	ret    
 809c91c:	8d 74 26 00          	lea    0x0(%esi,%eiz,1),%esi
 809c920:	83 c4 1c             	add    $0x1c,%esp
 809c923:	31 c0                	xor    %eax,%eax
 809c925:	5b                   	pop    %ebx
 809c926:	5e                   	pop    %esi
 809c927:	5f                   	pop    %edi
 809c928:	5d                   	pop    %ebp
 809c929:	c3                   	ret    
 809cb08:	89 30                	mov    %esi,(%eax)
 809cb0a:	8b 44 24 50          	mov    0x50(%esp),%eax
 809cb0e:	83 c4 3c             	add    $0x3c,%esp
 809cb11:	5b                   	pop    %ebx
 809cb12:	5e                   	pop    %esi
 809cb13:	5f                   	pop    %edi
 809cb14:	5d                   	pop    %ebp
 809cb15:	c3                   	ret    
 809cd36:	e8 a5 fa fb ff       	call   805c7e0 <__free>
 809cd3b:	83 c4 10             	add    $0x10,%esp
 809cd3e:	83 c4 0c             	add    $0xc,%esp
 809cd41:	5b                   	pop    %ebx
 809cd42:	5e                   	pop    %esi
 809cd43:	5f                   	pop    %edi
 809cd44:	5d                   	pop    %ebp
 809cd45:	c3                   	ret    
 809cd7f:	8b 04 c2             	mov    (%edx,%eax,8),%eax
 809cd82:	ba 00 00 00 00       	mov    $0x0,%edx
 809cd87:	5b                   	pop    %ebx
 809cd88:	5e                   	pop    %esi
 809cd89:	83 f8 ff             	cmp    $0xffffffff,%eax
 809cd8c:	0f 44 c2             	cmove  %edx,%eax
 809cd8f:	5f                   	pop    %edi
 809cd90:	c3                   	ret    
 809cdb9:	76 f5                	jbe    809cdb0 <_dl_tls_get_addr_soft+0x60>
 809cdbb:	3b 5c f1 08          	cmp    0x8(%ecx,%esi,8),%ebx
 809cdbf:	73 be                	jae    809cd7f <_dl_tls_get_addr_soft+0x2f>
 809cdc1:	5b                   	pop    %ebx
 809cdc2:	31 c0                	xor    %eax,%eax
 809cdc4:	5e                   	pop    %esi
 809cdc5:	5f                   	pop    %edi
 809cdc6:	c3                   	ret    
 809ce23:	89 50 08             	mov    %edx,0x8(%eax)
 809ce26:	89 48 0c             	mov    %ecx,0xc(%eax)
 809ce29:	83 c4 0c             	add    $0xc,%esp
 809ce2c:	5b                   	pop    %ebx
 809ce2d:	5e                   	pop    %esi
 809ce2e:	5f                   	pop    %edi
 809ce2f:	5d                   	pop    %ebp
 809ce30:	c3                   	ret    
 809cfb5:	c6 00 00             	movb   $0x0,(%eax)
 809cfb8:	81 c4 1c 10 00 00    	add    $0x101c,%esp
 809cfbe:	89 e8                	mov    %ebp,%eax
 809cfc0:	5b                   	pop    %ebx
 809cfc1:	5e                   	pop    %esi
 809cfc2:	5f                   	pop    %edi
 809cfc3:	5d                   	pop    %ebp
 809cfc4:	c3                   	ret    
 809cfc8:	bd ff ff ff ff       	mov    $0xffffffff,%ebp
 809cfcd:	81 c4 1c 10 00 00    	add    $0x101c,%esp
 809cfd3:	89 e8                	mov    %ebp,%eax
 809cfd5:	5b                   	pop    %ebx
 809cfd6:	5e                   	pop    %esi
 809cfd7:	5f                   	pop    %edi
 809cfd8:	5d                   	pop    %ebp
 809cfd9:	c3                   	ret    
 809d01a:	c6 00 00             	movb   $0x0,(%eax)
 809d01d:	89 e8                	mov    %ebp,%eax
 809d01f:	81 c4 1c 10 00 00    	add    $0x101c,%esp
 809d025:	5b                   	pop    %ebx
 809d026:	5e                   	pop    %esi
 809d027:	5f                   	pop    %edi
 809d028:	5d                   	pop    %ebp
 809d029:	c3                   	ret    
 809d06c:	ff 74 24 1c          	pushl  0x1c(%esp)
 809d070:	e8 6b f7 fb ff       	call   805c7e0 <__free>
 809d075:	83 c4 10             	add    $0x10,%esp
 809d078:	89 f0                	mov    %esi,%eax
 809d07a:	5b                   	pop    %ebx
 809d07b:	5e                   	pop    %esi
 809d07c:	5f                   	pop    %edi
 809d07d:	c3                   	ret    
 809d181:	75 2d                	jne    809d1b0 <_dl_make_stack_executable+0x70>
 809d183:	c7 c2 e0 99 0d 08    	mov    $0x80d99e0,%edx
 809d189:	c7 06 00 00 00 00    	movl   $0x0,(%esi)
 809d18f:	83 0a 01             	orl    $0x1,(%edx)
 809d192:	5b                   	pop    %ebx
 809d193:	5e                   	pop    %esi
 809d194:	5f                   	pop    %edi
 809d195:	c3                   	ret    
 809d195:	c3                   	ret    
 809d196:	8d 76 00             	lea    0x0(%esi),%esi
 809d199:	8d bc 27 00 00 00 00 	lea    0x0(%edi,%eiz,1),%edi
 809d1a0:	5b                   	pop    %ebx
 809d1a1:	b8 01 00 00 00       	mov    $0x1,%eax
 809d1a6:	5e                   	pop    %esi
 809d1a7:	5f                   	pop    %edi
 809d1a8:	c3                   	ret    
 809d345:	8d 83 00 50 fe ff    	lea    -0x1b000(%ebx),%eax
 809d34b:	89 46 04             	mov    %eax,0x4(%esi)
 809d34e:	83 c4 1c             	add    $0x1c,%esp
 809d351:	5b                   	pop    %ebx
 809d352:	5e                   	pop    %esi
 809d353:	5f                   	pop    %edi
 809d354:	5d                   	pop    %ebp
 809d355:	c3                   	ret    
 809d389:	89 4e 04             	mov    %ecx,0x4(%esi)
 809d38c:	89 4e 08             	mov    %ecx,0x8(%esi)
 809d38f:	83 c4 1c             	add    $0x1c,%esp
 809d392:	5b                   	pop    %ebx
 809d393:	5e                   	pop    %esi
 809d394:	5f                   	pop    %edi
 809d395:	5d                   	pop    %ebp
 809d396:	c3                   	ret    
 809d486:	c7 47 08 00 00 00 00 	movl   $0x0,0x8(%edi)
 809d48d:	89 47 04             	mov    %eax,0x4(%edi)
 809d490:	83 c4 1c             	add    $0x1c,%esp
 809d493:	5b                   	pop    %ebx
 809d494:	5e                   	pop    %esi
 809d495:	5f                   	pop    %edi
 809d496:	5d                   	pop    %ebp
 809d497:	c3                   	ret    
 809d598:	83 c4 10             	add    $0x10,%esp
 809d59b:	89 03                	mov    %eax,(%ebx)
 809d59d:	83 c4 1c             	add    $0x1c,%esp
 809d5a0:	5b                   	pop    %ebx
 809d5a1:	5e                   	pop    %esi
 809d5a2:	5f                   	pop    %edi
 809d5a3:	5d                   	pop    %ebp
 809d5a4:	c3                   	ret    
 809d637:	e8 a4 f1 fb ff       	call   805c7e0 <__free>
 809d63c:	c7 06 00 00 00 00    	movl   $0x0,(%esi)
 809d642:	c7 46 04 00 00 00 00 	movl   $0x0,0x4(%esi)
 809d649:	c7 46 08 00 00 00 00 	movl   $0x0,0x8(%esi)
 809d650:	83 c4 14             	add    $0x14,%esp
 809d653:	5b                   	pop    %ebx
 809d654:	5e                   	pop    %esi
 809d655:	c3                   	ret    
 809d6b1:	83 c4 04             	add    $0x4,%esp
 809d6b4:	0f be c2             	movsbl %dl,%eax
 809d6b7:	5b                   	pop    %ebx
 809d6b8:	f7 d8                	neg    %eax
 809d6ba:	5e                   	pop    %esi
 809d6bb:	5f                   	pop    %edi
 809d6bc:	5d                   	pop    %ebp
 809d6bd:	c3                   	ret    
 809d73d:	0f 84 2f ff ff ff    	je     809d672 <_dl_cache_libcmp+0x12>
 809d743:	83 c4 04             	add    $0x4,%esp
 809d746:	29 d0                	sub    %edx,%eax
 809d748:	5b                   	pop    %ebx
 809d749:	5e                   	pop    %esi
 809d74a:	5f                   	pop    %edi
 809d74b:	5d                   	pop    %ebp
 809d74c:	c3                   	ret    
 809d74d:	8d 76 00             	lea    0x0(%esi),%esi
 809d750:	83 c4 04             	add    $0x4,%esp
 809d753:	b8 ff ff ff ff       	mov    $0xffffffff,%eax
 809d758:	5b                   	pop    %ebx
 809d759:	5e                   	pop    %esi
 809d75a:	5f                   	pop    %edi
 809d75b:	5d                   	pop    %ebp
 809d75c:	c3                   	ret    
 809d75c:	c3                   	ret    
 809d75d:	83 c4 04             	add    $0x4,%esp
 809d760:	b8 01 00 00 00       	mov    $0x1,%eax
 809d765:	5b                   	pop    %ebx
 809d766:	5e                   	pop    %esi
 809d767:	5f                   	pop    %edi
 809d768:	5d                   	pop    %ebp
 809d769:	c3                   	ret    
 809d8e1:	7d c4                	jge    809d8a7 <_dl_load_cache_lookup+0x137>
 809d8e3:	8d 65 f4             	lea    -0xc(%ebp),%esp
 809d8e6:	31 c0                	xor    %eax,%eax
 809d8e8:	5b                   	pop    %ebx
 809d8e9:	5e                   	pop    %esi
 809d8ea:	5f                   	pop    %edi
 809d8eb:	5d                   	pop    %ebp
 809d8ec:	c3                   	ret    
 809daac:	e8 4f 00 fc ff       	call   805db00 <__strdup>
 809dab1:	83 c4 10             	add    $0x10,%esp
 809dab4:	8d 65 f4             	lea    -0xc(%ebp),%esp
 809dab7:	5b                   	pop    %ebx
 809dab8:	5e                   	pop    %esi
 809dab9:	5f                   	pop    %edi
 809daba:	5d                   	pop    %ebp
 809dabb:	c3                   	ret    
 809de96:	50                   	push   %eax
 809de97:	e8 64 ed fc ff       	call   806cc00 <__munmap>
 809de9c:	c7 83 9c 1a 00 00 00 	movl   $0x0,0x1a9c(%ebx)
 809dea3:	00 00 00 
 809dea6:	83 c4 10             	add    $0x10,%esp
 809dea9:	83 c4 08             	add    $0x8,%esp
 809deac:	5b                   	pop    %ebx
 809dead:	c3                   	ret    
 809dea9:	83 c4 08             	add    $0x8,%esp
 809deac:	5b                   	pop    %ebx
 809dead:	c3                   	ret    
 809deae:	66 90                	xchg   %ax,%ax

0809deb0 <_dl_tlsdesc_return>:
 809deb0:	8b 40 04             	mov    0x4(%eax),%eax
 809deb3:	c3                   	ret    
 809deb3:	c3                   	ret    
 809deb4:	8d b6 00 00 00 00    	lea    0x0(%esi),%esi
 809deba:	8d bf 00 00 00 00    	lea    0x0(%edi),%edi

0809dec0 <_dl_tlsdesc_undefweak>:
 809dec0:	8b 40 04             	mov    0x4(%eax),%eax
 809dec3:	65 2b 05 00 00 00 00 	sub    %gs:0x0,%eax
 809deca:	c3                   	ret    
 809df78:	ff 73 08             	pushl  0x8(%ebx)
 809df7b:	ff 73 04             	pushl  0x4(%ebx)
 809df7e:	ff 33                	pushl  (%ebx)
 809df80:	e8 9b 3a 00 00       	call   80a1a20 <_dl_open>
 809df85:	89 43 0c             	mov    %eax,0xc(%ebx)
 809df88:	83 c4 28             	add    $0x28,%esp
 809df8b:	5b                   	pop    %ebx
 809df8c:	c3                   	ret    
 809dfd5:	85 d2                	test   %edx,%edx
 809dfd7:	75 17                	jne    809dff0 <dlerror_run+0x60>
 809dfd9:	8b 4c 24 1c          	mov    0x1c(%esp),%ecx
 809dfdd:	65 33 0d 14 00 00 00 	xor    %gs:0x14,%ecx
 809dfe4:	75 32                	jne    809e018 <dlerror_run+0x88>
 809dfe6:	83 c4 28             	add    $0x28,%esp
 809dfe9:	5b                   	pop    %ebx
 809dfea:	c3                   	ret    
 809e065:	8b 02                	mov    (%edx),%eax
 809e067:	8b 54 24 18          	mov    0x18(%esp),%edx
 809e06b:	03 42 04             	add    0x4(%edx),%eax
 809e06e:	8b 4c 24 1c          	mov    0x1c(%esp),%ecx
 809e072:	65 33 0d 14 00 00 00 	xor    %gs:0x14,%ecx
 809e079:	75 09                	jne    809e084 <__libc_dlsym+0x64>
 809e07b:	83 c4 2c             	add    $0x2c,%esp
 809e07e:	c3                   	ret    
 809e158:	03 42 04             	add    0x4(%edx),%eax
 809e15b:	8b 74 24 2c          	mov    0x2c(%esp),%esi
 809e15f:	65 33 35 14 00 00 00 	xor    %gs:0x14,%esi
 809e166:	75 0c                	jne    809e174 <__libc_dlvsym+0xe4>
 809e168:	83 c4 34             	add    $0x34,%esp
 809e16b:	5b                   	pop    %ebx
 809e16c:	5e                   	pop    %esi
 809e16d:	c3                   	ret    
 809e208:	83 c4 20             	add    $0x20,%esp
 809e20b:	89 43 08             	mov    %eax,0x8(%ebx)
 809e20e:	8b 44 24 1c          	mov    0x1c(%esp),%eax
 809e212:	65 33 05 14 00 00 00 	xor    %gs:0x14,%eax
 809e219:	75 05                	jne    809e220 <do_dlsym_private+0x80>
 809e21b:	83 c4 28             	add    $0x28,%esp
 809e21e:	5b                   	pop    %ebx
 809e21f:	c3                   	ret    
 809e253:	52                   	push   %edx
 809e254:	50                   	push   %eax
 809e255:	ff 73 04             	pushl  0x4(%ebx)
 809e258:	e8 23 95 ff ff       	call   8097780 <_dl_lookup_symbol_x>
 809e25d:	89 43 08             	mov    %eax,0x8(%ebx)
 809e260:	83 c4 28             	add    $0x28,%esp
 809e263:	5b                   	pop    %ebx
 809e264:	c3                   	ret    
 809e295:	52                   	push   %edx
 809e296:	50                   	push   %eax
 809e297:	ff 73 04             	pushl  0x4(%ebx)
 809e29a:	e8 e1 94 ff ff       	call   8097780 <_dl_lookup_symbol_x>
 809e29f:	89 43 08             	mov    %eax,0x8(%ebx)
 809e2a2:	83 c4 28             	add    $0x28,%esp
 809e2a5:	5b                   	pop    %ebx
 809e2a6:	c3                   	ret    
 809e305:	8b 02                	mov    (%edx),%eax
 809e307:	8b 54 24 18          	mov    0x18(%esp),%edx
 809e30b:	03 42 04             	add    0x4(%edx),%eax
 809e30e:	8b 4c 24 1c          	mov    0x1c(%esp),%ecx
 809e312:	65 33 0d 14 00 00 00 	xor    %gs:0x14,%ecx
 809e319:	75 09                	jne    809e324 <__libc_dlsym_private+0x64>
 809e31b:	83 c4 2c             	add    $0x2c,%esp
 809e31e:	c3                   	ret    
 809e373:	85 c0                	test   %eax,%eax
 809e375:	74 08                	je     809e37f <__libc_register_dl_open_hook+0x4f>
 809e377:	8d 93 1c 0f 00 00    	lea    0xf1c(%ebx),%edx
 809e37d:	89 10                	mov    %edx,(%eax)
 809e37f:	83 c4 04             	add    $0x4,%esp
 809e382:	5b                   	pop    %ebx
 809e383:	5e                   	pop    %esi
 809e384:	c3                   	ret    
 809e3e6:	e8 85 26 00 00       	call   80a0a70 <__libc_register_dlfcn_hook>
 809e3eb:	8b 44 24 28          	mov    0x28(%esp),%eax
 809e3ef:	83 c4 10             	add    $0x10,%esp
 809e3f2:	8b 4c 24 1c          	mov    0x1c(%esp),%ecx
 809e3f6:	65 33 0d 14 00 00 00 	xor    %gs:0x14,%ecx
 809e3fd:	75 0d                	jne    809e40c <__libc_dlopen_mode+0x7c>
 809e3ff:	83 c4 2c             	add    $0x2c,%esp
 809e402:	c3                   	ret    
 809e67d:	31 c0                	xor    %eax,%eax
 809e67f:	8b 94 24 cc 00 00 00 	mov    0xcc(%esp),%edx
 809e686:	65 33 15 14 00 00 00 	xor    %gs:0x14,%edx
 809e68d:	75 28                	jne    809e6b7 <_dl_catch_exception+0xf7>
 809e68f:	81 c4 d4 00 00 00    	add    $0xd4,%esp
 809e695:	5b                   	pop    %ebx
 809e696:	5e                   	pop    %esi
 809e697:	c3                   	ret    
 809e706:	8b 4c 24 0c          	mov    0xc(%esp),%ecx
 809e70a:	65 33 0d 14 00 00 00 	xor    %gs:0x14,%ecx
 809e711:	75 07                	jne    809e71a <_dl_catch_error+0x5a>
 809e713:	83 c4 10             	add    $0x10,%esp
 809e716:	5b                   	pop    %ebx
 809e717:	5e                   	pop    %esi
 809e718:	5f                   	pop    %edi
 809e719:	c3                   	ret    
 809e791:	0f 94 c0             	sete   %al
 809e794:	0f b6 c0             	movzbl %al,%eax
 809e797:	89 46 18             	mov    %eax,0x18(%esi)
 809e79a:	83 c4 04             	add    $0x4,%esp
 809e79d:	31 c0                	xor    %eax,%eax
 809e79f:	5b                   	pop    %ebx
 809e7a0:	5e                   	pop    %esi
 809e7a1:	c3                   	ret    
 809e818:	74 ee                	je     809e808 <__mpn_cmp+0x18>
 809e81a:	39 d1                	cmp    %edx,%ecx
 809e81c:	19 c0                	sbb    %eax,%eax
 809e81e:	83 e0 02             	and    $0x2,%eax
 809e821:	83 e8 01             	sub    $0x1,%eax
 809e824:	5b                   	pop    %ebx
 809e825:	5e                   	pop    %esi
 809e826:	c3                   	ret    
 809e825:	5e                   	pop    %esi
 809e826:	c3                   	ret    
 809e827:	89 f6                	mov    %esi,%esi
 809e829:	8d bc 27 00 00 00 00 	lea    0x0(%edi,%eiz,1),%edi
 809e830:	31 c0                	xor    %eax,%eax
 809e832:	5b                   	pop    %ebx
 809e833:	5e                   	pop    %esi
 809e834:	c3                   	ret    
 809e99f:	0f 85 3b ff ff ff    	jne    809e8e0 <__mpn_divrem+0xa0>
 809e9a5:	8b 44 24 14          	mov    0x14(%esp),%eax
 809e9a9:	83 c4 2c             	add    $0x2c,%esp
 809e9ac:	5b                   	pop    %ebx
 809e9ad:	5e                   	pop    %esi
 809e9ae:	5f                   	pop    %edi
 809e9af:	5d                   	pop    %ebp
 809e9b0:	c3                   	ret    
 809eb01:	89 18                	mov    %ebx,(%eax)
 809eb03:	8b 44 24 14          	mov    0x14(%esp),%eax
 809eb07:	83 c4 2c             	add    $0x2c,%esp
 809eb0a:	5b                   	pop    %ebx
 809eb0b:	5e                   	pop    %esi
 809eb0c:	5f                   	pop    %edi
 809eb0d:	5d                   	pop    %ebp
 809eb0e:	c3                   	ret    
 809eb9e:	89 13                	mov    %edx,(%ebx)
 809eba0:	8b 44 24 14          	mov    0x14(%esp),%eax
 809eba4:	83 c4 2c             	add    $0x2c,%esp
 809eba7:	5b                   	pop    %ebx
 809eba8:	5e                   	pop    %esi
 809eba9:	5f                   	pop    %edi
 809ebaa:	5d                   	pop    %ebp
 809ebab:	c3                   	ret    
 809ec84:	75 ea                	jne    809ec70 <__mpn_lshift+0x30>
 809ec86:	d3 e0                	shl    %cl,%eax
 809ec88:	89 07                	mov    %eax,(%edi)
 809ec8a:	58                   	pop    %eax
 809ec8b:	5b                   	pop    %ebx
 809ec8c:	5e                   	pop    %esi
 809ec8d:	5f                   	pop    %edi
 809ec8e:	c3                   	ret    
 809ec8d:	5f                   	pop    %edi
 809ec8e:	c3                   	ret    
 809ec8f:	d3 e3                	shl    %cl,%ebx
 809ec91:	89 1f                	mov    %ebx,(%edi)
 809ec93:	5b                   	pop    %ebx
 809ec94:	5e                   	pop    %esi
 809ec95:	5f                   	pop    %edi
 809ec96:	c3                   	ret    
 809ece4:	75 ea                	jne    809ecd0 <__mpn_rshift+0x30>
 809ece6:	d3 e8                	shr    %cl,%eax
 809ece8:	89 07                	mov    %eax,(%edi)
 809ecea:	58                   	pop    %eax
 809eceb:	5b                   	pop    %ebx
 809ecec:	5e                   	pop    %esi
 809eced:	5f                   	pop    %edi
 809ecee:	c3                   	ret    
 809eced:	5f                   	pop    %edi
 809ecee:	c3                   	ret    
 809ecef:	d3 eb                	shr    %cl,%ebx
 809ecf1:	89 1f                	mov    %ebx,(%edi)
 809ecf3:	5b                   	pop    %ebx
 809ecf4:	5e                   	pop    %esi
 809ecf5:	5f                   	pop    %edi
 809ecf6:	c3                   	ret    
 809ede8:	65 33 3d 14 00 00 00 	xor    %gs:0x14,%edi
 809edef:	0f 85 45 02 00 00    	jne    809f03a <__mpn_mul+0x33a>
 809edf5:	8d 65 f4             	lea    -0xc(%ebp),%esp
 809edf8:	5b                   	pop    %ebx
 809edf9:	5e                   	pop    %esi
 809edfa:	5f                   	pop    %edi
 809edfb:	5d                   	pop    %ebp
 809edfc:	c3                   	ret    
 809f06f:	41                   	inc    %ecx
 809f070:	75 ee                	jne    809f060 <__mpn_mul_1+0x20>
 809f072:	89 e8                	mov    %ebp,%eax
 809f074:	5b                   	pop    %ebx
 809f075:	5d                   	pop    %ebp
 809f076:	5e                   	pop    %esi
 809f077:	5f                   	pop    %edi
 809f078:	c3                   	ret    
 809f11f:	39 f7                	cmp    %esi,%edi
 809f121:	75 d9                	jne    809f0fc <__mpn_impn_mul_n_basecase+0x7c>
 809f123:	83 c4 0c             	add    $0xc,%esp
 809f126:	5b                   	pop    %ebx
 809f127:	5e                   	pop    %esi
 809f128:	5f                   	pop    %edi
 809f129:	5d                   	pop    %ebp
 809f12a:	c3                   	ret    
 809f204:	83 c4 20             	add    $0x20,%esp
 809f207:	89 04 be             	mov    %eax,(%esi,%edi,4)
 809f20a:	83 c4 2c             	add    $0x2c,%esp
 809f20d:	5b                   	pop    %ebx
 809f20e:	5e                   	pop    %esi
 809f20f:	5f                   	pop    %edi
 809f210:	5d                   	pop    %ebp
 809f211:	c3                   	ret    
 809f5ed:	39 5c 24 0c          	cmp    %ebx,0xc(%esp)
 809f5f1:	75 d9                	jne    809f5cc <__mpn_impn_sqr_n_basecase+0x8c>
 809f5f3:	83 c4 1c             	add    $0x1c,%esp
 809f5f6:	5b                   	pop    %ebx
 809f5f7:	5e                   	pop    %esi
 809f5f8:	5f                   	pop    %edi
 809f5f9:	5d                   	pop    %ebp
 809f5fa:	c3                   	ret    
 809f6cb:	83 c4 20             	add    $0x20,%esp
 809f6ce:	89 44 9d 00          	mov    %eax,0x0(%ebp,%ebx,4)
 809f6d2:	83 c4 2c             	add    $0x2c,%esp
 809f6d5:	5b                   	pop    %ebx
 809f6d6:	5e                   	pop    %esi
 809f6d7:	5f                   	pop    %edi
 809f6d8:	5d                   	pop    %ebp
 809f6d9:	c3                   	ret    
 809f9fc:	8b 45 f4             	mov    -0xc(%ebp),%eax
 809f9ff:	65 33 05 14 00 00 00 	xor    %gs:0x14,%eax
 809fa06:	75 51                	jne    809fa59 <__mpn_mul_n+0xa9>
 809fa08:	8d 65 f8             	lea    -0x8(%ebp),%esp
 809fa0b:	5b                   	pop    %ebx
 809fa0c:	5e                   	pop    %esi
 809fa0d:	5d                   	pop    %ebp
 809fa0e:	c3                   	ret    
 809faeb:	8d 52 20             	lea    0x20(%edx),%edx
 809faee:	49                   	dec    %ecx
 809faef:	75 af                	jne    809faa0 <__mpn_sub_n+0x40>
 809faf1:	19 c0                	sbb    %eax,%eax
 809faf3:	f7 d8                	neg    %eax
 809faf5:	5e                   	pop    %esi
 809faf6:	5f                   	pop    %edi
 809faf7:	c3                   	ret    
 809fb32:	41                   	inc    %ecx
 809fb33:	75 eb                	jne    809fb20 <__mpn_submul_1+0x20>
 809fb35:	89 e8                	mov    %ebp,%eax
 809fb37:	5b                   	pop    %ebx
 809fb38:	5d                   	pop    %ebp
 809fb39:	5e                   	pop    %esi
 809fb3a:	5f                   	pop    %edi
 809fb3b:	c3                   	ret    
 809fbb9:	29 d0                	sub    %edx,%eax
 809fbbb:	89 06                	mov    %eax,(%esi)
 809fbbd:	b8 02 00 00 00       	mov    $0x2,%eax
 809fbc2:	5b                   	pop    %ebx
 809fbc3:	5e                   	pop    %esi
 809fbc4:	5f                   	pop    %edi
 809fbc5:	5d                   	pop    %ebp
 809fbc6:	c3                   	ret    
 809fbd0:	81 cf 00 00 10 00    	or     $0x100000,%edi
 809fbd6:	b8 02 00 00 00       	mov    $0x2,%eax
 809fbdb:	89 7b 04             	mov    %edi,0x4(%ebx)
 809fbde:	5b                   	pop    %ebx
 809fbdf:	5e                   	pop    %esi
 809fbe0:	5f                   	pop    %edi
 809fbe1:	5d                   	pop    %ebp
 809fbe2:	c3                   	ret    
 809fc11:	89 6b 04             	mov    %ebp,0x4(%ebx)
 809fc14:	89 06                	mov    %eax,(%esi)
 809fc16:	b8 02 00 00 00       	mov    $0x2,%eax
 809fc1b:	5b                   	pop    %ebx
 809fc1c:	5e                   	pop    %esi
 809fc1d:	5f                   	pop    %edi
 809fc1e:	5d                   	pop    %ebp
 809fc1f:	c3                   	ret    
 809fc1f:	c3                   	ret    
 809fc20:	c7 06 00 00 00 00    	movl   $0x0,(%esi)
 809fc26:	b8 02 00 00 00       	mov    $0x2,%eax
 809fc2b:	5b                   	pop    %ebx
 809fc2c:	5e                   	pop    %esi
 809fc2d:	5f                   	pop    %edi
 809fc2e:	5d                   	pop    %ebp
 809fc2f:	c3                   	ret    
 809fcca:	c7 03 02 c0 ff ff    	movl   $0xffffc002,(%ebx)
 809fcd0:	83 c4 4c             	add    $0x4c,%esp
 809fcd3:	b8 02 00 00 00       	mov    $0x2,%eax
 809fcd8:	5b                   	pop    %ebx
 809fcd9:	5e                   	pop    %esi
 809fcda:	5f                   	pop    %edi
 809fcdb:	5d                   	pop    %ebp
 809fcdc:	c3                   	ret    
 809fcea:	c7 03 00 00 00 00    	movl   $0x0,(%ebx)
 809fcf0:	83 c4 4c             	add    $0x4c,%esp
 809fcf3:	b8 02 00 00 00       	mov    $0x2,%eax
 809fcf8:	5b                   	pop    %ebx
 809fcf9:	5e                   	pop    %esi
 809fcfa:	5f                   	pop    %edi
 809fcfb:	5d                   	pop    %ebp
 809fcfc:	c3                   	ret    
 809fd30:	89 03                	mov    %eax,(%ebx)
 809fd32:	83 c4 4c             	add    $0x4c,%esp
 809fd35:	b8 02 00 00 00       	mov    $0x2,%eax
 809fd3a:	5b                   	pop    %ebx
 809fd3b:	5e                   	pop    %esi
 809fd3c:	5f                   	pop    %edi
 809fd3d:	5d                   	pop    %ebp
 809fd3e:	c3                   	ret    
 809fd58:	89 03                	mov    %eax,(%ebx)
 809fd5a:	83 c4 4c             	add    $0x4c,%esp
 809fd5d:	5b                   	pop    %ebx
 809fd5e:	b8 02 00 00 00       	mov    $0x2,%eax
 809fd63:	5e                   	pop    %esi
 809fd64:	5f                   	pop    %edi
 809fd65:	5d                   	pop    %ebp
 809fd66:	c3                   	ret    
 809fe6f:	89 06                	mov    %eax,(%esi)
 809fe71:	83 c4 2c             	add    $0x2c,%esp
 809fe74:	b8 04 00 00 00       	mov    $0x4,%eax
 809fe79:	5b                   	pop    %ebx
 809fe7a:	5e                   	pop    %esi
 809fe7b:	5f                   	pop    %edi
 809fe7c:	5d                   	pop    %ebp
 809fe7d:	c3                   	ret    
 809fe86:	89 48 0c             	mov    %ecx,0xc(%eax)
 809fe89:	83 c4 2c             	add    $0x2c,%esp
 809fe8c:	b8 04 00 00 00       	mov    $0x4,%eax
 809fe91:	5b                   	pop    %ebx
 809fe92:	5e                   	pop    %esi
 809fe93:	5f                   	pop    %edi
 809fe94:	5d                   	pop    %ebp
 809fe95:	c3                   	ret    
 809ffaf:	89 c1                	mov    %eax,%ecx
 809ffb1:	88 13                	mov    %dl,(%ebx)
 809ffb3:	75 eb                	jne    809ffa0 <_itoa_word+0x40>
 809ffb5:	89 d8                	mov    %ebx,%eax
 809ffb7:	5b                   	pop    %ebx
 809ffb8:	5e                   	pop    %esi
 809ffb9:	5f                   	pop    %edi
 809ffba:	c3                   	ret    
 809ffef:	89 d1                	mov    %edx,%ecx
 809fff1:	88 03                	mov    %al,(%ebx)
 809fff3:	75 e3                	jne    809ffd8 <_itoa_word+0x78>
 809fff5:	89 d8                	mov    %ebx,%eax
 809fff7:	5b                   	pop    %ebx
 809fff8:	5e                   	pop    %esi
 809fff9:	5f                   	pop    %edi
 809fffa:	c3                   	ret    
 80a0015:	0f b6 04 06          	movzbl (%esi,%eax,1),%eax
 80a0019:	88 03                	mov    %al,(%ebx)
 80a001b:	75 eb                	jne    80a0008 <_itoa_word+0xa8>
 80a001d:	89 d8                	mov    %ebx,%eax
 80a001f:	5b                   	pop    %ebx
 80a0020:	5e                   	pop    %esi
 80a0021:	5f                   	pop    %edi
 80a0022:	c3                   	ret    
 80a003d:	0f b6 04 06          	movzbl (%esi,%eax,1),%eax
 80a0041:	88 03                	mov    %al,(%ebx)
 80a0043:	75 eb                	jne    80a0030 <_itoa_word+0xd0>
 80a0045:	89 d8                	mov    %ebx,%eax
 80a0047:	5b                   	pop    %ebx
 80a0048:	5e                   	pop    %esi
 80a0049:	5f                   	pop    %edi
 80a004a:	c3                   	ret    
 80a00e9:	65 33 3d 14 00 00 00 	xor    %gs:0x14,%edi
 80a00f0:	0f 85 81 01 00 00    	jne    80a0277 <_itoa+0x227>
 80a00f6:	83 c4 2c             	add    $0x2c,%esp
 80a00f9:	5b                   	pop    %ebx
 80a00fa:	5e                   	pop    %esi
 80a00fb:	5f                   	pop    %edi
 80a00fc:	5d                   	pop    %ebp
 80a00fd:	c3                   	ret    
 80a02d9:	01 f0                	add    %esi,%eax
 80a02db:	8b 74 24 1c          	mov    0x1c(%esp),%esi
 80a02df:	65 33 35 14 00 00 00 	xor    %gs:0x14,%esi
 80a02e6:	75 0c                	jne    80a02f4 <_fitoa_word+0x74>
 80a02e8:	83 c4 24             	add    $0x24,%esp
 80a02eb:	5b                   	pop    %ebx
 80a02ec:	5e                   	pop    %esi
 80a02ed:	c3                   	ret    
 80a0359:	01 f0                	add    %esi,%eax
 80a035b:	8b 74 24 2c          	mov    0x2c(%esp),%esi
 80a035f:	65 33 35 14 00 00 00 	xor    %gs:0x14,%esi
 80a0366:	75 0c                	jne    80a0374 <_fitoa+0x74>
 80a0368:	83 c4 34             	add    $0x34,%esp
 80a036b:	5b                   	pop    %ebx
 80a036c:	5e                   	pop    %esi
 80a036d:	c3                   	ret    
 80a0418:	65 33 3d 14 00 00 00 	xor    %gs:0x14,%edi
 80a041f:	0f 85 7d 01 00 00    	jne    80a05a2 <_itowa+0x222>
 80a0425:	83 c4 2c             	add    $0x2c,%esp
 80a0428:	5b                   	pop    %ebx
 80a0429:	5e                   	pop    %esi
 80a042a:	5f                   	pop    %edi
 80a042b:	5d                   	pop    %ebp
 80a042c:	c3                   	ret    
 80a05df:	83 c4 10             	add    $0x10,%esp
 80a05e2:	85 c0                	test   %eax,%eax
 80a05e4:	74 0c                	je     80a05f2 <init+0x42>
 80a05e6:	8d 83 ac 1a 00 00    	lea    0x1aac(%ebx),%eax
 80a05ec:	89 83 a8 1a 00 00    	mov    %eax,0x1aa8(%ebx)
 80a05f2:	83 c4 08             	add    $0x8,%esp
 80a05f5:	5b                   	pop    %ebx
 80a05f6:	c3                   	ret    
 80a06b0:	65 33 35 14 00 00 00 	xor    %gs:0x14,%esi
 80a06b7:	0f 85 74 01 00 00    	jne    80a0831 <__dlerror+0x231>
 80a06bd:	83 c4 1c             	add    $0x1c,%esp
 80a06c0:	5b                   	pop    %ebx
 80a06c1:	5e                   	pop    %esi
 80a06c2:	5f                   	pop    %edi
 80a06c3:	5d                   	pop    %ebp
 80a06c4:	c3                   	ret    
 80a0863:	0f 97 c1             	seta   %cl
 80a0866:	80 d9 00             	sbb    $0x0,%cl
 80a0869:	84 c9                	test   %cl,%cl
 80a086b:	75 0b                	jne    80a0878 <check_free.isra.0+0x38>
 80a086d:	5b                   	pop    %ebx
 80a086e:	5e                   	pop    %esi
 80a086f:	5f                   	pop    %edi
 80a0870:	c3                   	ret    
 80a087d:	52                   	push   %edx
 80a087e:	e8 5d bf fb ff       	call   805c7e0 <__free>
 80a0883:	83 c4 10             	add    $0x10,%esp
 80a0886:	c7 06 00 00 00 00    	movl   $0x0,(%esi)
 80a088c:	5b                   	pop    %ebx
 80a088d:	5e                   	pop    %esi
 80a088e:	5f                   	pop    %edi
 80a088f:	c3                   	ret    
 80a08c5:	6a 00                	push   $0x0
 80a08c7:	ff b3 a4 1a 00 00    	pushl  0x1aa4(%ebx)
 80a08cd:	e8 2e f7 f5 f7       	call   0 <_nl_current_LC_CTYPE>
 80a08d2:	83 c4 10             	add    $0x10,%esp
 80a08d5:	83 c4 04             	add    $0x4,%esp
 80a08d8:	5b                   	pop    %ebx
 80a08d9:	5e                   	pop    %esi
 80a08da:	c3                   	ret    
 80a095a:	0f 94 c2             	sete   %dl
 80a095d:	0f 95 c0             	setne  %al
 80a0960:	89 56 04             	mov    %edx,0x4(%esi)
 80a0963:	83 c4 24             	add    $0x24,%esp
 80a0966:	0f b6 c0             	movzbl %al,%eax
 80a0969:	5b                   	pop    %ebx
 80a096a:	5e                   	pop    %esi
 80a096b:	c3                   	ret    
 80a0a8f:	83 c4 10             	add    $0x10,%esp
 80a0a92:	85 c0                	test   %eax,%eax
 80a0a94:	74 08                	je     80a0a9e <__libc_register_dlfcn_hook+0x2e>
 80a0a96:	8d 93 40 0f 00 00    	lea    0xf40(%ebx),%edx
 80a0a9c:	89 10                	mov    %edx,(%eax)
 80a0a9e:	83 c4 08             	add    $0x8,%esp
 80a0aa1:	5b                   	pop    %ebx
 80a0aa2:	c3                   	ret    
 80a0abf:	6a 00                	push   $0x0
 80a0ac1:	6a 00                	push   $0x0
 80a0ac3:	ff 74 24 1c          	pushl  0x1c(%esp)
 80a0ac7:	ff 74 24 1c          	pushl  0x1c(%esp)
 80a0acb:	e8 e0 30 00 00       	call   80a3bb0 <_dl_addr>
 80a0ad0:	83 c4 18             	add    $0x18,%esp
 80a0ad3:	5b                   	pop    %ebx
 80a0ad4:	c3                   	ret    
 80a0aff:	6a 00                	push   $0x0
 80a0b01:	ff 74 24 1c          	pushl  0x1c(%esp)
 80a0b05:	ff 74 24 1c          	pushl  0x1c(%esp)
 80a0b09:	e8 a2 30 00 00       	call   80a3bb0 <_dl_addr>
 80a0b0e:	83 c4 10             	add    $0x10,%esp
 80a0b11:	83 c4 08             	add    $0x8,%esp
 80a0b14:	5b                   	pop    %ebx
 80a0b15:	c3                   	ret    
 80a0b22:	ff 74 24 1c          	pushl  0x1c(%esp)
 80a0b26:	ff 74 24 1c          	pushl  0x1c(%esp)
 80a0b2a:	ff 74 24 1c          	pushl  0x1c(%esp)
 80a0b2e:	e8 7d 30 00 00       	call   80a3bb0 <_dl_addr>
 80a0b33:	83 c4 10             	add    $0x10,%esp
 80a0b36:	83 c4 08             	add    $0x8,%esp
 80a0b39:	5b                   	pop    %ebx
 80a0b3a:	c3                   	ret    
 80a0b88:	85 c9                	test   %ecx,%ecx
 80a0b8a:	0f 85 c0 00 00 00    	jne    80a0c50 <.L2+0x19>
 80a0b90:	8b 56 0c             	mov    0xc(%esi),%edx
 80a0b93:	89 02                	mov    %eax,(%edx)
 80a0b95:	83 c4 04             	add    $0x4,%esp
 80a0b98:	5b                   	pop    %ebx
 80a0b99:	5e                   	pop    %esi
 80a0b9a:	c3                   	ret    
080a0ba0 <.L3>:
 80a0ba0:	8b 46 0c             	mov    0xc(%esi),%eax
 80a0ba3:	8b 52 18             	mov    0x18(%edx),%edx
 80a0ba6:	89 10                	mov    %edx,(%eax)
 80a0ba8:	83 c4 04             	add    $0x4,%esp
 80a0bab:	5b                   	pop    %ebx
 80a0bac:	5e                   	pop    %esi
 80a0bad:	c3                   	ret    

080a0bb0 <.L5>:
 80a0bb0:	8b 46 0c             	mov    0xc(%esi),%eax
 80a0bb3:	89 10                	mov    %edx,(%eax)
 80a0bb5:	83 c4 04             	add    $0x4,%esp
 80a0bb8:	5b                   	pop    %ebx
 80a0bb9:	5e                   	pop    %esi
 80a0bba:	c3                   	ret    
 80a0bc5:	ff 76 0c             	pushl  0xc(%esi)
 80a0bc8:	52                   	push   %edx
 80a0bc9:	e8 52 5d ff ff       	call   8096920 <_dl_rtld_di_serinfo>
 80a0bce:	83 c4 10             	add    $0x10,%esp
 80a0bd1:	83 c4 04             	add    $0x4,%esp
 80a0bd4:	5b                   	pop    %ebx
 80a0bd5:	5e                   	pop    %esi
 80a0bd6:	c3                   	ret    
 80a0be5:	ff 76 0c             	pushl  0xc(%esi)
 80a0be8:	52                   	push   %edx
 80a0be9:	e8 32 5d ff ff       	call   8096920 <_dl_rtld_di_serinfo>
 80a0bee:	83 c4 10             	add    $0x10,%esp
 80a0bf1:	83 c4 04             	add    $0x4,%esp
 80a0bf4:	5b                   	pop    %ebx
 80a0bf5:	5e                   	pop    %esi
 80a0bf6:	c3                   	ret    
 80a0c03:	ff b2 a8 01 00 00    	pushl  0x1a8(%edx)
 80a0c09:	ff 76 0c             	pushl  0xc(%esi)
 80a0c0c:	e8 bf 75 fa ff       	call   80481d0 <.plt>
 80a0c11:	83 c4 10             	add    $0x10,%esp
 80a0c14:	83 c4 04             	add    $0x4,%esp
 80a0c17:	5b                   	pop    %ebx
 80a0c18:	5e                   	pop    %esi
 80a0c19:	c3                   	ret    
 80a0c20:	8b 46 0c             	mov    0xc(%esi),%eax
 80a0c23:	c7 00 00 00 00 00    	movl   $0x0,(%eax)
 80a0c29:	8b 92 44 02 00 00    	mov    0x244(%edx),%edx
 80a0c2f:	89 10                	mov    %edx,(%eax)
 80a0c31:	83 c4 04             	add    $0x4,%esp
 80a0c34:	5b                   	pop    %ebx
 80a0c35:	5e                   	pop    %esi
 80a0c36:	c3                   	ret    
 80a0cc0:	0f 95 c0             	setne  %al
 80a0cc3:	0f b6 c0             	movzbl %al,%eax
 80a0cc6:	f7 d8                	neg    %eax
 80a0cc8:	8b 4c 24 1c          	mov    0x1c(%esp),%ecx
 80a0ccc:	65 33 0d 14 00 00 00 	xor    %gs:0x14,%ecx
 80a0cd3:	75 04                	jne    80a0cd9 <__dlinfo+0x69>
 80a0cd5:	83 c4 2c             	add    $0x2c,%esp
 80a0cd8:	c3                   	ret    
 80a0d2c:	51                   	push   %ecx
 80a0d2d:	52                   	push   %edx
 80a0d2e:	e8 ed 0c 00 00       	call   80a1a20 <_dl_open>
 80a0d33:	89 46 0c             	mov    %eax,0xc(%esi)
 80a0d36:	83 c4 24             	add    $0x24,%esp
 80a0d39:	5b                   	pop    %ebx
 80a0d3a:	5e                   	pop    %esi
 80a0d3b:	c3                   	ret    
 80a0db3:	e8 b8 fc ff ff       	call   80a0a70 <__libc_register_dlfcn_hook>
 80a0db8:	8b 44 24 24          	mov    0x24(%esp),%eax
 80a0dbc:	83 c4 10             	add    $0x10,%esp
 80a0dbf:	8b 4c 24 1c          	mov    0x1c(%esp),%ecx
 80a0dc3:	65 33 0d 14 00 00 00 	xor    %gs:0x14,%ecx
 80a0dca:	75 08                	jne    80a0dd4 <__dlmopen+0x84>
 80a0dcc:	83 c4 2c             	add    $0x2c,%esp
 80a0dcf:	c3                   	ret    
 80a0e03:	85 c0                	test   %eax,%eax
 80a0e05:	74 09                	je     80a0e10 <strerror+0x30>
 80a0e07:	83 c4 0c             	add    $0xc,%esp
 80a0e0a:	5b                   	pop    %ebx
 80a0e0b:	5e                   	pop    %esi
 80a0e0c:	5f                   	pop    %edi
 80a0e0d:	5d                   	pop    %ebp
 80a0e0e:	c3                   	ret    
 80a0e8b:	53                   	push   %ebx
 80a0e8c:	c7 c3 00 a9 0d 08    	mov    $0x80da900,%ebx
 80a0e92:	8d 8a 00 7f fc ff    	lea    -0x38100(%edx),%ecx
 80a0e98:	8d 82 30 80 fc ff    	lea    -0x37fd0(%edx),%eax
 80a0e9e:	f6 43 12 10          	testb  $0x10,0x12(%ebx)
 80a0ea2:	5b                   	pop    %ebx
 80a0ea3:	0f 45 c1             	cmovne %ecx,%eax
 80a0ea6:	c3                   	ret    
 80a0eda:	80 38 00             	cmpb   $0x0,(%eax)
 80a0edd:	75 11                	jne    80a0ef0 <__strsep+0x40>
 80a0edf:	c7 06 00 00 00 00    	movl   $0x0,(%esi)
 80a0ee5:	89 f8                	mov    %edi,%eax
 80a0ee7:	5b                   	pop    %ebx
 80a0ee8:	5e                   	pop    %esi
 80a0ee9:	5f                   	pop    %edi
 80a0eea:	c3                   	ret    
 80a0ef0:	c6 00 00             	movb   $0x0,(%eax)
 80a0ef3:	83 c0 01             	add    $0x1,%eax
 80a0ef6:	89 06                	mov    %eax,(%esi)
 80a0ef8:	89 f8                	mov    %edi,%eax
 80a0efa:	5b                   	pop    %ebx
 80a0efb:	5e                   	pop    %esi
 80a0efc:	5f                   	pop    %edi
 80a0efd:	c3                   	ret    
 80a0fb1:	73 f5                	jae    80a0fa8 <__strspn_sse42+0xa8>
 80a0fb3:	8d 04 0a             	lea    (%edx,%ecx,1),%eax
 80a0fb6:	29 d8                	sub    %ebx,%eax
 80a0fb8:	5b                   	pop    %ebx
 80a0fb9:	5e                   	pop    %esi
 80a0fba:	5f                   	pop    %edi
 80a0fbb:	5d                   	pop    %ebp
 80a0fbc:	c3                   	ret    
 80a0fe6:	8d 76 00             	lea    0x0(%esi),%esi
 80a0fe9:	8d bc 27 00 00 00 00 	lea    0x0(%edi,%eiz,1),%edi
 80a0ff0:	5b                   	pop    %ebx
 80a0ff1:	31 c0                	xor    %eax,%eax
 80a0ff3:	5e                   	pop    %esi
 80a0ff4:	5f                   	pop    %edi
 80a0ff5:	5d                   	pop    %ebp
 80a0ff6:	c3                   	ret    
 80a10cd:	84 0c 0c             	test   %cl,(%esp,%ecx,1)
 80a10d0:	75 de                	jne    80a10b0 <__strspn_ia32+0x80>
 80a10d2:	40                   	inc    %eax
 80a10d3:	40                   	inc    %eax
 80a10d4:	40                   	inc    %eax
 80a10d5:	81 c4 00 01 00 00    	add    $0x100,%esp
 80a10db:	29 d0                	sub    %edx,%eax
 80a10dd:	c3                   	ret    
 80a10e6:	8b 4c 24 0c          	mov    0xc(%esp),%ecx
 80a10ea:	8b 54 24 10          	mov    0x10(%esp),%edx
 80a10ee:	8b 5c 24 08          	mov    0x8(%esp),%ebx
 80a10f2:	65 ff 15 10 00 00 00 	call   *%gs:0x10
 80a10f9:	3d 00 f0 ff ff       	cmp    $0xfffff000,%eax
 80a10fe:	77 08                	ja     80a1108 <__getdents64+0x28>
 80a1100:	5b                   	pop    %ebx
 80a1101:	c3                   	ret    
 80a1108:	5b                   	pop    %ebx
 80a1109:	e9 72 f2 fc ff       	jmp    8070380 <__syscall_error>
 80a110e:	66 90                	xchg   %ax,%ax

080a1110 <__getpid>:
 80a1110:	b8 14 00 00 00       	mov    $0x14,%eax
 80a1115:	65 ff 15 10 00 00 00 	call   *%gs:0x10
 80a111c:	c3                   	ret    
 80a1146:	0f ac d0 10          	shrd   $0x10,%edx,%eax
 80a114a:	3b 81 64 1b 00 00    	cmp    0x1b64(%ecx),%eax
 80a1150:	73 0b                	jae    80a115d <__profil_counter+0x3d>
 80a1152:	8b 91 68 1b 00 00    	mov    0x1b68(%ecx),%edx
 80a1158:	66 83 04 42 01       	addw   $0x1,(%edx,%eax,2)
 80a115d:	5b                   	pop    %ebx
 80a115e:	5e                   	pop    %esi
 80a115f:	c3                   	ret    
 80a1298:	8b 8c 24 9c 00 00 00 	mov    0x9c(%esp),%ecx
 80a129f:	65 33 0d 14 00 00 00 	xor    %gs:0x14,%ecx
 80a12a6:	75 67                	jne    80a130f <__profil+0x1af>
 80a12a8:	81 c4 a0 00 00 00    	add    $0xa0,%esp
 80a12ae:	5b                   	pop    %ebx
 80a12af:	5e                   	pop    %esi
 80a12b0:	5f                   	pop    %edi
 80a12b1:	c3                   	ret    
 80a131e:	66 90                	xchg   %ax,%ax

080a1320 <__profile_frequency>:
 80a1320:	e8 03 80 fa ff       	call   8049328 <__x86.get_pc_thunk.ax>
 80a1325:	05 db 7c 03 00       	add    $0x37cdb,%eax
 80a132a:	c7 c0 64 af 0d 08    	mov    $0x80daf64,%eax
 80a1330:	8b 00                	mov    (%eax),%eax
 80a1332:	c3                   	ret    
 80a1434:	75 03                	jne    80a1439 <_dl_fixup+0xf9>
 80a1436:	89 45 00             	mov    %eax,0x0(%ebp)
 80a1439:	83 c4 2c             	add    $0x2c,%esp
 80a143c:	5b                   	pop    %ebx
 80a143d:	5e                   	pop    %esi
 80a143e:	5f                   	pop    %edi
 80a143f:	5d                   	pop    %ebp
 80a1440:	c3                   	ret    
 80a1839:	89 68 04             	mov    %ebp,0x4(%eax)
 80a183c:	83 c4 2c             	add    $0x2c,%esp
 80a183f:	31 c0                	xor    %eax,%eax
 80a1841:	5b                   	pop    %ebx
 80a1842:	5e                   	pop    %esi
 80a1843:	5f                   	pop    %edi
 80a1844:	5d                   	pop    %ebp
 80a1845:	c3                   	ret    
 80a19dd:	85 f6                	test   %esi,%esi
 80a19df:	75 cf                	jne    80a19b0 <_dl_find_dso_for_object+0x30>
 80a19e1:	31 f6                	xor    %esi,%esi
 80a19e3:	89 f0                	mov    %esi,%eax
 80a19e5:	5b                   	pop    %ebx
 80a19e6:	5e                   	pop    %esi
 80a19e7:	5f                   	pop    %edi
 80a19e8:	c3                   	ret    
 80a19f0:	8b 46 18             	mov    0x18(%esi),%eax
 80a19f3:	85 c0                	test   %eax,%eax
 80a19f5:	75 06                	jne    80a19fd <_dl_find_dso_for_object+0x7d>
 80a19f7:	89 f0                	mov    %esi,%eax
 80a19f9:	5b                   	pop    %ebx
 80a19fa:	5e                   	pop    %esi
 80a19fb:	5f                   	pop    %edi
 80a19fc:	c3                   	ret    
 80a1b1b:	83 c4 10             	add    $0x10,%esp
 80a1b1e:	8b 44 24 1c          	mov    0x1c(%esp),%eax
 80a1b22:	83 c4 3c             	add    $0x3c,%esp
 80a1b25:	5b                   	pop    %ebx
 80a1b26:	5e                   	pop    %esi
 80a1b27:	5f                   	pop    %edi
 80a1b28:	5d                   	pop    %ebp
 80a1b29:	c3                   	ret    
 80a2243:	0f 85 57 02 00 00    	jne    80a24a0 <dl_open_worker+0x700>
 80a2249:	8b 65 c0             	mov    -0x40(%ebp),%esp
 80a224c:	8d 65 f4             	lea    -0xc(%ebp),%esp
 80a224f:	5b                   	pop    %ebx
 80a2250:	5e                   	pop    %esi
 80a2251:	5f                   	pop    %edi
 80a2252:	5d                   	pop    %ebp
 80a2253:	c3                   	ret    
 80a2581:	72 ed                	jb     80a2570 <remove_slotinfo+0x60>
 80a2583:	83 c4 1c             	add    $0x1c,%esp
 80a2586:	31 c0                	xor    %eax,%eax
 80a2588:	5b                   	pop    %ebx
 80a2589:	5e                   	pop    %esi
 80a258a:	5f                   	pop    %edi
 80a258b:	5d                   	pop    %ebp
 80a258c:	c3                   	ret    
 80a25c3:	74 84                	je     80a2549 <remove_slotinfo+0x39>
 80a25c5:	83 c4 1c             	add    $0x1c,%esp
 80a25c8:	b8 01 00 00 00       	mov    $0x1,%eax
 80a25cd:	5b                   	pop    %ebx
 80a25ce:	5e                   	pop    %esi
 80a25cf:	5f                   	pop    %edi
 80a25d0:	5d                   	pop    %ebp
 80a25d1:	c3                   	ret    
 80a26a6:	f6 02 40             	testb  $0x40,(%edx)
 80a26a9:	0f 85 f4 09 00 00    	jne    80a30a3 <_dl_close_worker+0xa53>
 80a26af:	8d 65 f4             	lea    -0xc(%ebp),%esp
 80a26b2:	5b                   	pop    %ebx
 80a26b3:	5e                   	pop    %esi
 80a26b4:	5f                   	pop    %edi
 80a26b5:	5d                   	pop    %ebp
 80a26b6:	c3                   	ret    
 80a34ba:	83 ec 0c             	sub    $0xc,%esp
 80a34bd:	ff b3 f0 ff ff ff    	pushl  -0x10(%ebx)
 80a34c3:	e8 38 cb f5 f7       	call   0 <_nl_current_LC_CTYPE>
 80a34c8:	83 c4 10             	add    $0x10,%esp
 80a34cb:	83 c4 04             	add    $0x4,%esp
 80a34ce:	5b                   	pop    %ebx
 80a34cf:	5e                   	pop    %esi
 80a34d0:	c3                   	ret    
 80a352f:	88 45 e3             	mov    %al,-0x1d(%ebp)
 80a3532:	77 08                	ja     80a353c <_dl_sort_maps+0x2c>
 80a3534:	8d 65 f4             	lea    -0xc(%ebp),%esp
 80a3537:	5b                   	pop    %ebx
 80a3538:	5e                   	pop    %esi
 80a3539:	5f                   	pop    %edi
 80a353a:	5d                   	pop    %ebp
 80a353b:	c3                   	ret    
 80a377c:	0f 85 47 ff ff ff    	jne    80a36c9 <_dl_sort_maps+0x1b9>
 80a3782:	8b 65 b8             	mov    -0x48(%ebp),%esp
 80a3785:	8d 65 f4             	lea    -0xc(%ebp),%esp
 80a3788:	5b                   	pop    %ebx
 80a3789:	5e                   	pop    %esi
 80a378a:	5f                   	pop    %edi
 80a378b:	5d                   	pop    %ebp
 80a378c:	c3                   	ret    
 80a379a:	81 c3 66 58 03 00    	add    $0x35866,%ebx
 80a37a0:	39 d6                	cmp    %edx,%esi
 80a37a2:	74 0c                	je     80a37b0 <_dl_tlsdesc_resolve_early_return_p+0x20>
 80a37a4:	5b                   	pop    %ebx
 80a37a5:	b8 01 00 00 00       	mov    $0x1,%eax
 80a37aa:	5e                   	pop    %esi
 80a37ab:	5f                   	pop    %edi
 80a37ac:	c3                   	ret    
 80a37ee:	eb b4                	jmp    80a37a4 <_dl_tlsdesc_resolve_early_return_p+0x14>
 80a37f0:	8d 83 30 4f fc ff    	lea    -0x3b0d0(%ebx),%eax
 80a37f6:	89 07                	mov    %eax,(%edi)
 80a37f8:	31 c0                	xor    %eax,%eax
 80a37fa:	5b                   	pop    %ebx
 80a37fb:	5e                   	pop    %esi
 80a37fc:	5f                   	pop    %edi
 80a37fd:	c3                   	ret    
 80a3856:	e8 a5 c7 f5 f7       	call   0 <_nl_current_LC_CTYPE>
 80a385b:	83 c4 10             	add    $0x10,%esp
 80a385e:	83 c4 0c             	add    $0xc,%esp
 80a3861:	5b                   	pop    %ebx
 80a3862:	5e                   	pop    %esi
 80a3863:	5f                   	pop    %edi
 80a3864:	5d                   	pop    %ebp
 80a3865:	c3                   	ret    
 80a3917:	e8 e4 c6 f5 f7       	call   0 <_nl_current_LC_CTYPE>
 80a391c:	83 c4 10             	add    $0x10,%esp
 80a391f:	83 c4 2c             	add    $0x2c,%esp
 80a3922:	5b                   	pop    %ebx
 80a3923:	5e                   	pop    %esi
 80a3924:	5f                   	pop    %edi
 80a3925:	5d                   	pop    %ebp
 80a3926:	c3                   	ret    
 80a3a66:	e8 95 c5 f5 f7       	call   0 <_nl_current_LC_CTYPE>
 80a3a6b:	83 c4 10             	add    $0x10,%esp
 80a3a6e:	83 c4 2c             	add    $0x2c,%esp
 80a3a71:	5b                   	pop    %ebx
 80a3a72:	5e                   	pop    %esi
 80a3a73:	5f                   	pop    %edi
 80a3a74:	5d                   	pop    %ebp
 80a3a75:	c3                   	ret    
 80a3b2f:	8b 10                	mov    (%eax),%edx
 80a3b31:	8b 44 24 0c          	mov    0xc(%esp),%eax
 80a3b35:	29 c8                	sub    %ecx,%eax
 80a3b37:	39 c2                	cmp    %eax,%edx
 80a3b39:	74 05                	je     80a3b40 <_dl_tlsdesc_resolve_hold_fixup+0x20>
 80a3b3b:	83 c4 08             	add    $0x8,%esp
 80a3b3e:	5b                   	pop    %ebx
 80a3b3f:	c3                   	ret    
 80a3b63:	74 d6                	je     80a3b3b <_dl_tlsdesc_resolve_hold_fixup+0x1b>
 80a3b65:	83 ec 0c             	sub    $0xc,%esp
 80a3b68:	ff b3 f0 ff ff ff    	pushl  -0x10(%ebx)
 80a3b6e:	e8 8d c4 f5 f7       	call   0 <_nl_current_LC_CTYPE>
 80a3b73:	83 c4 10             	add    $0x10,%esp
 80a3b76:	83 c4 08             	add    $0x8,%esp
 80a3b79:	5b                   	pop    %ebx
 80a3b7a:	c3                   	ret    
 80a3b99:	8b 80 b0 01 00 00    	mov    0x1b0(%eax),%eax
 80a3b9f:	29 d0                	sub    %edx,%eax
 80a3ba1:	50                   	push   %eax
 80a3ba2:	52                   	push   %edx
 80a3ba3:	e8 58 90 fc ff       	call   806cc00 <__munmap>
 80a3ba8:	83 c4 18             	add    $0x18,%esp
 80a3bab:	5b                   	pop    %ebx
 80a3bac:	c3                   	ret    
 80a3d73:	83 c4 10             	add    $0x10,%esp
 80a3d76:	83 c4 2c             	add    $0x2c,%esp
 80a3d79:	89 f0                	mov    %esi,%eax
 80a3d7b:	5b                   	pop    %ebx
 80a3d7c:	5e                   	pop    %esi
 80a3d7d:	5f                   	pop    %edi
 80a3d7e:	5d                   	pop    %ebp
 80a3d7f:	c3                   	ret    
 80a3f3a:	2b 71 08             	sub    0x8(%ecx),%esi
 80a3f3d:	3b 71 14             	cmp    0x14(%ecx),%esi
 80a3f40:	73 de                	jae    80a3f20 <_dl_addr_inside_object+0x20>
 80a3f42:	5b                   	pop    %ebx
 80a3f43:	b8 01 00 00 00       	mov    $0x1,%eax
 80a3f48:	5e                   	pop    %esi
 80a3f49:	5f                   	pop    %edi
 80a3f4a:	c3                   	ret    
 80a3f4a:	c3                   	ret    
 80a3f4b:	90                   	nop
 80a3f4c:	8d 74 26 00          	lea    0x0(%esi,%eiz,1),%esi
 80a3f50:	5b                   	pop    %ebx
 80a3f51:	31 c0                	xor    %eax,%eax
 80a3f53:	5e                   	pop    %esi
 80a3f54:	5f                   	pop    %edi
 80a3f55:	c3                   	ret    
 80a3f55:	c3                   	ret    
 80a3f56:	66 90                	xchg   %ax,%ax
 80a3f58:	66 90                	xchg   %ax,%ax
 80a3f5a:	66 90                	xchg   %ax,%ax
 80a3f5c:	66 90                	xchg   %ax,%ax
 80a3f5e:	66 90                	xchg   %ax,%ax
 80a3f60:	03 04 24             	add    (%esp),%eax
 80a3f63:	c3                   	ret    
 80a3ffb:	8d 52 20             	lea    0x20(%edx),%edx
 80a3ffe:	49                   	dec    %ecx
 80a3fff:	75 af                	jne    80a3fb0 <__mpn_add_n+0x40>
 80a4001:	19 c0                	sbb    %eax,%eax
 80a4003:	f7 d8                	neg    %eax
 80a4005:	5e                   	pop    %esi
 80a4006:	5f                   	pop    %edi
 80a4007:	c3                   	ret    
 80a4042:	41                   	inc    %ecx
 80a4043:	75 eb                	jne    80a4030 <__mpn_addmul_1+0x20>
 80a4045:	89 e8                	mov    %ebp,%eax
 80a4047:	5b                   	pop    %ebx
 80a4048:	5d                   	pop    %ebp
 80a4049:	5e                   	pop    %esi
 80a404a:	5f                   	pop    %edi
 80a404b:	c3                   	ret    
 80a409c:	50                   	push   %eax
 80a409d:	52                   	push   %edx
 80a409e:	e8 7d d9 ff ff       	call   80a1a20 <_dl_open>
 80a40a3:	89 46 08             	mov    %eax,0x8(%esi)
 80a40a6:	83 c4 24             	add    $0x24,%esp
 80a40a9:	5b                   	pop    %ebx
 80a40aa:	5e                   	pop    %esi
 80a40ab:	c3                   	ret    
 80a412b:	e8 40 c9 ff ff       	call   80a0a70 <__libc_register_dlfcn_hook>
 80a4130:	8b 44 24 24          	mov    0x24(%esp),%eax
 80a4134:	83 c4 10             	add    $0x10,%esp
 80a4137:	8b 4c 24 1c          	mov    0x1c(%esp),%ecx
 80a413b:	65 33 0d 14 00 00 00 	xor    %gs:0x14,%ecx
 80a4142:	75 10                	jne    80a4154 <__dlopen+0x84>
 80a4144:	83 c4 2c             	add    $0x2c,%esp
 80a4147:	c3                   	ret    
 80a4187:	50                   	push   %eax
 80a4188:	e8 53 c7 ff ff       	call   80a08e0 <_dlerror_run>
 80a418d:	85 c0                	test   %eax,%eax
 80a418f:	0f 95 c0             	setne  %al
 80a4192:	83 c4 1c             	add    $0x1c,%esp
 80a4195:	0f b6 c0             	movzbl %al,%eax
 80a4198:	f7 d8                	neg    %eax
 80a419a:	c3                   	ret    
 80a41b7:	ff 76 04             	pushl  0x4(%esi)
 80a41ba:	ff 36                	pushl  (%esi)
 80a41bc:	e8 9f 1c 00 00       	call   80a5e60 <_dl_sym>
 80a41c1:	89 46 0c             	mov    %eax,0xc(%esi)
 80a41c4:	83 c4 14             	add    $0x14,%esp
 80a41c7:	5b                   	pop    %ebx
 80a41c8:	5e                   	pop    %esi
 80a41c9:	c3                   	ret    
 80a425d:	8b 54 24 1c          	mov    0x1c(%esp),%edx
 80a4261:	65 33 15 14 00 00 00 	xor    %gs:0x14,%edx
 80a4268:	89 f0                	mov    %esi,%eax
 80a426a:	75 06                	jne    80a4272 <__dlsym+0xa2>
 80a426c:	83 c4 24             	add    $0x24,%esp
 80a426f:	5b                   	pop    %ebx
 80a4270:	5e                   	pop    %esi
 80a4271:	c3                   	ret    
 80a429a:	ff 76 04             	pushl  0x4(%esi)
 80a429d:	ff 36                	pushl  (%esi)
 80a429f:	e8 fc 1a 00 00       	call   80a5da0 <_dl_vsym>
 80a42a4:	89 46 10             	mov    %eax,0x10(%esi)
 80a42a7:	83 c4 14             	add    $0x14,%esp
 80a42aa:	5b                   	pop    %ebx
 80a42ab:	5e                   	pop    %esi
 80a42ac:	c3                   	ret    
 80a4345:	8b 54 24 1c          	mov    0x1c(%esp),%edx
 80a4349:	65 33 15 14 00 00 00 	xor    %gs:0x14,%edx
 80a4350:	89 f0                	mov    %esi,%eax
 80a4352:	75 06                	jne    80a435a <__dlvsym+0xaa>
 80a4354:	83 c4 24             	add    $0x24,%esp
 80a4357:	5b                   	pop    %ebx
 80a4358:	5e                   	pop    %esi
 80a4359:	c3                   	ret    
 80a4365:	8b 4c 24 0c          	mov    0xc(%esp),%ecx
 80a4369:	8b 5c 24 08          	mov    0x8(%esp),%ebx
 80a436d:	b8 68 00 00 00       	mov    $0x68,%eax
 80a4372:	65 ff 15 10 00 00 00 	call   *%gs:0x10
 80a4379:	5b                   	pop    %ebx
 80a437a:	3d 01 f0 ff ff       	cmp    $0xfffff001,%eax
 80a437f:	0f 83 fb bf fc ff    	jae    8070380 <__syscall_error>
 80a4385:	c3                   	ret    
 80a43d1:	75 ee                	jne    80a43c1 <_dl_build_local_scope+0x31>
 80a43d3:	89 f0                	mov    %esi,%eax
 80a43d5:	29 f8                	sub    %edi,%eax
 80a43d7:	5b                   	pop    %ebx
 80a43d8:	c1 f8 02             	sar    $0x2,%eax
 80a43db:	5e                   	pop    %esi
 80a43dc:	5f                   	pop    %edi
 80a43dd:	c3                   	ret    
 80a441a:	50                   	push   %eax
 80a441b:	ff 73 10             	pushl  0x10(%ebx)
 80a441e:	52                   	push   %edx
 80a441f:	e8 9c 1b ff ff       	call   8095fc0 <_dl_map_object>
 80a4424:	89 43 14             	mov    %eax,0x14(%ebx)
 80a4427:	83 c4 28             	add    $0x28,%esp
 80a442a:	5b                   	pop    %ebx
 80a442b:	c3                   	ret    
 80a4bac:	85 c0                	test   %eax,%eax
 80a4bae:	0f 85 45 05 00 00    	jne    80a50f9 <_dl_map_object_deps+0xcc9>
 80a4bb4:	8d 65 f4             	lea    -0xc(%ebp),%esp
 80a4bb7:	5b                   	pop    %ebx
 80a4bb8:	5e                   	pop    %esi
 80a4bb9:	5f                   	pop    %edi
 80a4bba:	5d                   	pop    %ebp
 80a4bbb:	c3                   	ret    
 80a5201:	39 dd                	cmp    %ebx,%ebp
 80a5203:	75 eb                	jne    80a51f0 <call_init.part.0+0x90>
 80a5205:	83 c4 1c             	add    $0x1c,%esp
 80a5208:	5b                   	pop    %ebx
 80a5209:	5e                   	pop    %esi
 80a520a:	5f                   	pop    %edi
 80a520b:	5d                   	pop    %ebp
 80a520c:	c3                   	ret    
 80a531b:	90                   	nop
 80a531c:	8d 74 26 00          	lea    0x0(%esi,%eiz,1),%esi
 80a5320:	83 c4 1c             	add    $0x1c,%esp
 80a5323:	5b                   	pop    %ebx
 80a5324:	5e                   	pop    %esi
 80a5325:	5f                   	pop    %edi
 80a5326:	5d                   	pop    %ebp
 80a5327:	c3                   	ret    
 80a565d:	0f 85 bd 00 00 00    	jne    80a5720 <_dl_check_map_versions+0x330>
 80a5663:	83 c4 6c             	add    $0x6c,%esp
 80a5666:	31 c0                	xor    %eax,%eax
 80a5668:	5b                   	pop    %ebx
 80a5669:	5e                   	pop    %esi
 80a566a:	5f                   	pop    %edi
 80a566b:	5d                   	pop    %ebp
 80a566c:	c3                   	ret    
 80a5b2d:	75 d8                	jne    80a5b07 <_dl_check_all_versions+0x27>
 80a5b2f:	83 c4 0c             	add    $0xc,%esp
 80a5b32:	89 f0                	mov    %esi,%eax
 80a5b34:	5b                   	pop    %ebx
 80a5b35:	5e                   	pop    %esi
 80a5b36:	5f                   	pop    %edi
 80a5b37:	5d                   	pop    %ebp
 80a5b38:	c3                   	ret    
 80a5b5a:	ff 73 14             	pushl  0x14(%ebx)
 80a5b5d:	50                   	push   %eax
 80a5b5e:	ff 73 04             	pushl  0x4(%ebx)
 80a5b61:	e8 1a 1c ff ff       	call   8097780 <_dl_lookup_symbol_x>
 80a5b66:	89 03                	mov    %eax,(%ebx)
 80a5b68:	83 c4 28             	add    $0x28,%esp
 80a5b6b:	5b                   	pop    %ebx
 80a5b6c:	c3                   	ret    
 80a5c18:	65 33 3d 14 00 00 00 	xor    %gs:0x14,%edi
 80a5c1f:	0f 85 76 01 00 00    	jne    80a5d9b <do_sym+0x22b>
 80a5c25:	83 c4 4c             	add    $0x4c,%esp
 80a5c28:	5b                   	pop    %ebx
 80a5c29:	5e                   	pop    %esi
 80a5c2a:	5f                   	pop    %edi
 80a5c2b:	5d                   	pop    %ebp
 80a5c2c:	c3                   	ret    
 80a5e3e:	e8 2d fd ff ff       	call   80a5b70 <do_sym>
 80a5e43:	83 c4 10             	add    $0x10,%esp
 80a5e46:	8b 4c 24 1c          	mov    0x1c(%esp),%ecx
 80a5e4a:	65 33 0d 14 00 00 00 	xor    %gs:0x14,%ecx
 80a5e51:	75 05                	jne    80a5e58 <_dl_vsym+0xb8>
 80a5e53:	83 c4 28             	add    $0x28,%esp
 80a5e56:	5b                   	pop    %ebx
 80a5e57:	c3                   	ret    
 80a5ed0:	f7 f1                	div    %ecx
 80a5ed2:	89 fa                	mov    %edi,%edx
 80a5ed4:	83 c4 1c             	add    $0x1c,%esp
 80a5ed7:	5b                   	pop    %ebx
 80a5ed8:	5e                   	pop    %esi
 80a5ed9:	5f                   	pop    %edi
 80a5eda:	5d                   	pop    %ebp
 80a5edb:	c3                   	ret    
 80a5f4a:	31 ff                	xor    %edi,%edi
 80a5f4c:	89 fa                	mov    %edi,%edx
 80a5f4e:	83 c4 1c             	add    $0x1c,%esp
 80a5f51:	5b                   	pop    %ebx
 80a5f52:	5e                   	pop    %esi
 80a5f53:	5f                   	pop    %edi
 80a5f54:	5d                   	pop    %ebp
 80a5f55:	c3                   	ret    
 80a5f62:	31 c0                	xor    %eax,%eax
 80a5f64:	89 fa                	mov    %edi,%edx
 80a5f66:	83 c4 1c             	add    $0x1c,%esp
 80a5f69:	5b                   	pop    %ebx
 80a5f6a:	5e                   	pop    %esi
 80a5f6b:	5f                   	pop    %edi
 80a5f6c:	5d                   	pop    %ebp
 80a5f6d:	c3                   	ret    
 80a5f76:	f7 f3                	div    %ebx
 80a5f78:	89 fa                	mov    %edi,%edx
 80a5f7a:	83 c4 1c             	add    $0x1c,%esp
 80a5f7d:	5b                   	pop    %ebx
 80a5f7e:	5e                   	pop    %esi
 80a5f7f:	5f                   	pop    %edi
 80a5f80:	5d                   	pop    %ebp
 80a5f81:	c3                   	ret    
 80a60b1:	85 c9                	test   %ecx,%ecx
 80a60b3:	0f 85 3f 01 00 00    	jne    80a61f8 <__letf2+0x248>
 80a60b9:	83 c4 5c             	add    $0x5c,%esp
 80a60bc:	5b                   	pop    %ebx
 80a60bd:	5e                   	pop    %esi
 80a60be:	5f                   	pop    %edi
 80a60bf:	5d                   	pop    %ebp
 80a60c0:	c3                   	ret    
 80a6209:	83 c4 10             	add    $0x10,%esp
 80a620c:	8b 44 24 08          	mov    0x8(%esp),%eax
 80a6210:	83 c4 5c             	add    $0x5c,%esp
 80a6213:	5b                   	pop    %ebx
 80a6214:	5e                   	pop    %esi
 80a6215:	5f                   	pop    %edi
 80a6216:	5d                   	pop    %ebp
 80a6217:	c3                   	ret    
 80a6392:	83 c4 10             	add    $0x10,%esp
 80a6395:	8b 44 24 04          	mov    0x4(%esp),%eax
 80a6399:	83 c4 4c             	add    $0x4c,%esp
 80a639c:	5b                   	pop    %ebx
 80a639d:	5e                   	pop    %esi
 80a639e:	5f                   	pop    %edi
 80a639f:	5d                   	pop    %ebp
 80a63a0:	c3                   	ret    
 80a63f6:	85 ff                	test   %edi,%edi
 80a63f8:	75 87                	jne    80a6381 <__unordtf2+0xb1>
 80a63fa:	83 c4 4c             	add    $0x4c,%esp
 80a63fd:	5b                   	pop    %ebx
 80a63fe:	5e                   	pop    %esi
 80a63ff:	5f                   	pop    %edi
 80a6400:	5d                   	pop    %ebp
 80a6401:	c3                   	ret    
 80a6412:	74 5e                	je     80a6472 <__unordtf2+0x1a2>
 80a6414:	83 c4 4c             	add    $0x4c,%esp
 80a6417:	31 c0                	xor    %eax,%eax
 80a6419:	5b                   	pop    %ebx
 80a641a:	5e                   	pop    %esi
 80a641b:	5f                   	pop    %edi
 80a641c:	5d                   	pop    %ebp
 80a641d:	c3                   	ret    
 80a6530:	74 10                	je     80a6542 <__sfp_handle_exceptions+0x72>
 80a6532:	c7 44 24 04 00 00 40 	movl   $0x40400000,0x4(%esp)
 80a6539:	40 
 80a653a:	d9 e8                	fld1   
 80a653c:	d8 74 24 04          	fdivs  0x4(%esp)
 80a6540:	dd d8                	fstp   %st(0)
 80a6542:	83 c4 20             	add    $0x20,%esp
 80a6545:	c3                   	ret    
 80a65b0:	89 18                	mov    %ebx,(%eax)
 80a65b2:	83 c4 1c             	add    $0x1c,%esp
 80a65b5:	89 d0                	mov    %edx,%eax
 80a65b7:	5b                   	pop    %ebx
 80a65b8:	5e                   	pop    %esi
 80a65b9:	5f                   	pop    %edi
 80a65ba:	5d                   	pop    %ebp
 80a65bb:	c3                   	ret    
 80a65cf:	89 18                	mov    %ebx,(%eax)
 80a65d1:	83 c4 1c             	add    $0x1c,%esp
 80a65d4:	89 d0                	mov    %edx,%eax
 80a65d6:	5b                   	pop    %ebx
 80a65d7:	5e                   	pop    %esi
 80a65d8:	5f                   	pop    %edi
 80a65d9:	5d                   	pop    %ebp
 80a65da:	c3                   	ret    
 80a66c0:	3c 50                	cmp    $0x50,%al
 80a66c2:	74 14                	je     80a66d8 <base_of_encoded_value+0x38>
 80a66c4:	3c 30                	cmp    $0x30,%al
 80a66c6:	75 30                	jne    80a66f8 <base_of_encoded_value+0x58>
 80a66c8:	8b 42 58             	mov    0x58(%edx),%eax
 80a66cb:	83 c4 08             	add    $0x8,%esp
 80a66ce:	5b                   	pop    %ebx
 80a66cf:	c3                   	ret    
 80a66d0:	84 c0                	test   %al,%al
 80a66d2:	74 04                	je     80a66d8 <base_of_encoded_value+0x38>
 80a66d4:	3c 10                	cmp    $0x10,%al
 80a66d6:	75 20                	jne    80a66f8 <base_of_encoded_value+0x58>
 80a66d8:	83 c4 08             	add    $0x8,%esp
 80a66db:	31 c0                	xor    %eax,%eax
 80a66dd:	5b                   	pop    %ebx
 80a66de:	c3                   	ret    
 80a66db:	31 c0                	xor    %eax,%eax
 80a66dd:	5b                   	pop    %ebx
 80a66de:	c3                   	ret    
 80a66df:	90                   	nop
 80a66e0:	8b 42 5c             	mov    0x5c(%edx),%eax
 80a66e3:	83 c4 08             	add    $0x8,%esp
 80a66e6:	5b                   	pop    %ebx
 80a66e7:	c3                   	ret    
 80a66e6:	5b                   	pop    %ebx
 80a66e7:	c3                   	ret    
 80a66e8:	90                   	nop
 80a66e9:	8d b4 26 00 00 00 00 	lea    0x0(%esi,%eiz,1),%esi
 80a66f0:	8b 42 54             	mov    0x54(%edx),%eax
 80a66f3:	83 c4 08             	add    $0x8,%esp
 80a66f6:	5b                   	pop    %ebx
 80a66f7:	c3                   	ret    
 80a67c4:	39 c2                	cmp    %eax,%edx
 80a67c6:	72 98                	jb     80a6760 <execute_cfa_program+0x60>
 80a67c8:	8d 65 f4             	lea    -0xc(%ebp),%esp
 80a67cb:	5b                   	pop    %ebx
 80a67cc:	5e                   	pop    %esi
 80a67cd:	5f                   	pop    %edi
 80a67ce:	5d                   	pop    %ebp
 80a67cf:	c3                   	ret    
 80a6fb9:	c6 80 80 1b 00 00 0c 	movb   $0xc,0x1b80(%eax)
 80a6fc0:	c6 80 81 1b 00 00 0c 	movb   $0xc,0x1b81(%eax)
 80a6fc7:	c6 80 82 1b 00 00 0c 	movb   $0xc,0x1b82(%eax)
 80a6fce:	c6 80 83 1b 00 00 0c 	movb   $0xc,0x1b83(%eax)
 80a6fd5:	c6 80 84 1b 00 00 0c 	movb   $0xc,0x1b84(%eax)
 80a6fdc:	c6 80 7d 1b 00 00 04 	movb   $0x4,0x1b7d(%eax)
 80a6fe3:	c6 80 7c 1b 00 00 04 	movb   $0x4,0x1b7c(%eax)
 80a6fea:	c3                   	ret    
 80a720c:	8d 74 26 00          	lea    0x0(%esi,%eiz,1),%esi
 80a7210:	b8 05 00 00 00       	mov    $0x5,%eax
 80a7215:	83 c4 3c             	add    $0x3c,%esp
 80a7218:	5b                   	pop    %ebx
 80a7219:	5e                   	pop    %esi
 80a721a:	5f                   	pop    %edi
 80a721b:	5d                   	pop    %ebp
 80a721c:	c3                   	ret    
 80a7357:	83 c4 10             	add    $0x10,%esp
 80a735a:	31 c0                	xor    %eax,%eax
 80a735c:	83 c4 3c             	add    $0x3c,%esp
 80a735f:	5b                   	pop    %ebx
 80a7360:	5e                   	pop    %esi
 80a7361:	5f                   	pop    %edi
 80a7362:	5d                   	pop    %ebp
 80a7363:	c3                   	ret    
 80a736c:	75 52                	jne    80a73c0 <uw_frame_state_for+0x3d0>
 80a736e:	83 c4 3c             	add    $0x3c,%esp
 80a7371:	b8 03 00 00 00       	mov    $0x3,%eax
 80a7376:	5b                   	pop    %ebx
 80a7377:	5e                   	pop    %esi
 80a7378:	5f                   	pop    %edi
 80a7379:	5d                   	pop    %ebp
 80a737a:	c3                   	ret    
 80a7610:	0f 84 a5 00 00 00    	je     80a76bb <.L266>
 80a7616:	8b 44 84 2c          	mov    0x2c(%esp,%eax,4),%eax
 80a761a:	81 c4 3c 01 00 00    	add    $0x13c,%esp
 80a7620:	5b                   	pop    %ebx
 80a7621:	5e                   	pop    %esi
 80a7622:	5f                   	pop    %edi
 80a7623:	5d                   	pop    %ebp
 80a7624:	c3                   	ret    
 80a7d81:	80 38 b8             	cmpb   $0xb8,(%eax)
 80a7d84:	0f 84 f8 01 00 00    	je     80a7f82 <.L415+0xf2>
 80a7d8a:	81 c4 ac 00 00 00    	add    $0xac,%esp
 80a7d90:	5b                   	pop    %ebx
 80a7d91:	5e                   	pop    %esi
 80a7d92:	5f                   	pop    %edi
 80a7d93:	5d                   	pop    %ebp
 80a7d94:	c3                   	ret    
 80a80aa:	8b 44 24 0c          	mov    0xc(%esp),%eax
 80a80ae:	89 46 4c             	mov    %eax,0x4c(%esi)
 80a80b1:	81 c4 ec 00 00 00    	add    $0xec,%esp
 80a80b7:	5b                   	pop    %ebx
 80a80b8:	5e                   	pop    %esi
 80a80b9:	5f                   	pop    %edi
 80a80ba:	5d                   	pop    %ebp
 80a80bb:	c3                   	ret    
 80a8179:	04 
 80a817a:	75 27                	jne    80a81a3 <uw_update_context+0x63>
 80a817c:	8b 02                	mov    (%edx),%eax
 80a817e:	5b                   	pop    %ebx
 80a817f:	89 46 4c             	mov    %eax,0x4c(%esi)
 80a8182:	5e                   	pop    %esi
 80a8183:	5f                   	pop    %edi
 80a8184:	c3                   	ret    
 80a8191:	eb eb                	jmp    80a817e <uw_update_context+0x3e>
 80a8193:	90                   	nop
 80a8194:	8d 74 26 00          	lea    0x0(%esi,%eiz,1),%esi
 80a8198:	5b                   	pop    %ebx
 80a8199:	c7 46 4c 00 00 00 00 	movl   $0x0,0x4c(%esi)
 80a81a0:	5e                   	pop    %esi
 80a81a1:	5f                   	pop    %edi
 80a81a2:	c3                   	ret    
 80a8232:	74 a4                	je     80a81d8 <_Unwind_RaiseException_Phase2+0x28>
 80a8234:	b8 02 00 00 00       	mov    $0x2,%eax
 80a8239:	81 c4 dc 00 00 00    	add    $0xdc,%esp
 80a823f:	5b                   	pop    %ebx
 80a8240:	5e                   	pop    %esi
 80a8241:	5f                   	pop    %edi
 80a8242:	5d                   	pop    %ebp
 80a8243:	c3                   	ret    
 80a8301:	bd 02 00 00 00       	mov    $0x2,%ebp
 80a8306:	81 c4 dc 00 00 00    	add    $0xdc,%esp
 80a830c:	89 e8                	mov    %ebp,%eax
 80a830e:	5b                   	pop    %ebx
 80a830f:	5e                   	pop    %esi
 80a8310:	5f                   	pop    %edi
 80a8311:	5d                   	pop    %ebp
 80a8312:	c3                   	ret    
 80a8473:	85 c9                	test   %ecx,%ecx
 80a8475:	74 19                	je     80a8490 <uw_install_context_1+0x170>
 80a8477:	83 c4 2c             	add    $0x2c,%esp
 80a847a:	5b                   	pop    %ebx
 80a847b:	5e                   	pop    %esi
 80a847c:	5f                   	pop    %edi
 80a847d:	5d                   	pop    %ebp
 80a847e:	c3                   	ret    
 80a8480:	80 7b 70 00          	cmpb   $0x0,0x70(%ebx)
 80a8484:	74 ea                	je     80a8470 <uw_install_context_1+0x150>
 80a8486:	83 c4 2c             	add    $0x2c,%esp
 80a8489:	5b                   	pop    %ebx
 80a848a:	5e                   	pop    %esi
 80a848b:	5f                   	pop    %edi
 80a848c:	5d                   	pop    %ebp
 80a848d:	c3                   	ret    
 80a84ae:	2b 43 48             	sub    0x48(%ebx),%eax
 80a84b1:	03 42 68             	add    0x68(%edx),%eax
 80a84b4:	83 c4 2c             	add    $0x2c,%esp
 80a84b7:	5b                   	pop    %ebx
 80a84b8:	5e                   	pop    %esi
 80a84b9:	5f                   	pop    %edi
 80a84ba:	5d                   	pop    %ebp
 80a84bb:	c3                   	ret    
 80a84f3:	75 1b                	jne    80a8510 <_Unwind_GetGR+0x40>
 80a84f5:	80 bc 13 74 1b 00 00 	cmpb   $0x4,0x1b74(%ebx,%edx,1)
 80a84fc:	04 
 80a84fd:	75 1d                	jne    80a851c <_Unwind_GetGR+0x4c>
 80a84ff:	8b 00                	mov    (%eax),%eax
 80a8501:	83 c4 08             	add    $0x8,%esp
 80a8504:	5b                   	pop    %ebx
 80a8505:	c3                   	ret    
 80a8505:	c3                   	ret    
 80a8506:	8d 76 00             	lea    0x0(%esi),%esi
 80a8509:	8d bc 27 00 00 00 00 	lea    0x0(%edi,%eiz,1),%edi
 80a8510:	80 7c 11 6c 00       	cmpb   $0x0,0x6c(%ecx,%edx,1)
 80a8515:	74 de                	je     80a84f5 <_Unwind_GetGR+0x25>
 80a8517:	83 c4 08             	add    $0x8,%esp
 80a851a:	5b                   	pop    %ebx
 80a851b:	c3                   	ret    
 80a852d:	90                   	nop
 80a852e:	90                   	nop
 80a852f:	90                   	nop

080a8530 <_Unwind_GetCFA>:
 80a8530:	8b 44 24 04          	mov    0x4(%esp),%eax
 80a8534:	8b 40 48             	mov    0x48(%eax),%eax
 80a8537:	c3                   	ret    
 80a8569:	04 
 80a856a:	8b 14 82             	mov    (%edx,%eax,4),%edx
 80a856d:	75 24                	jne    80a8593 <_Unwind_SetGR+0x53>
 80a856f:	8b 44 24 18          	mov    0x18(%esp),%eax
 80a8573:	89 02                	mov    %eax,(%edx)
 80a8575:	83 c4 08             	add    $0x8,%esp
 80a8578:	5b                   	pop    %ebx
 80a8579:	c3                   	ret    
 80a857a:	8d b6 00 00 00 00    	lea    0x0(%esi),%esi
 80a8580:	80 7c 02 6c 00       	cmpb   $0x0,0x6c(%edx,%eax,1)
 80a8585:	74 db                	je     80a8562 <_Unwind_SetGR+0x22>
 80a8587:	8b 4c 24 18          	mov    0x18(%esp),%ecx
 80a858b:	89 0c 82             	mov    %ecx,(%edx,%eax,4)
 80a858e:	83 c4 08             	add    $0x8,%esp
 80a8591:	5b                   	pop    %ebx
 80a8592:	c3                   	ret    
 80a8593:	e8 a8 5d fa ff       	call   804e340 <abort>
 80a8598:	90                   	nop
 80a8599:	8d b4 26 00 00 00 00 	lea    0x0(%esi,%eiz,1),%esi

080a85a0 <_Unwind_GetIP>:
 80a85a0:	8b 44 24 04          	mov    0x4(%esp),%eax
 80a85a4:	8b 40 4c             	mov    0x4c(%eax),%eax
 80a85a7:	c3                   	ret    
080a85b0 <_Unwind_GetIPInfo>:
 80a85b0:	8b 54 24 04          	mov    0x4(%esp),%edx
 80a85b4:	8b 4c 24 08          	mov    0x8(%esp),%ecx
 80a85b8:	8b 42 60             	mov    0x60(%edx),%eax
 80a85bb:	c1 e8 1f             	shr    $0x1f,%eax
 80a85be:	89 01                	mov    %eax,(%ecx)
 80a85c0:	8b 42 4c             	mov    0x4c(%edx),%eax
 80a85c3:	c3                   	ret    
 80a85c4:	8d b6 00 00 00 00    	lea    0x0(%esi),%esi
 80a85ca:	8d bf 00 00 00 00    	lea    0x0(%edi),%edi

080a85d0 <_Unwind_SetIP>:
 80a85d0:	8b 44 24 04          	mov    0x4(%esp),%eax
 80a85d4:	8b 54 24 08          	mov    0x8(%esp),%edx
 80a85d8:	89 50 4c             	mov    %edx,0x4c(%eax)
 80a85db:	c3                   	ret    
 80a85d8:	89 50 4c             	mov    %edx,0x4c(%eax)
 80a85db:	c3                   	ret    
 80a85dc:	8d 74 26 00          	lea    0x0(%esi,%eiz,1),%esi

080a85e0 <_Unwind_GetLanguageSpecificData>:
 80a85e0:	8b 44 24 04          	mov    0x4(%esp),%eax
 80a85e4:	8b 40 50             	mov    0x50(%eax),%eax
 80a85e7:	c3                   	ret    
 80a85e7:	c3                   	ret    
 80a85e8:	90                   	nop
 80a85e9:	8d b4 26 00 00 00 00 	lea    0x0(%esi,%eiz,1),%esi

080a85f0 <_Unwind_GetRegionStart>:
 80a85f0:	8b 44 24 04          	mov    0x4(%esp),%eax
 80a85f4:	8b 40 5c             	mov    0x5c(%eax),%eax
 80a85f7:	c3                   	ret    
 80a861b:	50                   	push   %eax
 80a861c:	e8 bf 20 00 00       	call   80aa6e0 <_Unwind_Find_FDE>
 80a8621:	85 c0                	test   %eax,%eax
 80a8623:	b8 00 00 00 00       	mov    $0x0,%eax
 80a8628:	0f 45 44 24 1c       	cmovne 0x1c(%esp),%eax
 80a862d:	83 c4 28             	add    $0x28,%esp
 80a8630:	5b                   	pop    %ebx
 80a8631:	c3                   	ret    
 80a8631:	c3                   	ret    
 80a8632:	8d b4 26 00 00 00 00 	lea    0x0(%esi,%eiz,1),%esi
 80a8639:	8d bc 27 00 00 00 00 	lea    0x0(%edi,%eiz,1),%edi

080a8640 <_Unwind_GetDataRelBase>:
 80a8640:	8b 44 24 04          	mov    0x4(%esp),%eax
 80a8644:	8b 40 58             	mov    0x58(%eax),%eax
 80a8647:	c3                   	ret    
 80a8647:	c3                   	ret    
 80a8648:	90                   	nop
 80a8649:	8d b4 26 00 00 00 00 	lea    0x0(%esi,%eiz,1),%esi

080a8650 <_Unwind_GetTextRelBase>:
 80a8650:	8b 44 24 04          	mov    0x4(%esp),%eax
 80a8654:	8b 40 54             	mov    0x54(%eax),%eax
 80a8657:	c3                   	ret    
 80a871f:	89 43 04             	mov    %eax,0x4(%ebx)
 80a8722:	81 c4 4c 01 00 00    	add    $0x14c,%esp
 80a8728:	89 d8                	mov    %ebx,%eax
 80a872a:	5b                   	pop    %ebx
 80a872b:	5e                   	pop    %esi
 80a872c:	5f                   	pop    %edi
 80a872d:	5d                   	pop    %ebp
 80a872e:	c3                   	ret    
 80a872e:	c3                   	ret    
 80a872f:	81 c4 4c 01 00 00    	add    $0x14c,%esp
 80a8735:	31 c0                	xor    %eax,%eax
 80a8737:	5b                   	pop    %ebx
 80a8738:	5e                   	pop    %esi
 80a8739:	5f                   	pop    %edi
 80a873a:	5d                   	pop    %ebp
 80a873b:	c3                   	ret    
 80a8738:	5e                   	pop    %esi
 80a8739:	5f                   	pop    %edi
 80a873a:	5d                   	pop    %ebp
 80a873b:	c3                   	ret    
 80a873c:	8d 74 26 00          	lea    0x0(%esi,%eiz,1),%esi

080a8740 <_Unwind_DebugHook>:
 80a8740:	c3                   	ret    
 80a87ca:	e8 21 e8 ff ff       	call   80a6ff0 <uw_frame_state_for>
 80a87cf:	83 f8 05             	cmp    $0x5,%eax
 80a87d2:	75 bc                	jne    80a8790 <_Unwind_RaiseException+0x40>
 80a87d4:	8b 5d f4             	mov    -0xc(%ebp),%ebx
 80a87d7:	8b 75 f8             	mov    -0x8(%ebp),%esi
 80a87da:	8b 7d fc             	mov    -0x4(%ebp),%edi
 80a87dd:	c9                   	leave  
 80a87de:	c3                   	ret    
 80a87de:	c3                   	ret    
 80a87df:	90                   	nop
 80a87e0:	b8 03 00 00 00       	mov    $0x3,%eax
 80a87e5:	8b 5d f4             	mov    -0xc(%ebp),%ebx
 80a87e8:	8b 75 f8             	mov    -0x8(%ebp),%esi
 80a87eb:	8b 7d fc             	mov    -0x4(%ebp),%edi
 80a87ee:	c9                   	leave  
 80a87ef:	c3                   	ret    
 80a8861:	8b 45 ec             	mov    -0x14(%ebp),%eax
 80a8864:	8b 55 f0             	mov    -0x10(%ebp),%edx
 80a8867:	8b 5d f4             	mov    -0xc(%ebp),%ebx
 80a886a:	8b 75 f8             	mov    -0x8(%ebp),%esi
 80a886d:	8b 7d fc             	mov    -0x4(%ebp),%edi
 80a8870:	8b 6d 00             	mov    0x0(%ebp),%ebp
 80a8873:	89 cc                	mov    %ecx,%esp
 80a8875:	c3                   	ret    
 80a88c9:	e8 82 f9 ff ff       	call   80a8250 <_Unwind_ForcedUnwind_Phase2>
 80a88ce:	83 f8 07             	cmp    $0x7,%eax
 80a88d1:	74 0b                	je     80a88de <_Unwind_ForcedUnwind+0x5e>
 80a88d3:	8b 5d f4             	mov    -0xc(%ebp),%ebx
 80a88d6:	8b 75 f8             	mov    -0x8(%ebp),%esi
 80a88d9:	8b 7d fc             	mov    -0x4(%ebp),%edi
 80a88dc:	c9                   	leave  
 80a88dd:	c3                   	ret    
 80a8904:	8b 45 ec             	mov    -0x14(%ebp),%eax
 80a8907:	8b 55 f0             	mov    -0x10(%ebp),%edx
 80a890a:	8b 5d f4             	mov    -0xc(%ebp),%ebx
 80a890d:	8b 75 f8             	mov    -0x8(%ebp),%esi
 80a8910:	8b 7d fc             	mov    -0x4(%ebp),%edi
 80a8913:	8b 6d 00             	mov    0x0(%ebp),%ebp
 80a8916:	89 cc                	mov    %ecx,%esp
 80a8918:	c3                   	ret    
 80a89b9:	8b 45 ec             	mov    -0x14(%ebp),%eax
 80a89bc:	8b 55 f0             	mov    -0x10(%ebp),%edx
 80a89bf:	8b 5d f4             	mov    -0xc(%ebp),%ebx
 80a89c2:	8b 75 f8             	mov    -0x8(%ebp),%esi
 80a89c5:	8b 7d fc             	mov    -0x4(%ebp),%edi
 80a89c8:	8b 6d 00             	mov    0x0(%ebp),%ebp
 80a89cb:	89 cc                	mov    %ecx,%esp
 80a89cd:	c3                   	ret    
 80a8a3b:	ff 75 08             	pushl  0x8(%ebp)
 80a8a3e:	e8 0d fd ff ff       	call   80a8750 <_Unwind_RaiseException>
 80a8a43:	83 c4 10             	add    $0x10,%esp
 80a8a46:	8b 5d f4             	mov    -0xc(%ebp),%ebx
 80a8a49:	8b 75 f8             	mov    -0x8(%ebp),%esi
 80a8a4c:	8b 7d fc             	mov    -0x4(%ebp),%edi
 80a8a4f:	c9                   	leave  
 80a8a50:	c3                   	ret    
 80a8a81:	8b 45 ec             	mov    -0x14(%ebp),%eax
 80a8a84:	8b 55 f0             	mov    -0x10(%ebp),%edx
 80a8a87:	8b 5d f4             	mov    -0xc(%ebp),%ebx
 80a8a8a:	8b 75 f8             	mov    -0x8(%ebp),%esi
 80a8a8d:	8b 7d fc             	mov    -0x4(%ebp),%edi
 80a8a90:	8b 6d 00             	mov    0x0(%ebp),%ebp
 80a8a93:	89 cc                	mov    %ecx,%esp
 80a8a95:	c3                   	ret    
 80a8aac:	74 0b                	je     80a8ab9 <_Unwind_DeleteException+0x19>
 80a8aae:	83 ec 08             	sub    $0x8,%esp
 80a8ab1:	52                   	push   %edx
 80a8ab2:	6a 01                	push   $0x1
 80a8ab4:	ff d0                	call   *%eax
 80a8ab6:	83 c4 10             	add    $0x10,%esp
 80a8ab9:	83 c4 0c             	add    $0xc,%esp
 80a8abc:	c3                   	ret    
 80a8b23:	bf 03 00 00 00       	mov    $0x3,%edi
 80a8b28:	8d 65 f4             	lea    -0xc(%ebp),%esp
 80a8b2b:	89 f8                	mov    %edi,%eax
 80a8b2d:	5b                   	pop    %ebx
 80a8b2e:	5e                   	pop    %esi
 80a8b2f:	5f                   	pop    %edi
 80a8b30:	5d                   	pop    %ebp
 80a8b31:	c3                   	ret    
 80a8c00:	eb 8a                	jmp    80a8b8c <frame_downheap+0x2c>
 80a8c02:	8d b6 00 00 00 00    	lea    0x0(%esi),%esi
 80a8c08:	83 c4 1c             	add    $0x1c,%esp
 80a8c0b:	5b                   	pop    %ebx
 80a8c0c:	5e                   	pop    %esi
 80a8c0d:	5f                   	pop    %edi
 80a8c0e:	5d                   	pop    %ebp
 80a8c0f:	c3                   	ret    
 80a8ca2:	83 eb 01             	sub    $0x1,%ebx
 80a8ca5:	75 d9                	jne    80a8c80 <frame_heapsort+0x60>
 80a8ca7:	83 c4 1c             	add    $0x1c,%esp
 80a8caa:	5b                   	pop    %ebx
 80a8cab:	5e                   	pop    %esi
 80a8cac:	5f                   	pop    %edi
 80a8cad:	5d                   	pop    %ebp
 80a8cae:	c3                   	ret    
 80a8d10:	89 18                	mov    %ebx,(%eax)
 80a8d12:	83 c4 1c             	add    $0x1c,%esp
 80a8d15:	89 d0                	mov    %edx,%eax
 80a8d17:	5b                   	pop    %ebx
 80a8d18:	5e                   	pop    %esi
 80a8d19:	5f                   	pop    %edi
 80a8d1a:	5d                   	pop    %ebp
 80a8d1b:	c3                   	ret    
 80a8d2f:	89 18                	mov    %ebx,(%eax)
 80a8d31:	83 c4 1c             	add    $0x1c,%esp
 80a8d34:	89 d0                	mov    %edx,%eax
 80a8d36:	5b                   	pop    %ebx
 80a8d37:	5e                   	pop    %esi
 80a8d38:	5f                   	pop    %edi
 80a8d39:	5d                   	pop    %ebp
 80a8d3a:	c3                   	ret    
 80a8e30:	80 7e 09 7a          	cmpb   $0x7a,0x9(%esi)
 80a8e34:	74 0a                	je     80a8e40 <get_cie_encoding+0x40>
 80a8e36:	31 c0                	xor    %eax,%eax
 80a8e38:	83 c4 10             	add    $0x10,%esp
 80a8e3b:	5b                   	pop    %ebx
 80a8e3c:	5e                   	pop    %esi
 80a8e3d:	5f                   	pop    %edi
 80a8e3e:	c3                   	ret    
 80a8ed5:	80 fa 52             	cmp    $0x52,%dl
 80a8ed8:	75 d9                	jne    80a8eb3 <get_cie_encoding+0xb3>
 80a8eda:	0f b6 00             	movzbl (%eax),%eax
 80a8edd:	83 c4 10             	add    $0x10,%esp
 80a8ee0:	5b                   	pop    %ebx
 80a8ee1:	5e                   	pop    %esi
 80a8ee2:	5f                   	pop    %edi
 80a8ee3:	c3                   	ret    
 80a8f28:	3c 03                	cmp    $0x3,%al
 80a8f2a:	74 18                	je     80a8f44 <size_of_encoded_value.part.3+0x34>
 80a8f2c:	3c 04                	cmp    $0x4,%al
 80a8f2e:	75 2a                	jne    80a8f5a <size_of_encoded_value.part.3+0x4a>
 80a8f30:	83 c4 08             	add    $0x8,%esp
 80a8f33:	b8 08 00 00 00       	mov    $0x8,%eax
 80a8f38:	5b                   	pop    %ebx
 80a8f39:	c3                   	ret    
 80a8f39:	c3                   	ret    
 80a8f3a:	8d b6 00 00 00 00    	lea    0x0(%esi),%esi
 80a8f40:	84 c0                	test   %al,%al
 80a8f42:	75 16                	jne    80a8f5a <size_of_encoded_value.part.3+0x4a>
 80a8f44:	83 c4 08             	add    $0x8,%esp
 80a8f47:	b8 04 00 00 00       	mov    $0x4,%eax
 80a8f4c:	5b                   	pop    %ebx
 80a8f4d:	c3                   	ret    
 80a8f47:	b8 04 00 00 00       	mov    $0x4,%eax
 80a8f4c:	5b                   	pop    %ebx
 80a8f4d:	c3                   	ret    
 80a8f4e:	66 90                	xchg   %ax,%ax
 80a8f50:	83 c4 08             	add    $0x8,%esp
 80a8f53:	b8 02 00 00 00       	mov    $0x2,%eax
 80a8f58:	5b                   	pop    %ebx
 80a8f59:	c3                   	ret    
 80a8f74:	74 2a                	je     80a8fa0 <base_from_object.part.4+0x40>
 80a8f76:	76 10                	jbe    80a8f88 <base_from_object.part.4+0x28>
 80a8f78:	3c 30                	cmp    $0x30,%al
 80a8f7a:	75 34                	jne    80a8fb0 <base_from_object.part.4+0x50>
 80a8f7c:	8b 42 08             	mov    0x8(%edx),%eax
 80a8f7f:	83 c4 08             	add    $0x8,%esp
 80a8f82:	5b                   	pop    %ebx
 80a8f83:	c3                   	ret    
 80a8f88:	84 c0                	test   %al,%al
 80a8f8a:	74 04                	je     80a8f90 <base_from_object.part.4+0x30>
 80a8f8c:	3c 10                	cmp    $0x10,%al
 80a8f8e:	75 24                	jne    80a8fb4 <base_from_object.part.4+0x54>
 80a8f90:	83 c4 08             	add    $0x8,%esp
 80a8f93:	31 c0                	xor    %eax,%eax
 80a8f95:	5b                   	pop    %ebx
 80a8f96:	c3                   	ret    
 80a8f95:	5b                   	pop    %ebx
 80a8f96:	c3                   	ret    
 80a8f97:	89 f6                	mov    %esi,%esi
 80a8f99:	8d bc 27 00 00 00 00 	lea    0x0(%edi,%eiz,1),%edi
 80a8fa0:	8b 42 04             	mov    0x4(%edx),%eax
 80a8fa3:	83 c4 08             	add    $0x8,%esp
 80a8fa6:	5b                   	pop    %ebx
 80a8fa7:	c3                   	ret    
 80a9029:	39 7c 24 08          	cmp    %edi,0x8(%esp)
 80a902d:	77 02                	ja     80a9031 <fde_single_encoding_compare+0x71>
 80a902f:	19 c0                	sbb    %eax,%eax
 80a9031:	83 c4 10             	add    $0x10,%esp
 80a9034:	5b                   	pop    %ebx
 80a9035:	5e                   	pop    %esi
 80a9036:	5f                   	pop    %edi
 80a9037:	c3                   	ret    
 80a917b:	0f 83 37 ff ff ff    	jae    80a90b8 <linear_search_fdes+0x78>
 80a9181:	83 c4 3c             	add    $0x3c,%esp
 80a9184:	89 d8                	mov    %ebx,%eax
 80a9186:	5b                   	pop    %ebx
 80a9187:	5e                   	pop    %esi
 80a9188:	5f                   	pop    %edi
 80a9189:	5d                   	pop    %ebp
 80a918a:	c3                   	ret    
 80a91cd:	0f 85 f5 fe ff ff    	jne    80a90c8 <linear_search_fdes+0x88>
 80a91d3:	83 c4 3c             	add    $0x3c,%esp
 80a91d6:	31 c0                	xor    %eax,%eax
 80a91d8:	5b                   	pop    %ebx
 80a91d9:	5e                   	pop    %esi
 80a91da:	5f                   	pop    %edi
 80a91db:	5d                   	pop    %ebp
 80a91dc:	c3                   	ret    
 80a92a7:	39 4c 24 08          	cmp    %ecx,0x8(%esp)
 80a92ab:	77 02                	ja     80a92af <fde_mixed_encoding_compare+0x8f>
 80a92ad:	19 c0                	sbb    %eax,%eax
 80a92af:	83 c4 10             	add    $0x10,%esp
 80a92b2:	5b                   	pop    %ebx
 80a92b3:	5e                   	pop    %esi
 80a92b4:	5f                   	pop    %edi
 80a92b5:	c3                   	ret    
 80a93d4:	0f 85 1e ff ff ff    	jne    80a92f8 <classify_object_over_fdes+0x38>
 80a93da:	8b 44 24 1c          	mov    0x1c(%esp),%eax
 80a93de:	83 c4 3c             	add    $0x3c,%esp
 80a93e1:	5b                   	pop    %ebx
 80a93e2:	5e                   	pop    %esi
 80a93e3:	5f                   	pop    %edi
 80a93e4:	5d                   	pop    %ebp
 80a93e5:	c3                   	ret    
 80a9427:	ff 
 80a9428:	8b 44 24 1c          	mov    0x1c(%esp),%eax
 80a942c:	83 c4 3c             	add    $0x3c,%esp
 80a942f:	5b                   	pop    %ebx
 80a9430:	5e                   	pop    %esi
 80a9431:	5f                   	pop    %edi
 80a9432:	5d                   	pop    %ebp
 80a9433:	c3                   	ret    
 80a94e8:	85 c0                	test   %eax,%eax
 80a94ea:	75 94                	jne    80a9480 <add_fdes+0x40>
 80a94ec:	83 c4 2c             	add    $0x2c,%esp
 80a94ef:	5b                   	pop    %ebx
 80a94f0:	5e                   	pop    %esi
 80a94f1:	5f                   	pop    %edi
 80a94f2:	5d                   	pop    %ebp
 80a94f3:	c3                   	ret    
 80a967f:	31 db                	xor    %ebx,%ebx
 80a9681:	83 c4 4c             	add    $0x4c,%esp
 80a9684:	89 d8                	mov    %ebx,%eax
 80a9686:	5b                   	pop    %ebx
 80a9687:	5e                   	pop    %esi
 80a9688:	5f                   	pop    %edi
 80a9689:	5d                   	pop    %ebp
 80a968a:	c3                   	ret    
 80a973a:	83 c4 4c             	add    $0x4c,%esp
 80a973d:	89 c3                	mov    %eax,%ebx
 80a973f:	89 d8                	mov    %ebx,%eax
 80a9741:	5b                   	pop    %ebx
 80a9742:	5e                   	pop    %esi
 80a9743:	5f                   	pop    %edi
 80a9744:	5d                   	pop    %ebp
 80a9745:	c3                   	ret    
 80a9a1d:	83 c4 4c             	add    $0x4c,%esp
 80a9a20:	89 c3                	mov    %eax,%ebx
 80a9a22:	89 d8                	mov    %ebx,%eax
 80a9a24:	5b                   	pop    %ebx
 80a9a25:	5e                   	pop    %esi
 80a9a26:	5f                   	pop    %edi
 80a9a27:	5d                   	pop    %ebp
 80a9a28:	c3                   	ret    
 80a9d54:	74 2a                	je     80a9d80 <base_from_cb_data.part.5+0x40>
 80a9d56:	76 10                	jbe    80a9d68 <base_from_cb_data.part.5+0x28>
 80a9d58:	3c 30                	cmp    $0x30,%al
 80a9d5a:	75 34                	jne    80a9d90 <base_from_cb_data.part.5+0x50>
 80a9d5c:	8b 42 08             	mov    0x8(%edx),%eax
 80a9d5f:	83 c4 08             	add    $0x8,%esp
 80a9d62:	5b                   	pop    %ebx
 80a9d63:	c3                   	ret    
 80a9d68:	84 c0                	test   %al,%al
 80a9d6a:	74 04                	je     80a9d70 <base_from_cb_data.part.5+0x30>
 80a9d6c:	3c 10                	cmp    $0x10,%al
 80a9d6e:	75 24                	jne    80a9d94 <base_from_cb_data.part.5+0x54>
 80a9d70:	83 c4 08             	add    $0x8,%esp
 80a9d73:	31 c0                	xor    %eax,%eax
 80a9d75:	5b                   	pop    %ebx
 80a9d76:	c3                   	ret    
 80a9d75:	5b                   	pop    %ebx
 80a9d76:	c3                   	ret    
 80a9d77:	89 f6                	mov    %esi,%esi
 80a9d79:	8d bc 27 00 00 00 00 	lea    0x0(%edi,%eiz,1),%edi
 80a9d80:	8b 42 04             	mov    0x4(%edx),%eax
 80a9d83:	83 c4 08             	add    $0x8,%esp
 80a9d86:	5b                   	pop    %ebx
 80a9d87:	c3                   	ret    
 80a9efc:	0f 84 76 01 00 00    	je     80aa078 <_Unwind_IteratePhdrCallback+0x2d8>
 80a9f02:	83 c4 4c             	add    $0x4c,%esp
 80a9f05:	b8 01 00 00 00       	mov    $0x1,%eax
 80a9f0a:	5b                   	pop    %ebx
 80a9f0b:	5e                   	pop    %esi
 80a9f0c:	5f                   	pop    %edi
 80a9f0d:	5d                   	pop    %ebp
 80a9f0e:	c3                   	ret    
 80a9f19:	8d b4 26 00 00 00 00 	lea    0x0(%esi,%eiz,1),%esi
 80a9f20:	31 c0                	xor    %eax,%eax
 80a9f22:	83 c4 4c             	add    $0x4c,%esp
 80a9f25:	5b                   	pop    %ebx
 80a9f26:	5e                   	pop    %esi
 80a9f27:	5f                   	pop    %edi
 80a9f28:	5d                   	pop    %ebp
 80a9f29:	c3                   	ret    
 80aa369:	83 ec 0c             	sub    $0xc,%esp
 80aa36c:	57                   	push   %edi
 80aa36d:	e8 8e 5c f5 f7       	call   0 <_nl_current_LC_CTYPE>
 80aa372:	83 c4 10             	add    $0x10,%esp
 80aa375:	5b                   	pop    %ebx
 80aa376:	5e                   	pop    %esi
 80aa377:	5f                   	pop    %edi
 80aa378:	c3                   	ret    
 80aa3c5:	83 38 00             	cmpl   $0x0,(%eax)
 80aa3c8:	74 0e                	je     80aa3d8 <__register_frame_info_bases+0x28>
 80aa3ca:	89 5c 24 08          	mov    %ebx,0x8(%esp)
 80aa3ce:	5b                   	pop    %ebx
 80aa3cf:	e9 2c ff ff ff       	jmp    80aa300 <__register_frame_info_bases.part.6>
 80aa3d4:	8d 74 26 00          	lea    0x0(%esi,%eiz,1),%esi
 80aa3d8:	5b                   	pop    %ebx
 80aa3d9:	c3                   	ret    
 80aa420:	8b 74 24 10          	mov    0x10(%esp),%esi
 80aa424:	8b 06                	mov    (%esi),%eax
 80aa426:	85 c0                	test   %eax,%eax
 80aa428:	75 06                	jne    80aa430 <__register_frame+0x20>
 80aa42a:	83 c4 04             	add    $0x4,%esp
 80aa42d:	5b                   	pop    %ebx
 80aa42e:	5e                   	pop    %esi
 80aa42f:	c3                   	ret    
 80aa4d3:	83 ec 0c             	sub    $0xc,%esp
 80aa4d6:	57                   	push   %edi
 80aa4d7:	e8 24 5b f5 f7       	call   0 <_nl_current_LC_CTYPE>
 80aa4dc:	83 c4 10             	add    $0x10,%esp
 80aa4df:	5b                   	pop    %ebx
 80aa4e0:	5e                   	pop    %esi
 80aa4e1:	5f                   	pop    %edi
 80aa4e2:	c3                   	ret    
 80aa510:	83 ec 0c             	sub    $0xc,%esp
 80aa513:	6a 00                	push   $0x0
 80aa515:	6a 00                	push   $0x0
 80aa517:	ff 74 24 1c          	pushl  0x1c(%esp)
 80aa51b:	ff 74 24 1c          	pushl  0x1c(%esp)
 80aa51f:	e8 3c ff ff ff       	call   80aa460 <__register_frame_info_table_bases>
 80aa524:	83 c4 1c             	add    $0x1c,%esp
 80aa527:	c3                   	ret    
 80aa549:	6a 00                	push   $0x0
 80aa54b:	6a 00                	push   $0x0
 80aa54d:	50                   	push   %eax
 80aa54e:	ff 74 24 1c          	pushl  0x1c(%esp)
 80aa552:	e8 09 ff ff ff       	call   80aa460 <__register_frame_info_table_bases>
 80aa557:	83 c4 18             	add    $0x18,%esp
 80aa55a:	5b                   	pop    %ebx
 80aa55b:	c3                   	ret    
 80aa623:	83 c4 10             	add    $0x10,%esp
 80aa626:	83 c4 0c             	add    $0xc,%esp
 80aa629:	89 f0                	mov    %esi,%eax
 80aa62b:	5b                   	pop    %ebx
 80aa62c:	5e                   	pop    %esi
 80aa62d:	5f                   	pop    %edi
 80aa62e:	5d                   	pop    %ebp
 80aa62f:	c3                   	ret    
 80aa650:	83 c4 0c             	add    $0xc,%esp
 80aa653:	31 f6                	xor    %esi,%esi
 80aa655:	5b                   	pop    %ebx
 80aa656:	89 f0                	mov    %esi,%eax
 80aa658:	5e                   	pop    %esi
 80aa659:	5f                   	pop    %edi
 80aa65a:	5d                   	pop    %ebp
 80aa65b:	c3                   	ret    
 80aa6bc:	50                   	push   %eax
 80aa6bd:	e8 9e fe ff ff       	call   80aa560 <__deregister_frame_info_bases>
 80aa6c2:	89 04 24             	mov    %eax,(%esp)
 80aa6c5:	e8 16 21 fb ff       	call   805c7e0 <__free>
 80aa6ca:	83 c4 10             	add    $0x10,%esp
 80aa6cd:	83 c4 08             	add    $0x8,%esp
 80aa6d0:	5b                   	pop    %ebx
 80aa6d1:	c3                   	ret    
 80aa768:	89 47 08             	mov    %eax,0x8(%edi)
 80aa76b:	83 c4 3c             	add    $0x3c,%esp
 80aa76e:	89 f0                	mov    %esi,%eax
 80aa770:	5b                   	pop    %ebx
 80aa771:	5e                   	pop    %esi
 80aa772:	5f                   	pop    %edi
 80aa773:	5d                   	pop    %ebp
 80aa774:	c3                   	ret    
 80aa936:	75 51                	jne    80aa989 <base_of_encoded_value+0x79>
 80aa938:	83 ec 0c             	sub    $0xc,%esp
 80aa93b:	52                   	push   %edx
 80aa93c:	e8 ff dc ff ff       	call   80a8640 <_Unwind_GetDataRelBase>
 80aa941:	83 c4 10             	add    $0x10,%esp
 80aa944:	83 c4 08             	add    $0x8,%esp
 80aa947:	5b                   	pop    %ebx
 80aa948:	c3                   	ret    
 80aa950:	84 c0                	test   %al,%al
 80aa952:	74 04                	je     80aa958 <base_of_encoded_value+0x48>
 80aa954:	3c 10                	cmp    $0x10,%al
 80aa956:	75 31                	jne    80aa989 <base_of_encoded_value+0x79>
 80aa958:	83 c4 08             	add    $0x8,%esp
 80aa95b:	31 c0                	xor    %eax,%eax
 80aa95d:	5b                   	pop    %ebx
 80aa95e:	c3                   	ret    
 80aa95f:	90                   	nop
 80aa960:	83 ec 0c             	sub    $0xc,%esp
 80aa963:	52                   	push   %edx
 80aa964:	e8 87 dc ff ff       	call   80a85f0 <_Unwind_GetRegionStart>
 80aa969:	83 c4 10             	add    $0x10,%esp
 80aa96c:	83 c4 08             	add    $0x8,%esp
 80aa96f:	5b                   	pop    %ebx
 80aa970:	c3                   	ret    
 80aa971:	8d b4 26 00 00 00 00 	lea    0x0(%esi,%eiz,1),%esi
 80aa978:	83 ec 0c             	sub    $0xc,%esp
 80aa97b:	52                   	push   %edx
 80aa97c:	e8 cf dc ff ff       	call   80a8650 <_Unwind_GetTextRelBase>
 80aa981:	83 c4 10             	add    $0x10,%esp
 80aa984:	83 c4 08             	add    $0x8,%esp
 80aa987:	5b                   	pop    %ebx
 80aa988:	c3                   	ret    
 80aa9f0:	89 18                	mov    %ebx,(%eax)
 80aa9f2:	83 c4 1c             	add    $0x1c,%esp
 80aa9f5:	89 d0                	mov    %edx,%eax
 80aa9f7:	5b                   	pop    %ebx
 80aa9f8:	5e                   	pop    %esi
 80aa9f9:	5f                   	pop    %edi
 80aa9fa:	5d                   	pop    %ebp
 80aa9fb:	c3                   	ret    
 80aaa0f:	89 18                	mov    %ebx,(%eax)
 80aaa11:	83 c4 1c             	add    $0x1c,%esp
 80aaa14:	89 d0                	mov    %edx,%eax
 80aaa16:	5b                   	pop    %ebx
 80aaa17:	5e                   	pop    %esi
 80aaa18:	5f                   	pop    %edi
 80aaa19:	5d                   	pop    %ebp
 80aaa1a:	c3                   	ret    
 80aab03:	00 
 80aab04:	74 0a                	je     80aab10 <__gcc_personality_v0+0x30>
 80aab06:	83 c4 4c             	add    $0x4c,%esp
 80aab09:	5b                   	pop    %ebx
 80aab0a:	5e                   	pop    %esi
 80aab0b:	5f                   	pop    %edi
 80aab0c:	5d                   	pop    %ebp
 80aab0d:	c3                   	ret    
 80aab15:	75 11                	jne    80aab28 <__gcc_personality_v0+0x48>
 80aab17:	83 c4 4c             	add    $0x4c,%esp
 80aab1a:	b8 08 00 00 00       	mov    $0x8,%eax
 80aab1f:	5b                   	pop    %ebx
 80aab20:	5e                   	pop    %esi
 80aab21:	5f                   	pop    %edi
 80aab22:	5d                   	pop    %ebp
 80aab23:	c3                   	ret    
 80aaeb6:	89 d0                	mov    %edx,%eax
 80aaeb8:	75 12                	jne    80aaecc <__dl_iterate_phdr+0x15c>
 80aaeba:	83 c4 5c             	add    $0x5c,%esp
 80aaebd:	5b                   	pop    %ebx
 80aaebe:	5e                   	pop    %esi
 80aaebf:	5f                   	pop    %edi
 80aaec0:	5d                   	pop    %ebp
 80aaec1:	c3                   	ret    
 80aaf9e:	89 f0                	mov    %esi,%eax
 80aafa0:	75 e6                	jne    80aaf88 <free_mem+0xa8>
 80aafa2:	83 c4 0c             	add    $0xc,%esp
 80aafa5:	5b                   	pop    %ebx
 80aafa6:	5e                   	pop    %esi
 80aafa7:	5f                   	pop    %edi
 80aafa8:	5d                   	pop    %ebp
 80aafa9:	c3                   	ret    
 80aaff5:	e8 e6 17 fb ff       	call   805c7e0 <__free>
 80aaffa:	83 c4 10             	add    $0x10,%esp
 80aaffd:	85 ff                	test   %edi,%edi
 80aafff:	75 cf                	jne    80aafd0 <_nl_finddomain_subfreeres+0x20>
 80ab001:	5b                   	pop    %ebx
 80ab002:	5e                   	pop    %esi
 80ab003:	5f                   	pop    %edi
 80ab004:	c3                   	ret    
 80ab0fc:	56                   	push   %esi
 80ab0fd:	e8 de 16 fb ff       	call   805c7e0 <__free>
 80ab102:	83 c4 2c             	add    $0x2c,%esp
 80ab105:	5b                   	pop    %ebx
 80ab106:	5e                   	pop    %esi
 80ab107:	5f                   	pop    %edi
 80ab108:	5d                   	pop    %ebp
 80ab109:	c3                   	ret    
 80ab166:	83 c4 10             	add    $0x10,%esp
 80ab169:	85 f6                	test   %esi,%esi
 80ab16b:	89 b3 48 18 00 00    	mov    %esi,0x1848(%ebx)
 80ab171:	75 e5                	jne    80ab158 <buffer_free+0x28>
 80ab173:	83 c4 04             	add    $0x4,%esp
 80ab176:	5b                   	pop    %ebx
 80ab177:	5e                   	pop    %esi
 80ab178:	c3                   	ret    
 80ab239:	52                   	push   %edx
 80ab23a:	e8 a1 15 fb ff       	call   805c7e0 <__free>
 80ab23f:	83 c4 2c             	add    $0x2c,%esp
 80ab242:	5b                   	pop    %ebx
 80ab243:	5e                   	pop    %esi
 80ab244:	5f                   	pop    %edi
 80ab245:	5d                   	pop    %ebp
 80ab246:	c3                   	ret    
 80ab287:	e8 54 15 fb ff       	call   805c7e0 <__free>
 80ab28c:	83 c4 10             	add    $0x10,%esp
 80ab28f:	85 ff                	test   %edi,%edi
 80ab291:	75 e3                	jne    80ab276 <free_modules_db+0x26>
 80ab293:	5b                   	pop    %ebx
 80ab294:	5e                   	pop    %esi
 80ab295:	5f                   	pop    %edi
 80ab296:	c3                   	ret    
 80ab314:	83 ec 08             	sub    $0x8,%esp
 80ab317:	52                   	push   %edx
 80ab318:	50                   	push   %eax
 80ab319:	e8 42 23 fc ff       	call   806d660 <__tdestroy>
 80ab31e:	83 c4 10             	add    $0x10,%esp
 80ab321:	83 c4 08             	add    $0x8,%esp
 80ab324:	5b                   	pop    %ebx
 80ab325:	c3                   	ret    
 80ab351:	74 0c                	je     80ab35f <free_mem+0x2f>
 80ab353:	83 ec 0c             	sub    $0xc,%esp
 80ab356:	50                   	push   %eax
 80ab357:	e8 84 14 fb ff       	call   805c7e0 <__free>
 80ab35c:	83 c4 10             	add    $0x10,%esp
 80ab35f:	83 c4 08             	add    $0x8,%esp
 80ab362:	5b                   	pop    %ebx
 80ab363:	c3                   	ret    
 80ab393:	83 ec 08             	sub    $0x8,%esp
 80ab396:	ff b3 70 19 00 00    	pushl  0x1970(%ebx)
 80ab39c:	50                   	push   %eax
 80ab39d:	e8 5e 18 fc ff       	call   806cc00 <__munmap>
 80ab3a2:	83 c4 10             	add    $0x10,%esp
 80ab3a5:	83 c4 08             	add    $0x8,%esp
 80ab3a8:	5b                   	pop    %ebx
 80ab3a9:	c3                   	ret    
 80ab3aa:	8d b6 00 00 00 00    	lea    0x0(%esi),%esi
 80ab3b0:	83 ec 0c             	sub    $0xc,%esp
 80ab3b3:	50                   	push   %eax
 80ab3b4:	e8 27 14 fb ff       	call   805c7e0 <__free>
 80ab3b9:	83 c4 10             	add    $0x10,%esp
 80ab3bc:	83 c4 08             	add    $0x8,%esp
 80ab3bf:	5b                   	pop    %ebx
 80ab3c0:	c3                   	ret    
 80ab3f4:	83 c4 10             	add    $0x10,%esp
 80ab3f7:	83 ec 0c             	sub    $0xc,%esp
 80ab3fa:	56                   	push   %esi
 80ab3fb:	e8 e0 13 fb ff       	call   805c7e0 <__free>
 80ab400:	83 c4 14             	add    $0x14,%esp
 80ab403:	5b                   	pop    %ebx
 80ab404:	5e                   	pop    %esi
 80ab405:	c3                   	ret    
 80ab425:	50                   	push   %eax
 80ab426:	ff b3 7c 19 00 00    	pushl  0x197c(%ebx)
 80ab42c:	e8 2f 22 fc ff       	call   806d660 <__tdestroy>
 80ab431:	c7 83 7c 19 00 00 00 	movl   $0x0,0x197c(%ebx)
 80ab438:	00 00 00 
 80ab43b:	83 c4 18             	add    $0x18,%esp
 80ab43e:	5b                   	pop    %ebx
 80ab43f:	c3                   	ret    
 80ab4f1:	85 ed                	test   %ebp,%ebp
 80ab4f3:	75 cb                	jne    80ab4c0 <free_category+0x80>
 80ab4f5:	83 c4 1c             	add    $0x1c,%esp
 80ab4f8:	5b                   	pop    %ebx
 80ab4f9:	5e                   	pop    %esi
 80ab4fa:	5f                   	pop    %edi
 80ab4fb:	5d                   	pop    %ebp
 80ab4fc:	c3                   	ret    
 80ab7ed:	85 ff                	test   %edi,%edi
 80ab7ef:	75 df                	jne    80ab7d0 <_nl_archive_subfreeres+0xd0>
 80ab7f1:	83 c4 0c             	add    $0xc,%esp
 80ab7f4:	5b                   	pop    %ebx
 80ab7f5:	5e                   	pop    %esi
 80ab7f6:	5f                   	pop    %edi
 80ab7f7:	5d                   	pop    %ebp
 80ab7f8:	c3                   	ret    
 80ab837:	ff b3 f8 ff ff ff    	pushl  -0x8(%ebx)
 80ab83d:	ff b3 38 1a 00 00    	pushl  0x1a38(%ebx)
 80ab843:	e8 18 1e fc ff       	call   806d660 <__tdestroy>
 80ab848:	c7 83 38 1a 00 00 00 	movl   $0x0,0x1a38(%ebx)
 80ab84f:	00 00 00 
 80ab852:	83 c4 18             	add    $0x18,%esp
 80ab855:	5b                   	pop    %ebx
 80ab856:	c3                   	ret    
 80ab8b5:	83 ec 0c             	sub    $0xc,%esp
 80ab8b8:	52                   	push   %edx
 80ab8b9:	e8 22 0f fb ff       	call   805c7e0 <__free>
 80ab8be:	83 c4 10             	add    $0x10,%esp
 80ab8c1:	5b                   	pop    %ebx
 80ab8c2:	5e                   	pop    %esi
 80ab8c3:	5f                   	pop    %edi
 80ab8c4:	c3                   	ret    
 80ab8e3:	85 d2                	test   %edx,%edx
 80ab8e5:	75 11                	jne    80ab8f8 <free_slotinfo+0x28>
 80ab8e7:	b8 01 00 00 00       	mov    $0x1,%eax
 80ab8ec:	83 c4 10             	add    $0x10,%esp
 80ab8ef:	5b                   	pop    %ebx
 80ab8f0:	5e                   	pop    %esi
 80ab8f1:	5f                   	pop    %edi
 80ab8f2:	c3                   	ret    
 80aba34:	52                   	push   %edx
 80aba35:	e8 a6 0d fb ff       	call   805c7e0 <__free>
 80aba3a:	83 c4 1c             	add    $0x1c,%esp
 80aba3d:	5b                   	pop    %ebx
 80aba3e:	5e                   	pop    %esi
 80aba3f:	5f                   	pop    %edi
 80aba40:	5d                   	pop    %ebp
 80aba41:	c3                   	ret    
 80abb70:	8d 86 ac 18 00 00    	lea    0x18ac(%esi),%eax
 80abb76:	e8 d5 22 fc ff       	call   806de50 <__lll_unlock_wake_private>
 80abb7b:	83 c4 0c             	add    $0xc,%esp
 80abb7e:	5b                   	pop    %ebx
 80abb7f:	5e                   	pop    %esi
 80abb80:	5f                   	pop    %edi
 80abb81:	5d                   	pop    %ebp
 80abb82:	c3                   	ret    
080abbb8 <_fini>:
 80abbb8:	53                   	push   %ebx
 80abbb9:	83 ec 08             	sub    $0x8,%esp
 80abbbc:	e8 bf cb f9 ff       	call   8048780 <__x86.get_pc_thunk.bx>
 80abbc1:	81 c3 3f d4 02 00    	add    $0x2d43f,%ebx
 80abbc7:	83 c4 08             	add    $0x8,%esp
 80abbca:	5b                   	pop    %ebx
 80abbcb:	c3                   	ret    
